
kernel:     file format elf32-i386

Disassembly of section Kernel:

00010000 <Kernel>:
   10000:	bc 00 f4 01 00       	mov    $0x1f400,%esp
   10005:	e8 4a 00 00 00       	call   0x10054
   1000a:	e8 f1 7c 00 00       	call   0x17d00
   1000f:	0f 01 15 20 f4 01 00 	lgdtl  0x1f420
   10016:	66 b8 08 00          	mov    $0x8,%ax
   1001a:	8e d8                	movl   %eax,%ds
   1001c:	8e c0                	movl   %eax,%es
   1001e:	8e e0                	movl   %eax,%fs
   10020:	8e e8                	movl   %eax,%gs
   10022:	8e d0                	movl   %eax,%ss
   10024:	ea 2b 00 01 00 10 00 	ljmp   $0x10,$0x1002b
   1002b:	6a 00                	push   $0x0
   1002d:	9d                   	popf   
   1002e:	e8 8f 09 00 00       	call   0x109c2
   10033:	0f 01 1d c4 aa 02 00 	lidtl  0x2aac4
   1003a:	66 b8 28 00          	mov    $0x28,%ax
   1003e:	0f 00 d8             	ltr    %ax
   10041:	8b 25 30 f4 01 00    	mov    0x1f430,%esp
   10047:	0f a9                	pop    %gs
   10049:	0f a1                	pop    %fs
   1004b:	07                   	pop    %es
   1004c:	1f                   	pop    %ds
   1004d:	61                   	popa   
   1004e:	83 c4 04             	add    $0x4,%esp
   10051:	cf                   	iret   
   10052:	eb fe                	jmp    0x10052
   10054:	b9 08 00 00 00       	mov    $0x8,%ecx
   10059:	bf 00 00 00 00       	mov    $0x0,%edi
   1005e:	b8 07 10 00 00       	mov    $0x1007,%eax
   10063:	89 07                	mov    %eax,(%edi)
   10065:	05 00 10 00 00       	add    $0x1000,%eax
   1006a:	83 c7 04             	add    $0x4,%edi
   1006d:	49                   	dec    %ecx
   1006e:	75 f3                	jne    0x10063
   10070:	b9 00 20 00 00       	mov    $0x2000,%ecx
   10075:	bf 00 10 00 00       	mov    $0x1000,%edi
   1007a:	b8 07 00 00 00       	mov    $0x7,%eax
   1007f:	26 89 07             	mov    %eax,%es:(%edi)
   10082:	05 00 10 00 00       	add    $0x1000,%eax
   10087:	83 c7 04             	add    $0x4,%edi
   1008a:	49                   	dec    %ecx
   1008b:	75 f2                	jne    0x1007f
   1008d:	0f 20 d8             	mov    %cr3,%eax
   10090:	25 ff 0f 00 00       	and    $0xfff,%eax
   10095:	83 c8 00             	or     $0x0,%eax
   10098:	0f 22 d8             	mov    %eax,%cr3
   1009b:	0f 20 c0             	mov    %cr0,%eax
   1009e:	0d 00 00 00 80       	or     $0x80000000,%eax
   100a3:	0f 22 c0             	mov    %eax,%cr0
   100a6:	c3                   	ret    
	...
   100af:	00 60 b0             	add    %ah,0xffffffb0(%eax)
   100b2:	20 e6                	and    %ah,%dh
   100b4:	20 e6                	and    %ah,%dh
   100b6:	a0 61 cf 6a ff       	mov    0xff6acf61,%al
   100bb:	60                   	pusha  
   100bc:	1e                   	push   %ds
   100bd:	06                   	push   %es
   100be:	0f a0                	push   %fs
   100c0:	0f a8                	push   %gs
   100c2:	0f 20 de             	mov    %cr3,%esi
   100c5:	83 fe 00             	cmp    $0x0,%esi
   100c8:	74 08                	je     0x100d2
   100ca:	be 00 00 00 00       	mov    $0x0,%esi
   100cf:	0f 22 de             	mov    %esi,%cr3
   100d2:	ff 05 c8 05 01 00    	incl   0x105c8
   100d8:	83 3d c8 05 01 00 01 	cmpl   $0x1,0x105c8
   100df:	75 07                	jne    0x100e8
   100e1:	89 e5                	mov    %esp,%ebp
   100e3:	bc 00 f4 01 00       	mov    $0x1f400,%esp
   100e8:	ff 75 3c             	pushl  0x3c(%ebp)
   100eb:	ff 75 38             	pushl  0x38(%ebp)
   100ee:	ff 75 34             	pushl  0x34(%ebp)
   100f1:	ff 75 30             	pushl  0x30(%ebp)
   100f4:	6a 00                	push   $0x0
   100f6:	eb 00                	jmp    0x100f8
   100f8:	e8 ac 76 00 00       	call   0x177a9
   100fd:	83 c4 14             	add    $0x14,%esp
   10100:	fa                   	cli    
   10101:	ff 0d c8 05 01 00    	decl   0x105c8
   10107:	75 1d                	jne    0x10126
   10109:	8b 1d 30 f4 01 00    	mov    0x1f430,%ebx
   1010f:	89 dc                	mov    %ebx,%esp
   10111:	83 c3 48             	add    $0x48,%ebx
   10114:	89 1d 24 ab 02 00    	mov    %ebx,0x2ab24
   1011a:	8b 5c 24 48          	mov    0x48(%esp),%ebx
   1011e:	83 fb 00             	cmp    $0x0,%ebx
   10121:	74 03                	je     0x10126
   10123:	0f 22 db             	mov    %ebx,%cr3
   10126:	0f a9                	pop    %gs
   10128:	0f a1                	pop    %fs
   1012a:	07                   	pop    %es
   1012b:	1f                   	pop    %ds
   1012c:	61                   	popa   
   1012d:	83 c4 04             	add    $0x4,%esp
   10130:	cf                   	iret   
   10131:	6a ff                	push   $0xffffffff
   10133:	60                   	pusha  
   10134:	1e                   	push   %ds
   10135:	06                   	push   %es
   10136:	0f a0                	push   %fs
   10138:	0f a8                	push   %gs
   1013a:	0f 20 de             	mov    %cr3,%esi
   1013d:	83 fe 00             	cmp    $0x0,%esi
   10140:	74 08                	je     0x1014a
   10142:	be 00 00 00 00       	mov    $0x0,%esi
   10147:	0f 22 de             	mov    %esi,%cr3
   1014a:	ff 05 c8 05 01 00    	incl   0x105c8
   10150:	83 3d c8 05 01 00 01 	cmpl   $0x1,0x105c8
   10157:	75 07                	jne    0x10160
   10159:	89 e5                	mov    %esp,%ebp
   1015b:	bc 00 f4 01 00       	mov    $0x1f400,%esp
   10160:	ff 75 3c             	pushl  0x3c(%ebp)
   10163:	ff 75 38             	pushl  0x38(%ebp)
   10166:	ff 75 34             	pushl  0x34(%ebp)
   10169:	ff 75 30             	pushl  0x30(%ebp)
   1016c:	6a 01                	push   $0x1
   1016e:	eb 88                	jmp    0x100f8
   10170:	6a ff                	push   $0xffffffff
   10172:	60                   	pusha  
   10173:	1e                   	push   %ds
   10174:	06                   	push   %es
   10175:	0f a0                	push   %fs
   10177:	0f a8                	push   %gs
   10179:	0f 20 de             	mov    %cr3,%esi
   1017c:	83 fe 00             	cmp    $0x0,%esi
   1017f:	74 08                	je     0x10189
   10181:	be 00 00 00 00       	mov    $0x0,%esi
   10186:	0f 22 de             	mov    %esi,%cr3
   10189:	ff 05 c8 05 01 00    	incl   0x105c8
   1018f:	83 3d c8 05 01 00 01 	cmpl   $0x1,0x105c8
   10196:	75 07                	jne    0x1019f
   10198:	89 e5                	mov    %esp,%ebp
   1019a:	bc 00 f4 01 00       	mov    $0x1f400,%esp
   1019f:	ff 75 3c             	pushl  0x3c(%ebp)
   101a2:	ff 75 38             	pushl  0x38(%ebp)
   101a5:	ff 75 34             	pushl  0x34(%ebp)
   101a8:	ff 75 30             	pushl  0x30(%ebp)
   101ab:	6a 02                	push   $0x2
   101ad:	e9 46 ff ff ff       	jmp    0x100f8
   101b2:	6a ff                	push   $0xffffffff
   101b4:	60                   	pusha  
   101b5:	1e                   	push   %ds
   101b6:	06                   	push   %es
   101b7:	0f a0                	push   %fs
   101b9:	0f a8                	push   %gs
   101bb:	0f 20 de             	mov    %cr3,%esi
   101be:	83 fe 00             	cmp    $0x0,%esi
   101c1:	74 08                	je     0x101cb
   101c3:	be 00 00 00 00       	mov    $0x0,%esi
   101c8:	0f 22 de             	mov    %esi,%cr3
   101cb:	ff 05 c8 05 01 00    	incl   0x105c8
   101d1:	83 3d c8 05 01 00 01 	cmpl   $0x1,0x105c8
   101d8:	75 07                	jne    0x101e1
   101da:	89 e5                	mov    %esp,%ebp
   101dc:	bc 00 f4 01 00       	mov    $0x1f400,%esp
   101e1:	ff 75 3c             	pushl  0x3c(%ebp)
   101e4:	ff 75 38             	pushl  0x38(%ebp)
   101e7:	ff 75 34             	pushl  0x34(%ebp)
   101ea:	ff 75 30             	pushl  0x30(%ebp)
   101ed:	6a 03                	push   $0x3
   101ef:	e9 04 ff ff ff       	jmp    0x100f8
   101f4:	6a ff                	push   $0xffffffff
   101f6:	60                   	pusha  
   101f7:	1e                   	push   %ds
   101f8:	06                   	push   %es
   101f9:	0f a0                	push   %fs
   101fb:	0f a8                	push   %gs
   101fd:	0f 20 de             	mov    %cr3,%esi
   10200:	83 fe 00             	cmp    $0x0,%esi
   10203:	74 08                	je     0x1020d
   10205:	be 00 00 00 00       	mov    $0x0,%esi
   1020a:	0f 22 de             	mov    %esi,%cr3
   1020d:	ff 05 c8 05 01 00    	incl   0x105c8
   10213:	83 3d c8 05 01 00 01 	cmpl   $0x1,0x105c8
   1021a:	75 07                	jne    0x10223
   1021c:	89 e5                	mov    %esp,%ebp
   1021e:	bc 00 f4 01 00       	mov    $0x1f400,%esp
   10223:	ff 75 3c             	pushl  0x3c(%ebp)
   10226:	ff 75 38             	pushl  0x38(%ebp)
   10229:	ff 75 34             	pushl  0x34(%ebp)
   1022c:	ff 75 30             	pushl  0x30(%ebp)
   1022f:	6a 04                	push   $0x4
   10231:	e9 c2 fe ff ff       	jmp    0x100f8
   10236:	6a ff                	push   $0xffffffff
   10238:	60                   	pusha  
   10239:	1e                   	push   %ds
   1023a:	06                   	push   %es
   1023b:	0f a0                	push   %fs
   1023d:	0f a8                	push   %gs
   1023f:	0f 20 de             	mov    %cr3,%esi
   10242:	83 fe 00             	cmp    $0x0,%esi
   10245:	74 08                	je     0x1024f
   10247:	be 00 00 00 00       	mov    $0x0,%esi
   1024c:	0f 22 de             	mov    %esi,%cr3
   1024f:	ff 05 c8 05 01 00    	incl   0x105c8
   10255:	83 3d c8 05 01 00 01 	cmpl   $0x1,0x105c8
   1025c:	75 07                	jne    0x10265
   1025e:	89 e5                	mov    %esp,%ebp
   10260:	bc 00 f4 01 00       	mov    $0x1f400,%esp
   10265:	ff 75 3c             	pushl  0x3c(%ebp)
   10268:	ff 75 38             	pushl  0x38(%ebp)
   1026b:	ff 75 34             	pushl  0x34(%ebp)
   1026e:	ff 75 30             	pushl  0x30(%ebp)
   10271:	6a 05                	push   $0x5
   10273:	e9 80 fe ff ff       	jmp    0x100f8
   10278:	6a ff                	push   $0xffffffff
   1027a:	60                   	pusha  
   1027b:	1e                   	push   %ds
   1027c:	06                   	push   %es
   1027d:	0f a0                	push   %fs
   1027f:	0f a8                	push   %gs
   10281:	0f 20 de             	mov    %cr3,%esi
   10284:	83 fe 00             	cmp    $0x0,%esi
   10287:	74 08                	je     0x10291
   10289:	be 00 00 00 00       	mov    $0x0,%esi
   1028e:	0f 22 de             	mov    %esi,%cr3
   10291:	ff 05 c8 05 01 00    	incl   0x105c8
   10297:	83 3d c8 05 01 00 01 	cmpl   $0x1,0x105c8
   1029e:	75 07                	jne    0x102a7
   102a0:	89 e5                	mov    %esp,%ebp
   102a2:	bc 00 f4 01 00       	mov    $0x1f400,%esp
   102a7:	ff 75 3c             	pushl  0x3c(%ebp)
   102aa:	ff 75 38             	pushl  0x38(%ebp)
   102ad:	ff 75 34             	pushl  0x34(%ebp)
   102b0:	ff 75 30             	pushl  0x30(%ebp)
   102b3:	6a 06                	push   $0x6
   102b5:	e9 3e fe ff ff       	jmp    0x100f8
   102ba:	6a ff                	push   $0xffffffff
   102bc:	60                   	pusha  
   102bd:	1e                   	push   %ds
   102be:	06                   	push   %es
   102bf:	0f a0                	push   %fs
   102c1:	0f a8                	push   %gs
   102c3:	0f 20 de             	mov    %cr3,%esi
   102c6:	83 fe 00             	cmp    $0x0,%esi
   102c9:	74 08                	je     0x102d3
   102cb:	be 00 00 00 00       	mov    $0x0,%esi
   102d0:	0f 22 de             	mov    %esi,%cr3
   102d3:	ff 05 c8 05 01 00    	incl   0x105c8
   102d9:	83 3d c8 05 01 00 01 	cmpl   $0x1,0x105c8
   102e0:	75 07                	jne    0x102e9
   102e2:	89 e5                	mov    %esp,%ebp
   102e4:	bc 00 f4 01 00       	mov    $0x1f400,%esp
   102e9:	ff 75 3c             	pushl  0x3c(%ebp)
   102ec:	ff 75 38             	pushl  0x38(%ebp)
   102ef:	ff 75 34             	pushl  0x34(%ebp)
   102f2:	ff 75 30             	pushl  0x30(%ebp)
   102f5:	6a 07                	push   $0x7
   102f7:	e9 fc fd ff ff       	jmp    0x100f8
   102fc:	60                   	pusha  
   102fd:	1e                   	push   %ds
   102fe:	06                   	push   %es
   102ff:	0f a0                	push   %fs
   10301:	0f a8                	push   %gs
   10303:	0f 20 de             	mov    %cr3,%esi
   10306:	83 fe 00             	cmp    $0x0,%esi
   10309:	74 08                	je     0x10313
   1030b:	be 00 00 00 00       	mov    $0x0,%esi
   10310:	0f 22 de             	mov    %esi,%cr3
   10313:	ff 05 c8 05 01 00    	incl   0x105c8
   10319:	83 3d c8 05 01 00 01 	cmpl   $0x1,0x105c8
   10320:	75 07                	jne    0x10329
   10322:	89 e5                	mov    %esp,%ebp
   10324:	bc 00 f4 01 00       	mov    $0x1f400,%esp
   10329:	ff 75 3c             	pushl  0x3c(%ebp)
   1032c:	ff 75 38             	pushl  0x38(%ebp)
   1032f:	ff 75 34             	pushl  0x34(%ebp)
   10332:	ff 75 30             	pushl  0x30(%ebp)
   10335:	6a 08                	push   $0x8
   10337:	e9 bc fd ff ff       	jmp    0x100f8
   1033c:	6a ff                	push   $0xffffffff
   1033e:	60                   	pusha  
   1033f:	1e                   	push   %ds
   10340:	06                   	push   %es
   10341:	0f a0                	push   %fs
   10343:	0f a8                	push   %gs
   10345:	0f 20 de             	mov    %cr3,%esi
   10348:	83 fe 00             	cmp    $0x0,%esi
   1034b:	74 08                	je     0x10355
   1034d:	be 00 00 00 00       	mov    $0x0,%esi
   10352:	0f 22 de             	mov    %esi,%cr3
   10355:	ff 05 c8 05 01 00    	incl   0x105c8
   1035b:	83 3d c8 05 01 00 01 	cmpl   $0x1,0x105c8
   10362:	75 07                	jne    0x1036b
   10364:	89 e5                	mov    %esp,%ebp
   10366:	bc 00 f4 01 00       	mov    $0x1f400,%esp
   1036b:	ff 75 3c             	pushl  0x3c(%ebp)
   1036e:	ff 75 38             	pushl  0x38(%ebp)
   10371:	ff 75 34             	pushl  0x34(%ebp)
   10374:	ff 75 30             	pushl  0x30(%ebp)
   10377:	6a 09                	push   $0x9
   10379:	e9 7a fd ff ff       	jmp    0x100f8
   1037e:	60                   	pusha  
   1037f:	1e                   	push   %ds
   10380:	06                   	push   %es
   10381:	0f a0                	push   %fs
   10383:	0f a8                	push   %gs
   10385:	0f 20 de             	mov    %cr3,%esi
   10388:	83 fe 00             	cmp    $0x0,%esi
   1038b:	74 08                	je     0x10395
   1038d:	be 00 00 00 00       	mov    $0x0,%esi
   10392:	0f 22 de             	mov    %esi,%cr3
   10395:	ff 05 c8 05 01 00    	incl   0x105c8
   1039b:	83 3d c8 05 01 00 01 	cmpl   $0x1,0x105c8
   103a2:	75 07                	jne    0x103ab
   103a4:	89 e5                	mov    %esp,%ebp
   103a6:	bc 00 f4 01 00       	mov    $0x1f400,%esp
   103ab:	ff 75 3c             	pushl  0x3c(%ebp)
   103ae:	ff 75 38             	pushl  0x38(%ebp)
   103b1:	ff 75 34             	pushl  0x34(%ebp)
   103b4:	ff 75 30             	pushl  0x30(%ebp)
   103b7:	6a 0a                	push   $0xa
   103b9:	e9 3a fd ff ff       	jmp    0x100f8
   103be:	60                   	pusha  
   103bf:	1e                   	push   %ds
   103c0:	06                   	push   %es
   103c1:	0f a0                	push   %fs
   103c3:	0f a8                	push   %gs
   103c5:	0f 20 de             	mov    %cr3,%esi
   103c8:	83 fe 00             	cmp    $0x0,%esi
   103cb:	74 08                	je     0x103d5
   103cd:	be 00 00 00 00       	mov    $0x0,%esi
   103d2:	0f 22 de             	mov    %esi,%cr3
   103d5:	ff 05 c8 05 01 00    	incl   0x105c8
   103db:	83 3d c8 05 01 00 01 	cmpl   $0x1,0x105c8
   103e2:	75 07                	jne    0x103eb
   103e4:	89 e5                	mov    %esp,%ebp
   103e6:	bc 00 f4 01 00       	mov    $0x1f400,%esp
   103eb:	ff 75 3c             	pushl  0x3c(%ebp)
   103ee:	ff 75 38             	pushl  0x38(%ebp)
   103f1:	ff 75 34             	pushl  0x34(%ebp)
   103f4:	ff 75 30             	pushl  0x30(%ebp)
   103f7:	6a 0b                	push   $0xb
   103f9:	e9 fa fc ff ff       	jmp    0x100f8
   103fe:	60                   	pusha  
   103ff:	1e                   	push   %ds
   10400:	06                   	push   %es
   10401:	0f a0                	push   %fs
   10403:	0f a8                	push   %gs
   10405:	0f 20 de             	mov    %cr3,%esi
   10408:	83 fe 00             	cmp    $0x0,%esi
   1040b:	74 08                	je     0x10415
   1040d:	be 00 00 00 00       	mov    $0x0,%esi
   10412:	0f 22 de             	mov    %esi,%cr3
   10415:	ff 05 c8 05 01 00    	incl   0x105c8
   1041b:	83 3d c8 05 01 00 01 	cmpl   $0x1,0x105c8
   10422:	75 07                	jne    0x1042b
   10424:	89 e5                	mov    %esp,%ebp
   10426:	bc 00 f4 01 00       	mov    $0x1f400,%esp
   1042b:	ff 75 3c             	pushl  0x3c(%ebp)
   1042e:	ff 75 38             	pushl  0x38(%ebp)
   10431:	ff 75 34             	pushl  0x34(%ebp)
   10434:	ff 75 30             	pushl  0x30(%ebp)
   10437:	6a 0c                	push   $0xc
   10439:	e9 ba fc ff ff       	jmp    0x100f8
   1043e:	60                   	pusha  
   1043f:	1e                   	push   %ds
   10440:	06                   	push   %es
   10441:	0f a0                	push   %fs
   10443:	0f a8                	push   %gs
   10445:	0f 20 de             	mov    %cr3,%esi
   10448:	83 fe 00             	cmp    $0x0,%esi
   1044b:	74 08                	je     0x10455
   1044d:	be 00 00 00 00       	mov    $0x0,%esi
   10452:	0f 22 de             	mov    %esi,%cr3
   10455:	ff 05 c8 05 01 00    	incl   0x105c8
   1045b:	83 3d c8 05 01 00 01 	cmpl   $0x1,0x105c8
   10462:	75 07                	jne    0x1046b
   10464:	89 e5                	mov    %esp,%ebp
   10466:	bc 00 f4 01 00       	mov    $0x1f400,%esp
   1046b:	ff 75 3c             	pushl  0x3c(%ebp)
   1046e:	ff 75 38             	pushl  0x38(%ebp)
   10471:	ff 75 34             	pushl  0x34(%ebp)
   10474:	ff 75 30             	pushl  0x30(%ebp)
   10477:	6a 0d                	push   $0xd
   10479:	e9 7a fc ff ff       	jmp    0x100f8
   1047e:	60                   	pusha  
   1047f:	1e                   	push   %ds
   10480:	06                   	push   %es
   10481:	0f a0                	push   %fs
   10483:	0f a8                	push   %gs
   10485:	0f 20 de             	mov    %cr3,%esi
   10488:	83 fe 00             	cmp    $0x0,%esi
   1048b:	74 08                	je     0x10495
   1048d:	be 00 00 00 00       	mov    $0x0,%esi
   10492:	0f 22 de             	mov    %esi,%cr3
   10495:	ff 05 c8 05 01 00    	incl   0x105c8
   1049b:	83 3d c8 05 01 00 01 	cmpl   $0x1,0x105c8
   104a2:	75 07                	jne    0x104ab
   104a4:	89 e5                	mov    %esp,%ebp
   104a6:	bc 00 f4 01 00       	mov    $0x1f400,%esp
   104ab:	ff 75 3c             	pushl  0x3c(%ebp)
   104ae:	ff 75 38             	pushl  0x38(%ebp)
   104b1:	ff 75 34             	pushl  0x34(%ebp)
   104b4:	ff 75 30             	pushl  0x30(%ebp)
   104b7:	6a 0e                	push   $0xe
   104b9:	e9 3a fc ff ff       	jmp    0x100f8
   104be:	6a ff                	push   $0xffffffff
   104c0:	60                   	pusha  
   104c1:	1e                   	push   %ds
   104c2:	06                   	push   %es
   104c3:	0f a0                	push   %fs
   104c5:	0f a8                	push   %gs
   104c7:	0f 20 de             	mov    %cr3,%esi
   104ca:	83 fe 00             	cmp    $0x0,%esi
   104cd:	74 08                	je     0x104d7
   104cf:	be 00 00 00 00       	mov    $0x0,%esi
   104d4:	0f 22 de             	mov    %esi,%cr3
   104d7:	ff 05 c8 05 01 00    	incl   0x105c8
   104dd:	83 3d c8 05 01 00 01 	cmpl   $0x1,0x105c8
   104e4:	75 07                	jne    0x104ed
   104e6:	89 e5                	mov    %esp,%ebp
   104e8:	bc 00 f4 01 00       	mov    $0x1f400,%esp
   104ed:	ff 75 3c             	pushl  0x3c(%ebp)
   104f0:	ff 75 38             	pushl  0x38(%ebp)
   104f3:	ff 75 34             	pushl  0x34(%ebp)
   104f6:	ff 75 30             	pushl  0x30(%ebp)
   104f9:	6a 10                	push   $0x10
   104fb:	e9 f8 fb ff ff       	jmp    0x100f8
   10500:	60                   	pusha  
   10501:	1e                   	push   %ds
   10502:	06                   	push   %es
   10503:	0f a0                	push   %fs
   10505:	0f a8                	push   %gs
   10507:	0f 20 de             	mov    %cr3,%esi
   1050a:	83 fe 00             	cmp    $0x0,%esi
   1050d:	74 08                	je     0x10517
   1050f:	be 00 00 00 00       	mov    $0x0,%esi
   10514:	0f 22 de             	mov    %esi,%cr3
   10517:	ff 05 c8 05 01 00    	incl   0x105c8
   1051d:	83 3d c8 05 01 00 01 	cmpl   $0x1,0x105c8
   10524:	75 07                	jne    0x1052d
   10526:	89 e5                	mov    %esp,%ebp
   10528:	bc 00 f4 01 00       	mov    $0x1f400,%esp
   1052d:	ff 75 3c             	pushl  0x3c(%ebp)
   10530:	ff 75 38             	pushl  0x38(%ebp)
   10533:	ff 75 34             	pushl  0x34(%ebp)
   10536:	ff 75 30             	pushl  0x30(%ebp)
   10539:	6a 11                	push   $0x11
   1053b:	e9 b8 fb ff ff       	jmp    0x100f8
   10540:	6a ff                	push   $0xffffffff
   10542:	60                   	pusha  
   10543:	1e                   	push   %ds
   10544:	06                   	push   %es
   10545:	0f a0                	push   %fs
   10547:	0f a8                	push   %gs
   10549:	0f 20 de             	mov    %cr3,%esi
   1054c:	83 fe 00             	cmp    $0x0,%esi
   1054f:	74 08                	je     0x10559
   10551:	be 00 00 00 00       	mov    $0x0,%esi
   10556:	0f 22 de             	mov    %esi,%cr3
   10559:	ff 05 c8 05 01 00    	incl   0x105c8
   1055f:	83 3d c8 05 01 00 01 	cmpl   $0x1,0x105c8
   10566:	75 07                	jne    0x1056f
   10568:	89 e5                	mov    %esp,%ebp
   1056a:	bc 00 f4 01 00       	mov    $0x1f400,%esp
   1056f:	ff 75 3c             	pushl  0x3c(%ebp)
   10572:	ff 75 38             	pushl  0x38(%ebp)
   10575:	ff 75 34             	pushl  0x34(%ebp)
   10578:	ff 75 30             	pushl  0x30(%ebp)
   1057b:	6a 12                	push   $0x12
   1057d:	e9 76 fb ff ff       	jmp    0x100f8
   10582:	6a ff                	push   $0xffffffff
   10584:	60                   	pusha  
   10585:	1e                   	push   %ds
   10586:	06                   	push   %es
   10587:	0f a0                	push   %fs
   10589:	0f a8                	push   %gs
   1058b:	0f 20 de             	mov    %cr3,%esi
   1058e:	83 fe 00             	cmp    $0x0,%esi
   10591:	74 08                	je     0x1059b
   10593:	be 00 00 00 00       	mov    $0x0,%esi
   10598:	0f 22 de             	mov    %esi,%cr3
   1059b:	ff 05 c8 05 01 00    	incl   0x105c8
   105a1:	83 3d c8 05 01 00 01 	cmpl   $0x1,0x105c8
   105a8:	75 07                	jne    0x105b1
   105aa:	89 e5                	mov    %esp,%ebp
   105ac:	bc 00 f4 01 00       	mov    $0x1f400,%esp
   105b1:	ff 75 3c             	pushl  0x3c(%ebp)
   105b4:	ff 75 38             	pushl  0x38(%ebp)
   105b7:	ff 75 34             	pushl  0x34(%ebp)
   105ba:	ff 75 30             	pushl  0x30(%ebp)
   105bd:	6a 13                	push   $0x13
   105bf:	e9 34 fb ff ff       	jmp    0x100f8
   105c4:	0f 20 d0             	mov    %cr2,%eax
   105c7:	c3                   	ret    
   105c8:	00 00                	add    %al,(%eax)
   105ca:	00 00                	add    %al,(%eax)
   105cc:	b0 20                	mov    $0x20,%al
   105ce:	e6 20                	out    %al,$0x20
   105d0:	e6 a0                	out    %al,$0xa0
   105d2:	fb                   	sti    
   105d3:	e8 ec 44 00 00       	call   0x14ac4
   105d8:	83 c4 04             	add    $0x4,%esp
   105db:	fa                   	cli    
   105dc:	ff 0d c8 05 01 00    	decl   0x105c8
   105e2:	75 1d                	jne    0x10601
   105e4:	8b 1d 30 f4 01 00    	mov    0x1f430,%ebx
   105ea:	89 dc                	mov    %ebx,%esp
   105ec:	83 c3 48             	add    $0x48,%ebx
   105ef:	89 1d 24 ab 02 00    	mov    %ebx,0x2ab24
   105f5:	8b 5c 24 48          	mov    0x48(%esp),%ebx
   105f9:	83 fb 00             	cmp    $0x0,%ebx
   105fc:	74 03                	je     0x10601
   105fe:	0f 22 db             	mov    %ebx,%cr3
   10601:	0f a9                	pop    %gs
   10603:	0f a1                	pop    %fs
   10605:	07                   	pop    %es
   10606:	1f                   	pop    %ds
   10607:	61                   	popa   
   10608:	83 c4 04             	add    $0x4,%esp
   1060b:	cf                   	iret   
   1060c:	6a ff                	push   $0xffffffff
   1060e:	60                   	pusha  
   1060f:	1e                   	push   %ds
   10610:	06                   	push   %es
   10611:	0f a0                	push   %fs
   10613:	0f a8                	push   %gs
   10615:	0f 20 de             	mov    %cr3,%esi
   10618:	83 fe 00             	cmp    $0x0,%esi
   1061b:	74 08                	je     0x10625
   1061d:	be 00 00 00 00       	mov    $0x0,%esi
   10622:	0f 22 de             	mov    %esi,%cr3
   10625:	ff 05 c8 05 01 00    	incl   0x105c8
   1062b:	83 3d c8 05 01 00 01 	cmpl   $0x1,0x105c8
   10632:	75 05                	jne    0x10639
   10634:	bc 00 f4 01 00       	mov    $0x1f400,%esp
   10639:	6a 00                	push   $0x0
   1063b:	eb 8f                	jmp    0x105cc
   1063d:	6a ff                	push   $0xffffffff
   1063f:	60                   	pusha  
   10640:	1e                   	push   %ds
   10641:	06                   	push   %es
   10642:	0f a0                	push   %fs
   10644:	0f a8                	push   %gs
   10646:	0f 20 de             	mov    %cr3,%esi
   10649:	83 fe 00             	cmp    $0x0,%esi
   1064c:	74 08                	je     0x10656
   1064e:	be 00 00 00 00       	mov    $0x0,%esi
   10653:	0f 22 de             	mov    %esi,%cr3
   10656:	ff 05 c8 05 01 00    	incl   0x105c8
   1065c:	83 3d c8 05 01 00 01 	cmpl   $0x1,0x105c8
   10663:	75 05                	jne    0x1066a
   10665:	bc 00 f4 01 00       	mov    $0x1f400,%esp
   1066a:	6a 01                	push   $0x1
   1066c:	e9 5b ff ff ff       	jmp    0x105cc
   10671:	6a ff                	push   $0xffffffff
   10673:	60                   	pusha  
   10674:	1e                   	push   %ds
   10675:	06                   	push   %es
   10676:	0f a0                	push   %fs
   10678:	0f a8                	push   %gs
   1067a:	0f 20 de             	mov    %cr3,%esi
   1067d:	83 fe 00             	cmp    $0x0,%esi
   10680:	74 08                	je     0x1068a
   10682:	be 00 00 00 00       	mov    $0x0,%esi
   10687:	0f 22 de             	mov    %esi,%cr3
   1068a:	ff 05 c8 05 01 00    	incl   0x105c8
   10690:	83 3d c8 05 01 00 01 	cmpl   $0x1,0x105c8
   10697:	75 05                	jne    0x1069e
   10699:	bc 00 f4 01 00       	mov    $0x1f400,%esp
   1069e:	6a 02                	push   $0x2
   106a0:	e9 27 ff ff ff       	jmp    0x105cc
   106a5:	6a ff                	push   $0xffffffff
   106a7:	60                   	pusha  
   106a8:	1e                   	push   %ds
   106a9:	06                   	push   %es
   106aa:	0f a0                	push   %fs
   106ac:	0f a8                	push   %gs
   106ae:	0f 20 de             	mov    %cr3,%esi
   106b1:	83 fe 00             	cmp    $0x0,%esi
   106b4:	74 08                	je     0x106be
   106b6:	be 00 00 00 00       	mov    $0x0,%esi
   106bb:	0f 22 de             	mov    %esi,%cr3
   106be:	ff 05 c8 05 01 00    	incl   0x105c8
   106c4:	83 3d c8 05 01 00 01 	cmpl   $0x1,0x105c8
   106cb:	75 05                	jne    0x106d2
   106cd:	bc 00 f4 01 00       	mov    $0x1f400,%esp
   106d2:	6a 03                	push   $0x3
   106d4:	e9 f3 fe ff ff       	jmp    0x105cc
   106d9:	6a ff                	push   $0xffffffff
   106db:	60                   	pusha  
   106dc:	1e                   	push   %ds
   106dd:	06                   	push   %es
   106de:	0f a0                	push   %fs
   106e0:	0f a8                	push   %gs
   106e2:	0f 20 de             	mov    %cr3,%esi
   106e5:	83 fe 00             	cmp    $0x0,%esi
   106e8:	74 08                	je     0x106f2
   106ea:	be 00 00 00 00       	mov    $0x0,%esi
   106ef:	0f 22 de             	mov    %esi,%cr3
   106f2:	ff 05 c8 05 01 00    	incl   0x105c8
   106f8:	83 3d c8 05 01 00 01 	cmpl   $0x1,0x105c8
   106ff:	75 05                	jne    0x10706
   10701:	bc 00 f4 01 00       	mov    $0x1f400,%esp
   10706:	6a 04                	push   $0x4
   10708:	e9 bf fe ff ff       	jmp    0x105cc
   1070d:	6a ff                	push   $0xffffffff
   1070f:	60                   	pusha  
   10710:	1e                   	push   %ds
   10711:	06                   	push   %es
   10712:	0f a0                	push   %fs
   10714:	0f a8                	push   %gs
   10716:	0f 20 de             	mov    %cr3,%esi
   10719:	83 fe 00             	cmp    $0x0,%esi
   1071c:	74 08                	je     0x10726
   1071e:	be 00 00 00 00       	mov    $0x0,%esi
   10723:	0f 22 de             	mov    %esi,%cr3
   10726:	ff 05 c8 05 01 00    	incl   0x105c8
   1072c:	83 3d c8 05 01 00 01 	cmpl   $0x1,0x105c8
   10733:	75 05                	jne    0x1073a
   10735:	bc 00 f4 01 00       	mov    $0x1f400,%esp
   1073a:	6a 05                	push   $0x5
   1073c:	e9 8b fe ff ff       	jmp    0x105cc
   10741:	6a ff                	push   $0xffffffff
   10743:	60                   	pusha  
   10744:	1e                   	push   %ds
   10745:	06                   	push   %es
   10746:	0f a0                	push   %fs
   10748:	0f a8                	push   %gs
   1074a:	0f 20 de             	mov    %cr3,%esi
   1074d:	83 fe 00             	cmp    $0x0,%esi
   10750:	74 08                	je     0x1075a
   10752:	be 00 00 00 00       	mov    $0x0,%esi
   10757:	0f 22 de             	mov    %esi,%cr3
   1075a:	ff 05 c8 05 01 00    	incl   0x105c8
   10760:	83 3d c8 05 01 00 01 	cmpl   $0x1,0x105c8
   10767:	75 05                	jne    0x1076e
   10769:	bc 00 f4 01 00       	mov    $0x1f400,%esp
   1076e:	6a 06                	push   $0x6
   10770:	e9 57 fe ff ff       	jmp    0x105cc
   10775:	6a ff                	push   $0xffffffff
   10777:	60                   	pusha  
   10778:	1e                   	push   %ds
   10779:	06                   	push   %es
   1077a:	0f a0                	push   %fs
   1077c:	0f a8                	push   %gs
   1077e:	0f 20 de             	mov    %cr3,%esi
   10781:	83 fe 00             	cmp    $0x0,%esi
   10784:	74 08                	je     0x1078e
   10786:	be 00 00 00 00       	mov    $0x0,%esi
   1078b:	0f 22 de             	mov    %esi,%cr3
   1078e:	ff 05 c8 05 01 00    	incl   0x105c8
   10794:	83 3d c8 05 01 00 01 	cmpl   $0x1,0x105c8
   1079b:	75 05                	jne    0x107a2
   1079d:	bc 00 f4 01 00       	mov    $0x1f400,%esp
   107a2:	6a 07                	push   $0x7
   107a4:	e9 23 fe ff ff       	jmp    0x105cc
   107a9:	6a ff                	push   $0xffffffff
   107ab:	60                   	pusha  
   107ac:	1e                   	push   %ds
   107ad:	06                   	push   %es
   107ae:	0f a0                	push   %fs
   107b0:	0f a8                	push   %gs
   107b2:	0f 20 de             	mov    %cr3,%esi
   107b5:	83 fe 00             	cmp    $0x0,%esi
   107b8:	74 08                	je     0x107c2
   107ba:	be 00 00 00 00       	mov    $0x0,%esi
   107bf:	0f 22 de             	mov    %esi,%cr3
   107c2:	ff 05 c8 05 01 00    	incl   0x105c8
   107c8:	83 3d c8 05 01 00 01 	cmpl   $0x1,0x105c8
   107cf:	75 05                	jne    0x107d6
   107d1:	bc 00 f4 01 00       	mov    $0x1f400,%esp
   107d6:	6a 08                	push   $0x8
   107d8:	e9 ef fd ff ff       	jmp    0x105cc
   107dd:	6a ff                	push   $0xffffffff
   107df:	60                   	pusha  
   107e0:	1e                   	push   %ds
   107e1:	06                   	push   %es
   107e2:	0f a0                	push   %fs
   107e4:	0f a8                	push   %gs
   107e6:	0f 20 de             	mov    %cr3,%esi
   107e9:	83 fe 00             	cmp    $0x0,%esi
   107ec:	74 08                	je     0x107f6
   107ee:	be 00 00 00 00       	mov    $0x0,%esi
   107f3:	0f 22 de             	mov    %esi,%cr3
   107f6:	ff 05 c8 05 01 00    	incl   0x105c8
   107fc:	83 3d c8 05 01 00 01 	cmpl   $0x1,0x105c8
   10803:	75 05                	jne    0x1080a
   10805:	bc 00 f4 01 00       	mov    $0x1f400,%esp
   1080a:	6a 09                	push   $0x9
   1080c:	e9 bb fd ff ff       	jmp    0x105cc
   10811:	6a ff                	push   $0xffffffff
   10813:	60                   	pusha  
   10814:	1e                   	push   %ds
   10815:	06                   	push   %es
   10816:	0f a0                	push   %fs
   10818:	0f a8                	push   %gs
   1081a:	0f 20 de             	mov    %cr3,%esi
   1081d:	83 fe 00             	cmp    $0x0,%esi
   10820:	74 08                	je     0x1082a
   10822:	be 00 00 00 00       	mov    $0x0,%esi
   10827:	0f 22 de             	mov    %esi,%cr3
   1082a:	ff 05 c8 05 01 00    	incl   0x105c8
   10830:	83 3d c8 05 01 00 01 	cmpl   $0x1,0x105c8
   10837:	75 05                	jne    0x1083e
   10839:	bc 00 f4 01 00       	mov    $0x1f400,%esp
   1083e:	6a 0a                	push   $0xa
   10840:	e9 87 fd ff ff       	jmp    0x105cc
   10845:	6a ff                	push   $0xffffffff
   10847:	60                   	pusha  
   10848:	1e                   	push   %ds
   10849:	06                   	push   %es
   1084a:	0f a0                	push   %fs
   1084c:	0f a8                	push   %gs
   1084e:	0f 20 de             	mov    %cr3,%esi
   10851:	83 fe 00             	cmp    $0x0,%esi
   10854:	74 08                	je     0x1085e
   10856:	be 00 00 00 00       	mov    $0x0,%esi
   1085b:	0f 22 de             	mov    %esi,%cr3
   1085e:	ff 05 c8 05 01 00    	incl   0x105c8
   10864:	83 3d c8 05 01 00 01 	cmpl   $0x1,0x105c8
   1086b:	75 05                	jne    0x10872
   1086d:	bc 00 f4 01 00       	mov    $0x1f400,%esp
   10872:	6a 0b                	push   $0xb
   10874:	e9 53 fd ff ff       	jmp    0x105cc
   10879:	6a ff                	push   $0xffffffff
   1087b:	60                   	pusha  
   1087c:	1e                   	push   %ds
   1087d:	06                   	push   %es
   1087e:	0f a0                	push   %fs
   10880:	0f a8                	push   %gs
   10882:	0f 20 de             	mov    %cr3,%esi
   10885:	83 fe 00             	cmp    $0x0,%esi
   10888:	74 08                	je     0x10892
   1088a:	be 00 00 00 00       	mov    $0x0,%esi
   1088f:	0f 22 de             	mov    %esi,%cr3
   10892:	ff 05 c8 05 01 00    	incl   0x105c8
   10898:	83 3d c8 05 01 00 01 	cmpl   $0x1,0x105c8
   1089f:	75 05                	jne    0x108a6
   108a1:	bc 00 f4 01 00       	mov    $0x1f400,%esp
   108a6:	6a 0c                	push   $0xc
   108a8:	e9 1f fd ff ff       	jmp    0x105cc
   108ad:	6a ff                	push   $0xffffffff
   108af:	60                   	pusha  
   108b0:	1e                   	push   %ds
   108b1:	06                   	push   %es
   108b2:	0f a0                	push   %fs
   108b4:	0f a8                	push   %gs
   108b6:	0f 20 de             	mov    %cr3,%esi
   108b9:	83 fe 00             	cmp    $0x0,%esi
   108bc:	74 08                	je     0x108c6
   108be:	be 00 00 00 00       	mov    $0x0,%esi
   108c3:	0f 22 de             	mov    %esi,%cr3
   108c6:	ff 05 c8 05 01 00    	incl   0x105c8
   108cc:	83 3d c8 05 01 00 01 	cmpl   $0x1,0x105c8
   108d3:	75 05                	jne    0x108da
   108d5:	bc 00 f4 01 00       	mov    $0x1f400,%esp
   108da:	6a 0d                	push   $0xd
   108dc:	e9 eb fc ff ff       	jmp    0x105cc
   108e1:	6a ff                	push   $0xffffffff
   108e3:	60                   	pusha  
   108e4:	1e                   	push   %ds
   108e5:	06                   	push   %es
   108e6:	0f a0                	push   %fs
   108e8:	0f a8                	push   %gs
   108ea:	0f 20 de             	mov    %cr3,%esi
   108ed:	83 fe 00             	cmp    $0x0,%esi
   108f0:	74 08                	je     0x108fa
   108f2:	be 00 00 00 00       	mov    $0x0,%esi
   108f7:	0f 22 de             	mov    %esi,%cr3
   108fa:	ff 05 c8 05 01 00    	incl   0x105c8
   10900:	83 3d c8 05 01 00 01 	cmpl   $0x1,0x105c8
   10907:	75 05                	jne    0x1090e
   10909:	bc 00 f4 01 00       	mov    $0x1f400,%esp
   1090e:	6a 0e                	push   $0xe
   10910:	e9 b7 fc ff ff       	jmp    0x105cc
   10915:	6a ff                	push   $0xffffffff
   10917:	60                   	pusha  
   10918:	1e                   	push   %ds
   10919:	06                   	push   %es
   1091a:	0f a0                	push   %fs
   1091c:	0f a8                	push   %gs
   1091e:	0f 20 de             	mov    %cr3,%esi
   10921:	83 fe 00             	cmp    $0x0,%esi
   10924:	74 08                	je     0x1092e
   10926:	be 00 00 00 00       	mov    $0x0,%esi
   1092b:	0f 22 de             	mov    %esi,%cr3
   1092e:	ff 05 c8 05 01 00    	incl   0x105c8
   10934:	83 3d c8 05 01 00 01 	cmpl   $0x1,0x105c8
   1093b:	75 05                	jne    0x10942
   1093d:	bc 00 f4 01 00       	mov    $0x1f400,%esp
   10942:	6a 0f                	push   $0xf
   10944:	e9 83 fc ff ff       	jmp    0x105cc
   10949:	e8 92 74 00 00       	call   0x17de0
   1094e:	83 c4 24             	add    $0x24,%esp
   10951:	fa                   	cli    
   10952:	ff 0d c8 05 01 00    	decl   0x105c8
   10958:	75 1d                	jne    0x10977
   1095a:	8b 1d 30 f4 01 00    	mov    0x1f430,%ebx
   10960:	89 dc                	mov    %ebx,%esp
   10962:	83 c3 48             	add    $0x48,%ebx
   10965:	89 1d 24 ab 02 00    	mov    %ebx,0x2ab24
   1096b:	8b 5c 24 48          	mov    0x48(%esp),%ebx
   1096f:	83 fb 00             	cmp    $0x0,%ebx
   10972:	74 03                	je     0x10977
   10974:	0f 22 db             	mov    %ebx,%cr3
   10977:	89 44 24 2c          	mov    %eax,0x2c(%esp)
   1097b:	0f a9                	pop    %gs
   1097d:	0f a1                	pop    %fs
   1097f:	07                   	pop    %es
   10980:	1f                   	pop    %ds
   10981:	61                   	popa   
   10982:	83 c4 04             	add    $0x4,%esp
   10985:	cf                   	iret   
   10986:	6a ff                	push   $0xffffffff
   10988:	60                   	pusha  
   10989:	1e                   	push   %ds
   1098a:	06                   	push   %es
   1098b:	0f a0                	push   %fs
   1098d:	0f a8                	push   %gs
   1098f:	0f 20 de             	mov    %cr3,%esi
   10992:	83 fe 00             	cmp    $0x0,%esi
   10995:	74 08                	je     0x1099f
   10997:	be 00 00 00 00       	mov    $0x0,%esi
   1099c:	0f 22 de             	mov    %esi,%cr3
   1099f:	ff 05 c8 05 01 00    	incl   0x105c8
   109a5:	83 3d c8 05 01 00 01 	cmpl   $0x1,0x105c8
   109ac:	75 05                	jne    0x109b3
   109ae:	bc 00 f4 01 00       	mov    $0x1f400,%esp
   109b3:	8b 35 30 f4 01 00    	mov    0x1f430,%esi
   109b9:	fb                   	sti    
   109ba:	60                   	pusha  
   109bb:	68 80 00 00 00       	push   $0x80
   109c0:	eb 87                	jmp    0x10949
   109c2:	b0 11                	mov    $0x11,%al
   109c4:	e6 20                	out    %al,$0x20
   109c6:	e6 a0                	out    %al,$0xa0
   109c8:	b0 20                	mov    $0x20,%al
   109ca:	e6 21                	out    %al,$0x21
   109cc:	b0 28                	mov    $0x28,%al
   109ce:	e6 a1                	out    %al,$0xa1
   109d0:	b0 04                	mov    $0x4,%al
   109d2:	e6 21                	out    %al,$0x21
   109d4:	b0 02                	mov    $0x2,%al
   109d6:	e6 a1                	out    %al,$0xa1
   109d8:	b0 01                	mov    $0x1,%al
   109da:	e6 21                	out    %al,$0x21
   109dc:	e6 a1                	out    %al,$0xa1
   109de:	b0 f8                	mov    $0xf8,%al
   109e0:	e6 21                	out    %al,$0x21
   109e2:	b0 bf                	mov    $0xbf,%al
   109e4:	e6 a1                	out    %al,$0xa1
   109e6:	c3                   	ret    
   109e7:	00 55 89             	add    %dl,0xffffff89(%ebp)
   109ea:	e5 83                	in     $0x83,%eax
   109ec:	ec                   	in     (%dx),%al
   109ed:	28 c7                	sub    %al,%bh
   109ef:	45                   	inc    %ebp
   109f0:	fc                   	cld    
   109f1:	00 00                	add    %al,(%eax)
   109f3:	10 00                	adc    %al,(%eax)
   109f5:	c7 45 f8 c0 0a 02 00 	movl   $0x20ac0,0xfffffff8(%ebp)
   109fc:	eb 2b                	jmp    0x10a29
   109fe:	8b 55 fc             	mov    0xfffffffc(%ebp),%edx
   10a01:	8b 45 f8             	mov    0xfffffff8(%ebp),%eax
   10a04:	89 10                	mov    %edx,(%eax)
   10a06:	8b 55 f8             	mov    0xfffffff8(%ebp),%edx
   10a09:	83 ea 20             	sub    $0x20,%edx
   10a0c:	8b 45 f8             	mov    0xfffffff8(%ebp),%eax
   10a0f:	89 50 18             	mov    %edx,0x18(%eax)
   10a12:	8b 55 f8             	mov    0xfffffff8(%ebp),%edx
   10a15:	83 c2 20             	add    $0x20,%edx
   10a18:	8b 45 f8             	mov    0xfffffff8(%ebp),%eax
   10a1b:	89 50 1c             	mov    %edx,0x1c(%eax)
   10a1e:	81 45 fc 00 10 00 00 	addl   $0x1000,0xfffffffc(%ebp)
   10a25:	83 45 f8 20          	addl   $0x20,0xfffffff8(%ebp)
   10a29:	b8 c0 aa 02 00       	mov    $0x2aac0,%eax
   10a2e:	39 45 f8             	cmp    %eax,0xfffffff8(%ebp)
   10a31:	72 cb                	jb     0x109fe
   10a33:	c7 05 d8 0a 02 00 00 	movl   $0x0,0x20ad8
   10a3a:	00 00 00 
   10a3d:	b8 a0 aa 02 00       	mov    $0x2aaa0,%eax
   10a42:	c7 40 1c 00 00 00 00 	movl   $0x0,0x1c(%eax)
   10a49:	b8 c0 aa 02 00       	mov    $0x2aac0,%eax
   10a4e:	39 45 f8             	cmp    %eax,0xfffffff8(%ebp)
   10a51:	74 24                	je     0x10a77
   10a53:	c7 44 24 0c 1c 00 00 	movl   $0x1c,0xc(%esp)
   10a5a:	00 
   10a5b:	c7 44 24 08 ec ad 01 	movl   $0x1adec,0x8(%esp)
   10a62:	00 
   10a63:	c7 44 24 04 ec ad 01 	movl   $0x1adec,0x4(%esp)
   10a6a:	00 
   10a6b:	c7 04 24 f7 ad 01 00 	movl   $0x1adf7,(%esp)
   10a72:	e8 b1 91 00 00       	call   0x19c28
   10a77:	81 7d fc 00 00 60 00 	cmpl   $0x600000,0xfffffffc(%ebp)
   10a7e:	74 24                	je     0x10aa4
   10a80:	c7 44 24 0c 1d 00 00 	movl   $0x1d,0xc(%esp)
   10a87:	00 
   10a88:	c7 44 24 08 ec ad 01 	movl   $0x1adec,0x8(%esp)
   10a8f:	00 
   10a90:	c7 44 24 04 ec ad 01 	movl   $0x1adec,0x4(%esp)
   10a97:	00 
   10a98:	c7 04 24 12 ae 01 00 	movl   $0x1ae12,(%esp)
   10a9f:	e8 84 91 00 00       	call   0x19c28
   10aa4:	c7 05 34 f4 01 00 c0 	movl   $0x20ac0,0x1f434
   10aab:	0a 02 00 
   10aae:	b8 a0 aa 02 00       	mov    $0x2aaa0,%eax
   10ab3:	a3 c0 49 04 00       	mov    %eax,0x449c0
   10ab8:	c7 05 c0 aa 02 00 00 	movl   $0x0,0x2aac0
   10abf:	00 00 00 
   10ac2:	c7 05 8c ab 02 00 00 	movl   $0x0,0x2ab8c
   10ac9:	00 00 00 
   10acc:	c9                   	leave  
   10acd:	c3                   	ret    
   10ace:	55                   	push   %ebp
   10acf:	89 e5                	mov    %esp,%ebp
   10ad1:	83 ec 14             	sub    $0x14,%esp
   10ad4:	8b 45 08             	mov    0x8(%ebp),%eax
   10ad7:	8b 40 20             	mov    0x20(%eax),%eax
   10ada:	89 45 f4             	mov    %eax,0xfffffff4(%ebp)
   10add:	8b 45 08             	mov    0x8(%ebp),%eax
   10ae0:	8b 40 28             	mov    0x28(%eax),%eax
   10ae3:	89 45 f8             	mov    %eax,0xfffffff8(%ebp)
   10ae6:	a1 c0 aa 02 00       	mov    0x2aac0,%eax
   10aeb:	89 45 fc             	mov    %eax,0xfffffffc(%ebp)
   10aee:	81 65 0c 00 f0 ff ff 	andl   $0xfffff000,0xc(%ebp)
   10af5:	a1 c0 aa 02 00       	mov    0x2aac0,%eax
   10afa:	89 45 fc             	mov    %eax,0xfffffffc(%ebp)
   10afd:	eb 32                	jmp    0x10b31
   10aff:	8b 45 fc             	mov    0xfffffffc(%ebp),%eax
   10b02:	8b 40 04             	mov    0x4(%eax),%eax
   10b05:	3b 45 f4             	cmp    0xfffffff4(%ebp),%eax
   10b08:	75 1e                	jne    0x10b28
   10b0a:	8b 45 fc             	mov    0xfffffffc(%ebp),%eax
   10b0d:	8b 40 08             	mov    0x8(%eax),%eax
   10b10:	3b 45 f8             	cmp    0xfffffff8(%ebp),%eax
   10b13:	75 13                	jne    0x10b28
   10b15:	8b 45 fc             	mov    0xfffffffc(%ebp),%eax
   10b18:	8b 40 0c             	mov    0xc(%eax),%eax
   10b1b:	3b 45 0c             	cmp    0xc(%ebp),%eax
   10b1e:	75 08                	jne    0x10b28
   10b20:	8b 45 fc             	mov    0xfffffffc(%ebp),%eax
   10b23:	89 45 ec             	mov    %eax,0xffffffec(%ebp)
   10b26:	eb 16                	jmp    0x10b3e
   10b28:	8b 45 fc             	mov    0xfffffffc(%ebp),%eax
   10b2b:	8b 40 1c             	mov    0x1c(%eax),%eax
   10b2e:	89 45 fc             	mov    %eax,0xfffffffc(%ebp)
   10b31:	83 7d fc 00          	cmpl   $0x0,0xfffffffc(%ebp)
   10b35:	75 c8                	jne    0x10aff
   10b37:	c7 45 ec 00 00 00 00 	movl   $0x0,0xffffffec(%ebp)
   10b3e:	8b 45 ec             	mov    0xffffffec(%ebp),%eax
   10b41:	c9                   	leave  
   10b42:	c3                   	ret    
   10b43:	55                   	push   %ebp
   10b44:	89 e5                	mov    %esp,%ebp
   10b46:	83 ec 28             	sub    $0x28,%esp
   10b49:	a1 34 f4 01 00       	mov    0x1f434,%eax
   10b4e:	85 c0                	test   %eax,%eax
   10b50:	75 0c                	jne    0x10b5e
   10b52:	c7 45 ec 00 00 00 00 	movl   $0x0,0xffffffec(%ebp)
   10b59:	e9 ed 00 00 00       	jmp    0x10c4b
   10b5e:	8b 45 08             	mov    0x8(%ebp),%eax
   10b61:	8b 40 20             	mov    0x20(%eax),%eax
   10b64:	89 45 f4             	mov    %eax,0xfffffff4(%ebp)
   10b67:	8b 45 08             	mov    0x8(%ebp),%eax
   10b6a:	8b 40 28             	mov    0x28(%eax),%eax
   10b6d:	89 45 f8             	mov    %eax,0xfffffff8(%ebp)
   10b70:	a1 34 f4 01 00       	mov    0x1f434,%eax
   10b75:	89 45 fc             	mov    %eax,0xfffffffc(%ebp)
   10b78:	a1 34 f4 01 00       	mov    0x1f434,%eax
   10b7d:	8b 40 1c             	mov    0x1c(%eax),%eax
   10b80:	a3 34 f4 01 00       	mov    %eax,0x1f434
   10b85:	a1 34 f4 01 00       	mov    0x1f434,%eax
   10b8a:	85 c0                	test   %eax,%eax
   10b8c:	75 0c                	jne    0x10b9a
   10b8e:	c7 05 c0 49 04 00 00 	movl   $0x0,0x449c0
   10b95:	00 00 00 
   10b98:	eb 0c                	jmp    0x10ba6
   10b9a:	a1 34 f4 01 00       	mov    0x1f434,%eax
   10b9f:	c7 40 18 00 00 00 00 	movl   $0x0,0x18(%eax)
   10ba6:	8b 55 fc             	mov    0xfffffffc(%ebp),%edx
   10ba9:	8b 45 f4             	mov    0xfffffff4(%ebp),%eax
   10bac:	89 42 04             	mov    %eax,0x4(%edx)
   10baf:	8b 55 fc             	mov    0xfffffffc(%ebp),%edx
   10bb2:	8b 45 f8             	mov    0xfffffff8(%ebp),%eax
   10bb5:	89 42 08             	mov    %eax,0x8(%edx)
   10bb8:	8b 55 0c             	mov    0xc(%ebp),%edx
   10bbb:	81 e2 00 f0 ff ff    	and    $0xfffff000,%edx
   10bc1:	8b 45 fc             	mov    0xfffffffc(%ebp),%eax
   10bc4:	89 50 0c             	mov    %edx,0xc(%eax)
   10bc7:	8b 45 fc             	mov    0xfffffffc(%ebp),%eax
   10bca:	c7 40 10 00 00 00 00 	movl   $0x0,0x10(%eax)
   10bd1:	8b 45 fc             	mov    0xfffffffc(%ebp),%eax
   10bd4:	c7 40 14 00 00 00 00 	movl   $0x0,0x14(%eax)
   10bdb:	8b 15 8c ab 02 00    	mov    0x2ab8c,%edx
   10be1:	8b 45 fc             	mov    0xfffffffc(%ebp),%eax
   10be4:	89 50 18             	mov    %edx,0x18(%eax)
   10be7:	8b 45 fc             	mov    0xfffffffc(%ebp),%eax
   10bea:	c7 40 1c 00 00 00 00 	movl   $0x0,0x1c(%eax)
   10bf1:	a1 c0 aa 02 00       	mov    0x2aac0,%eax
   10bf6:	85 c0                	test   %eax,%eax
   10bf8:	75 37                	jne    0x10c31
   10bfa:	a1 8c ab 02 00       	mov    0x2ab8c,%eax
   10bff:	85 c0                	test   %eax,%eax
   10c01:	74 24                	je     0x10c27
   10c03:	c7 44 24 0c 60 00 00 	movl   $0x60,0xc(%esp)
   10c0a:	00 
   10c0b:	c7 44 24 08 ec ad 01 	movl   $0x1adec,0x8(%esp)
   10c12:	00 
   10c13:	c7 44 24 04 ec ad 01 	movl   $0x1adec,0x4(%esp)
   10c1a:	00 
   10c1b:	c7 04 24 2a ae 01 00 	movl   $0x1ae2a,(%esp)
   10c22:	e8 01 90 00 00       	call   0x19c28
   10c27:	8b 45 fc             	mov    0xfffffffc(%ebp),%eax
   10c2a:	a3 c0 aa 02 00       	mov    %eax,0x2aac0
   10c2f:	eb 0c                	jmp    0x10c3d
   10c31:	8b 15 8c ab 02 00    	mov    0x2ab8c,%edx
   10c37:	8b 45 fc             	mov    0xfffffffc(%ebp),%eax
   10c3a:	89 42 1c             	mov    %eax,0x1c(%edx)
   10c3d:	8b 45 fc             	mov    0xfffffffc(%ebp),%eax
   10c40:	a3 8c ab 02 00       	mov    %eax,0x2ab8c
   10c45:	8b 45 fc             	mov    0xfffffffc(%ebp),%eax
   10c48:	89 45 ec             	mov    %eax,0xffffffec(%ebp)
   10c4b:	8b 45 ec             	mov    0xffffffec(%ebp),%eax
   10c4e:	c9                   	leave  
   10c4f:	c3                   	ret    
   10c50:	55                   	push   %ebp
   10c51:	89 e5                	mov    %esp,%ebp
   10c53:	83 ec 28             	sub    $0x28,%esp
   10c56:	a1 c0 aa 02 00       	mov    0x2aac0,%eax
   10c5b:	39 45 08             	cmp    %eax,0x8(%ebp)
   10c5e:	75 36                	jne    0x10c96
   10c60:	a1 c0 aa 02 00       	mov    0x2aac0,%eax
   10c65:	8b 40 1c             	mov    0x1c(%eax),%eax
   10c68:	a3 c0 aa 02 00       	mov    %eax,0x2aac0
   10c6d:	a1 c0 aa 02 00       	mov    0x2aac0,%eax
   10c72:	85 c0                	test   %eax,%eax
   10c74:	75 0f                	jne    0x10c85
   10c76:	c7 05 8c ab 02 00 00 	movl   $0x0,0x2ab8c
   10c7d:	00 00 00 
   10c80:	e9 d9 00 00 00       	jmp    0x10d5e
   10c85:	a1 c0 aa 02 00       	mov    0x2aac0,%eax
   10c8a:	c7 40 18 00 00 00 00 	movl   $0x0,0x18(%eax)
   10c91:	e9 c8 00 00 00       	jmp    0x10d5e
   10c96:	a1 8c ab 02 00       	mov    0x2ab8c,%eax
   10c9b:	39 45 08             	cmp    %eax,0x8(%ebp)
   10c9e:	75 36                	jne    0x10cd6
   10ca0:	a1 8c ab 02 00       	mov    0x2ab8c,%eax
   10ca5:	8b 40 18             	mov    0x18(%eax),%eax
   10ca8:	a3 8c ab 02 00       	mov    %eax,0x2ab8c
   10cad:	a1 8c ab 02 00       	mov    0x2ab8c,%eax
   10cb2:	85 c0                	test   %eax,%eax
   10cb4:	75 0f                	jne    0x10cc5
   10cb6:	c7 05 c0 aa 02 00 00 	movl   $0x0,0x2aac0
   10cbd:	00 00 00 
   10cc0:	e9 99 00 00 00       	jmp    0x10d5e
   10cc5:	a1 8c ab 02 00       	mov    0x2ab8c,%eax
   10cca:	c7 40 1c 00 00 00 00 	movl   $0x0,0x1c(%eax)
   10cd1:	e9 88 00 00 00       	jmp    0x10d5e
   10cd6:	a1 c0 aa 02 00       	mov    0x2aac0,%eax
   10cdb:	8b 40 1c             	mov    0x1c(%eax),%eax
   10cde:	89 45 fc             	mov    %eax,0xfffffffc(%ebp)
   10ce1:	eb 11                	jmp    0x10cf4
   10ce3:	8b 45 fc             	mov    0xfffffffc(%ebp),%eax
   10ce6:	3b 45 08             	cmp    0x8(%ebp),%eax
   10ce9:	74 13                	je     0x10cfe
   10ceb:	8b 45 fc             	mov    0xfffffffc(%ebp),%eax
   10cee:	8b 40 1c             	mov    0x1c(%eax),%eax
   10cf1:	89 45 fc             	mov    %eax,0xfffffffc(%ebp)
   10cf4:	a1 8c ab 02 00       	mov    0x2ab8c,%eax
   10cf9:	39 45 fc             	cmp    %eax,0xfffffffc(%ebp)
   10cfc:	75 e5                	jne    0x10ce3
   10cfe:	a1 8c ab 02 00       	mov    0x2ab8c,%eax
   10d03:	39 45 fc             	cmp    %eax,0xfffffffc(%ebp)
   10d06:	75 0c                	jne    0x10d14
   10d08:	c7 45 ec ff ff ff ff 	movl   $0xffffffff,0xffffffec(%ebp)
   10d0f:	e9 bb 00 00 00       	jmp    0x10dcf
   10d14:	8b 45 fc             	mov    0xfffffffc(%ebp),%eax
   10d17:	3b 45 08             	cmp    0x8(%ebp),%eax
   10d1a:	74 24                	je     0x10d40
   10d1c:	c7 44 24 0c 95 00 00 	movl   $0x95,0xc(%esp)
   10d23:	00 
   10d24:	c7 44 24 08 ec ad 01 	movl   $0x1adec,0x8(%esp)
   10d2b:	00 
   10d2c:	c7 44 24 04 ec ad 01 	movl   $0x1adec,0x4(%esp)
   10d33:	00 
   10d34:	c7 04 24 3e ae 01 00 	movl   $0x1ae3e,(%esp)
   10d3b:	e8 e8 8e 00 00       	call   0x19c28
   10d40:	8b 45 fc             	mov    0xfffffffc(%ebp),%eax
   10d43:	8b 50 18             	mov    0x18(%eax),%edx
   10d46:	8b 45 fc             	mov    0xfffffffc(%ebp),%eax
   10d49:	8b 40 1c             	mov    0x1c(%eax),%eax
   10d4c:	89 42 1c             	mov    %eax,0x1c(%edx)
   10d4f:	8b 45 fc             	mov    0xfffffffc(%ebp),%eax
   10d52:	8b 50 1c             	mov    0x1c(%eax),%edx
   10d55:	8b 45 fc             	mov    0xfffffffc(%ebp),%eax
   10d58:	8b 40 18             	mov    0x18(%eax),%eax
   10d5b:	89 42 18             	mov    %eax,0x18(%edx)
   10d5e:	8b 15 c0 49 04 00    	mov    0x449c0,%edx
   10d64:	8b 45 08             	mov    0x8(%ebp),%eax
   10d67:	89 50 18             	mov    %edx,0x18(%eax)
   10d6a:	8b 45 08             	mov    0x8(%ebp),%eax
   10d6d:	c7 40 1c 00 00 00 00 	movl   $0x0,0x1c(%eax)
   10d74:	a1 34 f4 01 00       	mov    0x1f434,%eax
   10d79:	85 c0                	test   %eax,%eax
   10d7b:	75 37                	jne    0x10db4
   10d7d:	a1 c0 49 04 00       	mov    0x449c0,%eax
   10d82:	85 c0                	test   %eax,%eax
   10d84:	74 24                	je     0x10daa
   10d86:	c7 44 24 0c 9f 00 00 	movl   $0x9f,0xc(%esp)
   10d8d:	00 
   10d8e:	c7 44 24 08 ec ad 01 	movl   $0x1adec,0x8(%esp)
   10d95:	00 
   10d96:	c7 44 24 04 ec ad 01 	movl   $0x1adec,0x4(%esp)
   10d9d:	00 
   10d9e:	c7 04 24 4d ae 01 00 	movl   $0x1ae4d,(%esp)
   10da5:	e8 7e 8e 00 00       	call   0x19c28
   10daa:	8b 45 08             	mov    0x8(%ebp),%eax
   10dad:	a3 34 f4 01 00       	mov    %eax,0x1f434
   10db2:	eb 0c                	jmp    0x10dc0
   10db4:	8b 15 c0 49 04 00    	mov    0x449c0,%edx
   10dba:	8b 45 08             	mov    0x8(%ebp),%eax
   10dbd:	89 42 1c             	mov    %eax,0x1c(%edx)
   10dc0:	8b 45 08             	mov    0x8(%ebp),%eax
   10dc3:	a3 c0 49 04 00       	mov    %eax,0x449c0
   10dc8:	c7 45 ec 00 00 00 00 	movl   $0x0,0xffffffec(%ebp)
   10dcf:	8b 45 ec             	mov    0xffffffec(%ebp),%eax
   10dd2:	c9                   	leave  
   10dd3:	c3                   	ret    
   10dd4:	55                   	push   %ebp
   10dd5:	89 e5                	mov    %esp,%ebp
   10dd7:	83 ec 38             	sub    $0x38,%esp
   10dda:	8b 45 08             	mov    0x8(%ebp),%eax
   10ddd:	8b 40 20             	mov    0x20(%eax),%eax
   10de0:	89 45 f4             	mov    %eax,0xfffffff4(%ebp)
   10de3:	8b 45 08             	mov    0x8(%ebp),%eax
   10de6:	8b 40 28             	mov    0x28(%eax),%eax
   10de9:	89 45 f8             	mov    %eax,0xfffffff8(%ebp)
   10dec:	a1 c0 aa 02 00       	mov    0x2aac0,%eax
   10df1:	89 45 fc             	mov    %eax,0xfffffffc(%ebp)
   10df4:	e9 88 00 00 00       	jmp    0x10e81
   10df9:	8b 45 fc             	mov    0xfffffffc(%ebp),%eax
   10dfc:	8b 40 04             	mov    0x4(%eax),%eax
   10dff:	3b 45 f4             	cmp    0xfffffff4(%ebp),%eax
   10e02:	75 74                	jne    0x10e78
   10e04:	8b 45 fc             	mov    0xfffffffc(%ebp),%eax
   10e07:	8b 40 08             	mov    0x8(%eax),%eax
   10e0a:	3b 45 f8             	cmp    0xfffffff8(%ebp),%eax
   10e0d:	75 69                	jne    0x10e78
   10e0f:	8b 45 fc             	mov    0xfffffffc(%ebp),%eax
   10e12:	8b 40 14             	mov    0x14(%eax),%eax
   10e15:	83 f8 01             	cmp    $0x1,%eax
   10e18:	75 15                	jne    0x10e2f
   10e1a:	8b 45 fc             	mov    0xfffffffc(%ebp),%eax
   10e1d:	89 04 24             	mov    %eax,(%esp)
   10e20:	e8 6d 00 00 00       	call   0x10e92
   10e25:	8b 45 fc             	mov    0xfffffffc(%ebp),%eax
   10e28:	c7 40 14 00 00 00 00 	movl   $0x0,0x14(%eax)
   10e2f:	83 7d 0c 01          	cmpl   $0x1,0xc(%ebp)
   10e33:	75 43                	jne    0x10e78
   10e35:	8b 55 fc             	mov    0xfffffffc(%ebp),%edx
   10e38:	8b 02                	mov    (%edx),%eax
   10e3a:	89 45 d4             	mov    %eax,0xffffffd4(%ebp)
   10e3d:	8b 42 04             	mov    0x4(%edx),%eax
   10e40:	89 45 d8             	mov    %eax,0xffffffd8(%ebp)
   10e43:	8b 42 08             	mov    0x8(%edx),%eax
   10e46:	89 45 dc             	mov    %eax,0xffffffdc(%ebp)
   10e49:	8b 42 0c             	mov    0xc(%edx),%eax
   10e4c:	89 45 e0             	mov    %eax,0xffffffe0(%ebp)
   10e4f:	8b 42 10             	mov    0x10(%edx),%eax
   10e52:	89 45 e4             	mov    %eax,0xffffffe4(%ebp)
   10e55:	8b 42 14             	mov    0x14(%edx),%eax
   10e58:	89 45 e8             	mov    %eax,0xffffffe8(%ebp)
   10e5b:	8b 42 18             	mov    0x18(%edx),%eax
   10e5e:	89 45 ec             	mov    %eax,0xffffffec(%ebp)
   10e61:	8b 42 1c             	mov    0x1c(%edx),%eax
   10e64:	89 45 f0             	mov    %eax,0xfffffff0(%ebp)
   10e67:	8b 45 fc             	mov    0xfffffffc(%ebp),%eax
   10e6a:	89 04 24             	mov    %eax,(%esp)
   10e6d:	e8 de fd ff ff       	call   0x10c50
   10e72:	8d 45 d4             	lea    0xffffffd4(%ebp),%eax
   10e75:	89 45 fc             	mov    %eax,0xfffffffc(%ebp)
   10e78:	8b 45 fc             	mov    0xfffffffc(%ebp),%eax
   10e7b:	8b 40 1c             	mov    0x1c(%eax),%eax
   10e7e:	89 45 fc             	mov    %eax,0xfffffffc(%ebp)
   10e81:	83 7d fc 00          	cmpl   $0x0,0xfffffffc(%ebp)
   10e85:	0f 85 6e ff ff ff    	jne    0x10df9
   10e8b:	b8 00 00 00 00       	mov    $0x0,%eax
   10e90:	c9                   	leave  
   10e91:	c3                   	ret    
   10e92:	55                   	push   %ebp
   10e93:	89 e5                	mov    %esp,%ebp
   10e95:	57                   	push   %edi
   10e96:	56                   	push   %esi
   10e97:	83 ec 50             	sub    $0x50,%esp
   10e9a:	8b 45 08             	mov    0x8(%ebp),%eax
   10e9d:	8b 40 04             	mov    0x4(%eax),%eax
   10ea0:	89 45 d0             	mov    %eax,0xffffffd0(%ebp)
   10ea3:	8b 45 08             	mov    0x8(%ebp),%eax
   10ea6:	8b 40 08             	mov    0x8(%eax),%eax
   10ea9:	89 45 d4             	mov    %eax,0xffffffd4(%ebp)
   10eac:	c7 45 d8 40 f4 01 00 	movl   $0x1f440,0xffffffd8(%ebp)
   10eb3:	eb 26                	jmp    0x10edb
   10eb5:	8b 45 d8             	mov    0xffffffd8(%ebp),%eax
   10eb8:	8b 40 24             	mov    0x24(%eax),%eax
   10ebb:	85 c0                	test   %eax,%eax
   10ebd:	74 18                	je     0x10ed7
   10ebf:	8b 45 d8             	mov    0xffffffd8(%ebp),%eax
   10ec2:	8b 40 20             	mov    0x20(%eax),%eax
   10ec5:	3b 45 d0             	cmp    0xffffffd0(%ebp),%eax
   10ec8:	75 0d                	jne    0x10ed7
   10eca:	8b 45 d8             	mov    0xffffffd8(%ebp),%eax
   10ecd:	8b 40 28             	mov    0x28(%eax),%eax
   10ed0:	3b 45 d4             	cmp    0xffffffd4(%ebp),%eax
   10ed3:	75 02                	jne    0x10ed7
   10ed5:	eb 0e                	jmp    0x10ee5
   10ed7:	83 45 d8 2c          	addl   $0x2c,0xffffffd8(%ebp)
   10edb:	b8 40 ff 01 00       	mov    $0x1ff40,%eax
   10ee0:	39 45 d8             	cmp    %eax,0xffffffd8(%ebp)
   10ee3:	72 d0                	jb     0x10eb5
   10ee5:	b8 40 ff 01 00       	mov    $0x1ff40,%eax
   10eea:	39 45 d8             	cmp    %eax,0xffffffd8(%ebp)
   10eed:	72 24                	jb     0x10f13
   10eef:	c7 44 24 0c ea 00 00 	movl   $0xea,0xc(%esp)
   10ef6:	00 
   10ef7:	c7 44 24 08 ec ad 01 	movl   $0x1adec,0x8(%esp)
   10efe:	00 
   10eff:	c7 44 24 04 ec ad 01 	movl   $0x1adec,0x4(%esp)
   10f06:	00 
   10f07:	c7 04 24 60 ae 01 00 	movl   $0x1ae60,(%esp)
   10f0e:	e8 15 8d 00 00       	call   0x19c28
   10f13:	8b 45 08             	mov    0x8(%ebp),%eax
   10f16:	8b 00                	mov    (%eax),%eax
   10f18:	89 45 dc             	mov    %eax,0xffffffdc(%ebp)
   10f1b:	8b 45 08             	mov    0x8(%ebp),%eax
   10f1e:	8b 40 0c             	mov    0xc(%eax),%eax
   10f21:	89 45 e0             	mov    %eax,0xffffffe0(%ebp)
   10f24:	8b 45 08             	mov    0x8(%ebp),%eax
   10f27:	8b 40 10             	mov    0x10(%eax),%eax
   10f2a:	89 45 e4             	mov    %eax,0xffffffe4(%ebp)
   10f2d:	8b 45 d8             	mov    0xffffffd8(%ebp),%eax
   10f30:	8b 40 08             	mov    0x8(%eax),%eax
   10f33:	89 45 e8             	mov    %eax,0xffffffe8(%ebp)
   10f36:	83 7d e0 00          	cmpl   $0x0,0xffffffe0(%ebp)
   10f3a:	78 09                	js     0x10f45
   10f3c:	81 7d e0 ff 8f 01 00 	cmpl   $0x18fff,0xffffffe0(%ebp)
   10f43:	7e 18                	jle    0x10f5d
   10f45:	c7 04 24 86 ae 01 00 	movl   $0x1ae86,(%esp)
   10f4c:	e8 fb 9d 00 00       	call   0x1ad4c
   10f51:	c7 45 c4 ff ff ff ff 	movl   $0xffffffff,0xffffffc4(%ebp)
   10f58:	e9 c9 01 00 00       	jmp    0x11126
   10f5d:	8b 55 e0             	mov    0xffffffe0(%ebp),%edx
   10f60:	89 d0                	mov    %edx,%eax
   10f62:	c1 f8 1f             	sar    $0x1f,%eax
   10f65:	c1 e8 17             	shr    $0x17,%eax
   10f68:	01 d0                	add    %edx,%eax
   10f6a:	c1 f8 09             	sar    $0x9,%eax
   10f6d:	89 c2                	mov    %eax,%edx
   10f6f:	8b 45 e8             	mov    0xffffffe8(%ebp),%eax
   10f72:	8d 04 02             	lea    (%edx,%eax,1),%eax
   10f75:	83 c0 06             	add    $0x6,%eax
   10f78:	89 45 e8             	mov    %eax,0xffffffe8(%ebp)
   10f7b:	8b 55 e0             	mov    0xffffffe0(%ebp),%edx
   10f7e:	89 d0                	mov    %edx,%eax
   10f80:	c1 f8 1f             	sar    $0x1f,%eax
   10f83:	89 c1                	mov    %eax,%ecx
   10f85:	c1 e9 17             	shr    $0x17,%ecx
   10f88:	8d 04 0a             	lea    (%edx,%ecx,1),%eax
   10f8b:	25 ff 01 00 00       	and    $0x1ff,%eax
   10f90:	29 c8                	sub    %ecx,%eax
   10f92:	89 45 e0             	mov    %eax,0xffffffe0(%ebp)
   10f95:	c7 45 ec 00 00 00 00 	movl   $0x0,0xffffffec(%ebp)
   10f9c:	c7 45 f0 00 00 00 00 	movl   $0x0,0xfffffff0(%ebp)
   10fa3:	e9 6d 01 00 00       	jmp    0x11115
   10fa8:	8b 4d e8             	mov    0xffffffe8(%ebp),%ecx
   10fab:	8b 45 d8             	mov    0xffffffd8(%ebp),%eax
   10fae:	8b 50 08             	mov    0x8(%eax),%edx
   10fb1:	8b 45 d8             	mov    0xffffffd8(%ebp),%eax
   10fb4:	8b 40 0c             	mov    0xc(%eax),%eax
   10fb7:	8d 04 02             	lea    (%edx,%eax,1),%eax
   10fba:	83 c0 06             	add    $0x6,%eax
   10fbd:	39 c1                	cmp    %eax,%ecx
   10fbf:	72 35                	jb     0x10ff6
   10fc1:	8b 45 d8             	mov    0xffffffd8(%ebp),%eax
   10fc4:	8b 50 0c             	mov    0xc(%eax),%edx
   10fc7:	8b 45 d8             	mov    0xffffffd8(%ebp),%eax
   10fca:	8b 40 08             	mov    0x8(%eax),%eax
   10fcd:	83 c0 06             	add    $0x6,%eax
   10fd0:	89 54 24 0c          	mov    %edx,0xc(%esp)
   10fd4:	89 44 24 08          	mov    %eax,0x8(%esp)
   10fd8:	8b 45 e8             	mov    0xffffffe8(%ebp),%eax
   10fdb:	89 44 24 04          	mov    %eax,0x4(%esp)
   10fdf:	c7 04 24 a0 ae 01 00 	movl   $0x1aea0,(%esp)
   10fe6:	e8 61 9d 00 00       	call   0x1ad4c
   10feb:	8b 45 f0             	mov    0xfffffff0(%ebp),%eax
   10fee:	89 45 c4             	mov    %eax,0xffffffc4(%ebp)
   10ff1:	e9 30 01 00 00       	jmp    0x11126
   10ff6:	b8 00 02 00 00       	mov    $0x200,%eax
   10ffb:	2b 45 e0             	sub    0xffffffe0(%ebp),%eax
   10ffe:	89 45 f4             	mov    %eax,0xfffffff4(%ebp)
   11001:	8b 45 f4             	mov    0xfffffff4(%ebp),%eax
   11004:	3b 45 e4             	cmp    0xffffffe4(%ebp),%eax
   11007:	0f 8c 80 00 00 00    	jl     0x1108d
   1100d:	81 7d e4 00 02 00 00 	cmpl   $0x200,0xffffffe4(%ebp)
   11014:	74 26                	je     0x1103c
   11016:	8b 45 e8             	mov    0xffffffe8(%ebp),%eax
   11019:	c1 e0 09             	shl    $0x9,%eax
   1101c:	c7 44 24 0c 01 00 00 	movl   $0x1,0xc(%esp)
   11023:	00 
   11024:	89 44 24 08          	mov    %eax,0x8(%esp)
   11028:	c7 44 24 04 a0 ab 02 	movl   $0x2aba0,0x4(%esp)
   1102f:	00 
   11030:	c7 04 24 1a 03 00 00 	movl   $0x31a,(%esp)
   11037:	e8 49 29 00 00       	call   0x13985
   1103c:	8b 45 e0             	mov    0xffffffe0(%ebp),%eax
   1103f:	8d b8 a0 ab 02 00    	lea    0x2aba0(%eax),%edi
   11045:	8b 45 ec             	mov    0xffffffec(%ebp),%eax
   11048:	89 c6                	mov    %eax,%esi
   1104a:	03 75 dc             	add    0xffffffdc(%ebp),%esi
   1104d:	8b 4d e4             	mov    0xffffffe4(%ebp),%ecx
   11050:	f3 a4                	rep movsb %ds:(%esi),%es:(%edi)
   11052:	8b 45 e8             	mov    0xffffffe8(%ebp),%eax
   11055:	c1 e0 09             	shl    $0x9,%eax
   11058:	83 45 e8 01          	addl   $0x1,0xffffffe8(%ebp)
   1105c:	c7 44 24 0c 01 00 00 	movl   $0x1,0xc(%esp)
   11063:	00 
   11064:	89 44 24 08          	mov    %eax,0x8(%esp)
   11068:	c7 44 24 04 a0 ab 02 	movl   $0x2aba0,0x4(%esp)
   1106f:	00 
   11070:	c7 04 24 1a 03 00 00 	movl   $0x31a,(%esp)
   11077:	e8 8e 29 00 00       	call   0x13a0a
   1107c:	8b 45 e4             	mov    0xffffffe4(%ebp),%eax
   1107f:	01 45 f0             	add    %eax,0xfffffff0(%ebp)
   11082:	8b 45 f0             	mov    0xfffffff0(%ebp),%eax
   11085:	89 45 c4             	mov    %eax,0xffffffc4(%ebp)
   11088:	e9 99 00 00 00       	jmp    0x11126
   1108d:	81 7d f4 00 02 00 00 	cmpl   $0x200,0xfffffff4(%ebp)
   11094:	74 26                	je     0x110bc
   11096:	8b 45 e8             	mov    0xffffffe8(%ebp),%eax
   11099:	c1 e0 09             	shl    $0x9,%eax
   1109c:	c7 44 24 0c 01 00 00 	movl   $0x1,0xc(%esp)
   110a3:	00 
   110a4:	89 44 24 08          	mov    %eax,0x8(%esp)
   110a8:	c7 44 24 04 a0 ab 02 	movl   $0x2aba0,0x4(%esp)
   110af:	00 
   110b0:	c7 04 24 1a 03 00 00 	movl   $0x31a,(%esp)
   110b7:	e8 c9 28 00 00       	call   0x13985
   110bc:	8b 45 e0             	mov    0xffffffe0(%ebp),%eax
   110bf:	8d b8 a0 ab 02 00    	lea    0x2aba0(%eax),%edi
   110c5:	8b 45 ec             	mov    0xffffffec(%ebp),%eax
   110c8:	89 c6                	mov    %eax,%esi
   110ca:	03 75 dc             	add    0xffffffdc(%ebp),%esi
   110cd:	8b 4d f4             	mov    0xfffffff4(%ebp),%ecx
   110d0:	f3 a4                	rep movsb %ds:(%esi),%es:(%edi)
   110d2:	8b 45 e8             	mov    0xffffffe8(%ebp),%eax
   110d5:	c1 e0 09             	shl    $0x9,%eax
   110d8:	83 45 e8 01          	addl   $0x1,0xffffffe8(%ebp)
   110dc:	c7 44 24 0c 01 00 00 	movl   $0x1,0xc(%esp)
   110e3:	00 
   110e4:	89 44 24 08          	mov    %eax,0x8(%esp)
   110e8:	c7 44 24 04 a0 ab 02 	movl   $0x2aba0,0x4(%esp)
   110ef:	00 
   110f0:	c7 04 24 1a 03 00 00 	movl   $0x31a,(%esp)
   110f7:	e8 0e 29 00 00       	call   0x13a0a
   110fc:	c7 45 e0 00 00 00 00 	movl   $0x0,0xffffffe0(%ebp)
   11103:	8b 45 f4             	mov    0xfffffff4(%ebp),%eax
   11106:	01 45 ec             	add    %eax,0xffffffec(%ebp)
   11109:	8b 45 f4             	mov    0xfffffff4(%ebp),%eax
   1110c:	29 45 e4             	sub    %eax,0xffffffe4(%ebp)
   1110f:	8b 45 f4             	mov    0xfffffff4(%ebp),%eax
   11112:	01 45 f0             	add    %eax,0xfffffff0(%ebp)
   11115:	83 7d e4 00          	cmpl   $0x0,0xffffffe4(%ebp)
   11119:	0f 8f 89 fe ff ff    	jg     0x10fa8
   1111f:	c7 45 c4 00 00 00 00 	movl   $0x0,0xffffffc4(%ebp)
   11126:	8b 45 c4             	mov    0xffffffc4(%ebp),%eax
   11129:	83 c4 50             	add    $0x50,%esp
   1112c:	5e                   	pop    %esi
   1112d:	5f                   	pop    %edi
   1112e:	5d                   	pop    %ebp
   1112f:	c3                   	ret    
   11130:	55                   	push   %ebp
   11131:	89 e5                	mov    %esp,%ebp
   11133:	57                   	push   %edi
   11134:	56                   	push   %esi
   11135:	83 ec 50             	sub    $0x50,%esp
   11138:	8b 45 08             	mov    0x8(%ebp),%eax
   1113b:	8b 40 04             	mov    0x4(%eax),%eax
   1113e:	89 45 d0             	mov    %eax,0xffffffd0(%ebp)
   11141:	8b 45 08             	mov    0x8(%ebp),%eax
   11144:	8b 40 08             	mov    0x8(%eax),%eax
   11147:	89 45 d4             	mov    %eax,0xffffffd4(%ebp)
   1114a:	c7 45 d8 40 f4 01 00 	movl   $0x1f440,0xffffffd8(%ebp)
   11151:	eb 26                	jmp    0x11179
   11153:	8b 45 d8             	mov    0xffffffd8(%ebp),%eax
   11156:	8b 40 24             	mov    0x24(%eax),%eax
   11159:	85 c0                	test   %eax,%eax
   1115b:	74 18                	je     0x11175
   1115d:	8b 45 d8             	mov    0xffffffd8(%ebp),%eax
   11160:	8b 40 20             	mov    0x20(%eax),%eax
   11163:	3b 45 d0             	cmp    0xffffffd0(%ebp),%eax
   11166:	75 0d                	jne    0x11175
   11168:	8b 45 d8             	mov    0xffffffd8(%ebp),%eax
   1116b:	8b 40 28             	mov    0x28(%eax),%eax
   1116e:	3b 45 d4             	cmp    0xffffffd4(%ebp),%eax
   11171:	75 02                	jne    0x11175
   11173:	eb 0e                	jmp    0x11183
   11175:	83 45 d8 2c          	addl   $0x2c,0xffffffd8(%ebp)
   11179:	b8 40 ff 01 00       	mov    $0x1ff40,%eax
   1117e:	39 45 d8             	cmp    %eax,0xffffffd8(%ebp)
   11181:	72 d0                	jb     0x11153
   11183:	b8 40 ff 01 00       	mov    $0x1ff40,%eax
   11188:	39 45 d8             	cmp    %eax,0xffffffd8(%ebp)
   1118b:	72 24                	jb     0x111b1
   1118d:	c7 44 24 0c 36 01 00 	movl   $0x136,0xc(%esp)
   11194:	00 
   11195:	c7 44 24 08 ec ad 01 	movl   $0x1adec,0x8(%esp)
   1119c:	00 
   1119d:	c7 44 24 04 ec ad 01 	movl   $0x1adec,0x4(%esp)
   111a4:	00 
   111a5:	c7 04 24 60 ae 01 00 	movl   $0x1ae60,(%esp)
   111ac:	e8 77 8a 00 00       	call   0x19c28
   111b1:	8b 45 08             	mov    0x8(%ebp),%eax
   111b4:	8b 00                	mov    (%eax),%eax
   111b6:	89 45 dc             	mov    %eax,0xffffffdc(%ebp)
   111b9:	8b 45 08             	mov    0x8(%ebp),%eax
   111bc:	8b 40 0c             	mov    0xc(%eax),%eax
   111bf:	89 45 e0             	mov    %eax,0xffffffe0(%ebp)
   111c2:	8b 45 d8             	mov    0xffffffd8(%ebp),%eax
   111c5:	8b 50 04             	mov    0x4(%eax),%edx
   111c8:	8b 45 e0             	mov    0xffffffe0(%ebp),%eax
   111cb:	89 d1                	mov    %edx,%ecx
   111cd:	29 c1                	sub    %eax,%ecx
   111cf:	89 c8                	mov    %ecx,%eax
   111d1:	89 45 c0             	mov    %eax,0xffffffc0(%ebp)
   111d4:	81 7d c0 00 10 00 00 	cmpl   $0x1000,0xffffffc0(%ebp)
   111db:	76 07                	jbe    0x111e4
   111dd:	c7 45 c0 00 10 00 00 	movl   $0x1000,0xffffffc0(%ebp)
   111e4:	8b 45 c0             	mov    0xffffffc0(%ebp),%eax
   111e7:	89 45 e4             	mov    %eax,0xffffffe4(%ebp)
   111ea:	8b 45 d8             	mov    0xffffffd8(%ebp),%eax
   111ed:	8b 40 08             	mov    0x8(%eax),%eax
   111f0:	89 45 e8             	mov    %eax,0xffffffe8(%ebp)
   111f3:	83 7d e0 00          	cmpl   $0x0,0xffffffe0(%ebp)
   111f7:	78 09                	js     0x11202
   111f9:	81 7d e0 ff 8f 01 00 	cmpl   $0x18fff,0xffffffe0(%ebp)
   11200:	7e 24                	jle    0x11226
   11202:	c7 44 24 0c 3d 01 00 	movl   $0x13d,0xc(%esp)
   11209:	00 
   1120a:	c7 44 24 08 ec ad 01 	movl   $0x1adec,0x8(%esp)
   11211:	00 
   11212:	c7 44 24 04 ec ad 01 	movl   $0x1adec,0x4(%esp)
   11219:	00 
   1121a:	c7 04 24 d8 ae 01 00 	movl   $0x1aed8,(%esp)
   11221:	e8 02 8a 00 00       	call   0x19c28
   11226:	8b 55 e0             	mov    0xffffffe0(%ebp),%edx
   11229:	89 d0                	mov    %edx,%eax
   1122b:	c1 f8 1f             	sar    $0x1f,%eax
   1122e:	c1 e8 17             	shr    $0x17,%eax
   11231:	01 d0                	add    %edx,%eax
   11233:	c1 f8 09             	sar    $0x9,%eax
   11236:	89 c2                	mov    %eax,%edx
   11238:	8b 45 e8             	mov    0xffffffe8(%ebp),%eax
   1123b:	8d 04 02             	lea    (%edx,%eax,1),%eax
   1123e:	83 c0 06             	add    $0x6,%eax
   11241:	89 45 e8             	mov    %eax,0xffffffe8(%ebp)
   11244:	8b 55 e0             	mov    0xffffffe0(%ebp),%edx
   11247:	89 d0                	mov    %edx,%eax
   11249:	c1 f8 1f             	sar    $0x1f,%eax
   1124c:	89 c1                	mov    %eax,%ecx
   1124e:	c1 e9 17             	shr    $0x17,%ecx
   11251:	8d 04 0a             	lea    (%edx,%ecx,1),%eax
   11254:	25 ff 01 00 00       	and    $0x1ff,%eax
   11259:	29 c8                	sub    %ecx,%eax
   1125b:	89 45 e0             	mov    %eax,0xffffffe0(%ebp)
   1125e:	c7 45 ec 00 00 00 00 	movl   $0x0,0xffffffec(%ebp)
   11265:	c7 45 f0 00 00 00 00 	movl   $0x0,0xfffffff0(%ebp)
   1126c:	c7 45 f4 00 00 00 00 	movl   $0x0,0xfffffff4(%ebp)
   11273:	e9 e4 00 00 00       	jmp    0x1135c
   11278:	8b 4d e8             	mov    0xffffffe8(%ebp),%ecx
   1127b:	8b 45 d8             	mov    0xffffffd8(%ebp),%eax
   1127e:	8b 50 08             	mov    0x8(%eax),%edx
   11281:	8b 45 d8             	mov    0xffffffd8(%ebp),%eax
   11284:	8b 40 0c             	mov    0xc(%eax),%eax
   11287:	8d 04 02             	lea    (%edx,%eax,1),%eax
   1128a:	83 c0 06             	add    $0x6,%eax
   1128d:	39 c1                	cmp    %eax,%ecx
   1128f:	72 32                	jb     0x112c3
   11291:	8b 45 d8             	mov    0xffffffd8(%ebp),%eax
   11294:	8b 50 0c             	mov    0xc(%eax),%edx
   11297:	8b 45 d8             	mov    0xffffffd8(%ebp),%eax
   1129a:	8b 40 08             	mov    0x8(%eax),%eax
   1129d:	89 54 24 0c          	mov    %edx,0xc(%esp)
   112a1:	89 44 24 08          	mov    %eax,0x8(%esp)
   112a5:	8b 45 e8             	mov    0xffffffe8(%ebp),%eax
   112a8:	89 44 24 04          	mov    %eax,0x4(%esp)
   112ac:	c7 04 24 00 af 01 00 	movl   $0x1af00,(%esp)
   112b3:	e8 94 9a 00 00       	call   0x1ad4c
   112b8:	8b 4d f4             	mov    0xfffffff4(%ebp),%ecx
   112bb:	89 4d c4             	mov    %ecx,0xffffffc4(%ebp)
   112be:	e9 b4 00 00 00       	jmp    0x11377
   112c3:	8b 45 e8             	mov    0xffffffe8(%ebp),%eax
   112c6:	c1 e0 09             	shl    $0x9,%eax
   112c9:	83 45 e8 01          	addl   $0x1,0xffffffe8(%ebp)
   112cd:	c7 44 24 0c 01 00 00 	movl   $0x1,0xc(%esp)
   112d4:	00 
   112d5:	89 44 24 08          	mov    %eax,0x8(%esp)
   112d9:	c7 44 24 04 a0 ab 02 	movl   $0x2aba0,0x4(%esp)
   112e0:	00 
   112e1:	c7 04 24 1a 03 00 00 	movl   $0x31a,(%esp)
   112e8:	e8 98 26 00 00       	call   0x13985
   112ed:	b8 00 02 00 00       	mov    $0x200,%eax
   112f2:	2b 45 e0             	sub    0xffffffe0(%ebp),%eax
   112f5:	89 45 f0             	mov    %eax,0xfffffff0(%ebp)
   112f8:	8b 45 f0             	mov    0xfffffff0(%ebp),%eax
   112fb:	3b 45 e4             	cmp    0xffffffe4(%ebp),%eax
   112fe:	7c 2d                	jl     0x1132d
   11300:	8b 45 ec             	mov    0xffffffec(%ebp),%eax
   11303:	89 c7                	mov    %eax,%edi
   11305:	03 7d dc             	add    0xffffffdc(%ebp),%edi
   11308:	8b 45 e0             	mov    0xffffffe0(%ebp),%eax
   1130b:	8d b0 a0 ab 02 00    	lea    0x2aba0(%eax),%esi
   11311:	8b 4d e4             	mov    0xffffffe4(%ebp),%ecx
   11314:	f3 a4                	rep movsb %ds:(%esi),%es:(%edi)
   11316:	8b 45 e4             	mov    0xffffffe4(%ebp),%eax
   11319:	01 45 f4             	add    %eax,0xfffffff4(%ebp)
   1131c:	8b 55 08             	mov    0x8(%ebp),%edx
   1131f:	8b 45 f4             	mov    0xfffffff4(%ebp),%eax
   11322:	89 42 10             	mov    %eax,0x10(%edx)
   11325:	8b 45 f4             	mov    0xfffffff4(%ebp),%eax
   11328:	89 45 c4             	mov    %eax,0xffffffc4(%ebp)
   1132b:	eb 4a                	jmp    0x11377
   1132d:	8b 45 ec             	mov    0xffffffec(%ebp),%eax
   11330:	89 c7                	mov    %eax,%edi
   11332:	03 7d dc             	add    0xffffffdc(%ebp),%edi
   11335:	8b 45 e0             	mov    0xffffffe0(%ebp),%eax
   11338:	8d b0 a0 ab 02 00    	lea    0x2aba0(%eax),%esi
   1133e:	8b 4d f0             	mov    0xfffffff0(%ebp),%ecx
   11341:	f3 a4                	rep movsb %ds:(%esi),%es:(%edi)
   11343:	c7 45 e0 00 00 00 00 	movl   $0x0,0xffffffe0(%ebp)
   1134a:	8b 45 f0             	mov    0xfffffff0(%ebp),%eax
   1134d:	01 45 ec             	add    %eax,0xffffffec(%ebp)
   11350:	8b 45 f0             	mov    0xfffffff0(%ebp),%eax
   11353:	29 45 e4             	sub    %eax,0xffffffe4(%ebp)
   11356:	8b 45 f0             	mov    0xfffffff0(%ebp),%eax
   11359:	01 45 f4             	add    %eax,0xfffffff4(%ebp)
   1135c:	83 7d e4 00          	cmpl   $0x0,0xffffffe4(%ebp)
   11360:	0f 8f 12 ff ff ff    	jg     0x11278
   11366:	8b 45 08             	mov    0x8(%ebp),%eax
   11369:	c7 40 14 00 00 00 00 	movl   $0x0,0x14(%eax)
   11370:	c7 45 c4 00 00 00 00 	movl   $0x0,0xffffffc4(%ebp)
   11377:	8b 45 c4             	mov    0xffffffc4(%ebp),%eax
   1137a:	83 c4 50             	add    $0x50,%esp
   1137d:	5e                   	pop    %esi
   1137e:	5f                   	pop    %edi
   1137f:	5d                   	pop    %ebp
   11380:	c3                   	ret    
   11381:	00 00                	add    %al,(%eax)
   11383:	00 55 89             	add    %dl,0xffffff89(%ebp)
   11386:	e5 56                	in     $0x56,%eax
   11388:	53                   	push   %ebx
   11389:	83 ec 50             	sub    $0x50,%esp
   1138c:	e8 c0 07 00 00       	call   0x11b51
   11391:	eb 00                	jmp    0x11393
   11393:	8d 45 c8             	lea    0xffffffc8(%ebp),%eax
   11396:	89 44 24 08          	mov    %eax,0x8(%esp)
   1139a:	c7 44 24 04 ff ff ff 	movl   $0xffffffff,0x4(%esp)
   113a1:	ff 
   113a2:	c7 04 24 01 00 00 00 	movl   $0x1,(%esp)
   113a9:	e8 42 88 00 00       	call   0x19bf0
   113ae:	85 c0                	test   %eax,%eax
   113b0:	74 24                	je     0x113d6
   113b2:	c7 44 24 0c 1f 00 00 	movl   $0x1f,0xc(%esp)
   113b9:	00 
   113ba:	c7 44 24 08 38 af 01 	movl   $0x1af38,0x8(%esp)
   113c1:	00 
   113c2:	c7 44 24 04 38 af 01 	movl   $0x1af38,0x4(%esp)
   113c9:	00 
   113ca:	c7 04 24 3d af 01 00 	movl   $0x1af3d,(%esp)
   113d1:	e8 52 88 00 00       	call   0x19c28
   113d6:	8b 45 d0             	mov    0xffffffd0(%ebp),%eax
   113d9:	83 f8 fd             	cmp    $0xfffffffd,%eax
   113dc:	74 24                	je     0x11402
   113de:	c7 44 24 0c 20 00 00 	movl   $0x20,0xc(%esp)
   113e5:	00 
   113e6:	c7 44 24 08 38 af 01 	movl   $0x1af38,0x8(%esp)
   113ed:	00 
   113ee:	c7 44 24 04 38 af 01 	movl   $0x1af38,0x4(%esp)
   113f5:	00 
   113f6:	c7 04 24 51 af 01 00 	movl   $0x1af51,(%esp)
   113fd:	e8 26 88 00 00       	call   0x19c28
   11402:	8b 45 c8             	mov    0xffffffc8(%ebp),%eax
   11405:	89 45 f4             	mov    %eax,0xfffffff4(%ebp)
   11408:	8d 45 c8             	lea    0xffffffc8(%ebp),%eax
   1140b:	83 c0 0c             	add    $0xc,%eax
   1140e:	89 45 f0             	mov    %eax,0xfffffff0(%ebp)
   11411:	8b 45 f0             	mov    0xfffffff0(%ebp),%eax
   11414:	8b 00                	mov    (%eax),%eax
   11416:	89 45 c4             	mov    %eax,0xffffffc4(%ebp)
   11419:	83 7d c4 08          	cmpl   $0x8,0xffffffc4(%ebp)
   1141d:	0f 87 13 02 00 00    	ja     0x11636
   11423:	8b 55 c4             	mov    0xffffffc4(%ebp),%edx
   11426:	8b 04 95 88 af 01 00 	mov    0x1af88(,%edx,4),%eax
   1142d:	ff e0                	jmp    *%eax
   1142f:	8b 45 c8             	mov    0xffffffc8(%ebp),%eax
   11432:	89 c2                	mov    %eax,%edx
   11434:	89 d0                	mov    %edx,%eax
   11436:	c1 e0 03             	shl    $0x3,%eax
   11439:	01 d0                	add    %edx,%eax
   1143b:	c1 e0 05             	shl    $0x5,%eax
   1143e:	8d 90 e0 79 04 00    	lea    0x479e0(%eax),%edx
   11444:	8b 45 f0             	mov    0xfffffff0(%ebp),%eax
   11447:	8b 48 08             	mov    0x8(%eax),%ecx
   1144a:	8b 45 f0             	mov    0xfffffff0(%ebp),%eax
   1144d:	8b 40 04             	mov    0x4(%eax),%eax
   11450:	89 54 24 08          	mov    %edx,0x8(%esp)
   11454:	89 4c 24 04          	mov    %ecx,0x4(%esp)
   11458:	89 04 24             	mov    %eax,(%esp)
   1145b:	e8 72 0e 00 00       	call   0x122d2
   11460:	89 c2                	mov    %eax,%edx
   11462:	8b 45 f0             	mov    0xfffffff0(%ebp),%eax
   11465:	89 50 0c             	mov    %edx,0xc(%eax)
   11468:	e9 c9 01 00 00       	jmp    0x11636
   1146d:	8b 45 c8             	mov    0xffffffc8(%ebp),%eax
   11470:	89 c2                	mov    %eax,%edx
   11472:	89 d0                	mov    %edx,%eax
   11474:	c1 e0 03             	shl    $0x3,%eax
   11477:	01 d0                	add    %edx,%eax
   11479:	c1 e0 05             	shl    $0x5,%eax
   1147c:	8d 90 e0 79 04 00    	lea    0x479e0(%eax),%edx
   11482:	8b 45 f0             	mov    0xfffffff0(%ebp),%eax
   11485:	8b 48 10             	mov    0x10(%eax),%ecx
   11488:	8b 45 f0             	mov    0xfffffff0(%ebp),%eax
   1148b:	8b 58 18             	mov    0x18(%eax),%ebx
   1148e:	8b 45 f0             	mov    0xfffffff0(%ebp),%eax
   11491:	8b 70 14             	mov    0x14(%eax),%esi
   11494:	8b 45 f0             	mov    0xfffffff0(%ebp),%eax
   11497:	8b 40 0c             	mov    0xc(%eax),%eax
   1149a:	89 54 24 10          	mov    %edx,0x10(%esp)
   1149e:	89 4c 24 0c          	mov    %ecx,0xc(%esp)
   114a2:	89 5c 24 08          	mov    %ebx,0x8(%esp)
   114a6:	89 74 24 04          	mov    %esi,0x4(%esp)
   114aa:	89 04 24             	mov    %eax,(%esp)
   114ad:	e8 ed 11 00 00       	call   0x1269f
   114b2:	89 c2                	mov    %eax,%edx
   114b4:	8b 45 f0             	mov    0xfffffff0(%ebp),%eax
   114b7:	89 50 10             	mov    %edx,0x10(%eax)
   114ba:	e9 77 01 00 00       	jmp    0x11636
   114bf:	8b 45 c8             	mov    0xffffffc8(%ebp),%eax
   114c2:	89 c2                	mov    %eax,%edx
   114c4:	89 d0                	mov    %edx,%eax
   114c6:	c1 e0 03             	shl    $0x3,%eax
   114c9:	01 d0                	add    %edx,%eax
   114cb:	c1 e0 05             	shl    $0x5,%eax
   114ce:	8d 90 e0 79 04 00    	lea    0x479e0(%eax),%edx
   114d4:	8b 45 f0             	mov    0xfffffff0(%ebp),%eax
   114d7:	8b 48 10             	mov    0x10(%eax),%ecx
   114da:	8b 45 f0             	mov    0xfffffff0(%ebp),%eax
   114dd:	8b 58 18             	mov    0x18(%eax),%ebx
   114e0:	8b 45 f0             	mov    0xfffffff0(%ebp),%eax
   114e3:	8b 70 14             	mov    0x14(%eax),%esi
   114e6:	8b 45 f0             	mov    0xfffffff0(%ebp),%eax
   114e9:	8b 40 0c             	mov    0xc(%eax),%eax
   114ec:	89 54 24 10          	mov    %edx,0x10(%esp)
   114f0:	89 4c 24 0c          	mov    %ecx,0xc(%esp)
   114f4:	89 5c 24 08          	mov    %ebx,0x8(%esp)
   114f8:	89 74 24 04          	mov    %esi,0x4(%esp)
   114fc:	89 04 24             	mov    %eax,(%esp)
   114ff:	e8 31 14 00 00       	call   0x12935
   11504:	89 c2                	mov    %eax,%edx
   11506:	8b 45 f0             	mov    0xfffffff0(%ebp),%eax
   11509:	89 50 10             	mov    %edx,0x10(%eax)
   1150c:	e9 25 01 00 00       	jmp    0x11636
   11511:	8b 45 c8             	mov    0xffffffc8(%ebp),%eax
   11514:	89 c2                	mov    %eax,%edx
   11516:	89 d0                	mov    %edx,%eax
   11518:	c1 e0 03             	shl    $0x3,%eax
   1151b:	01 d0                	add    %edx,%eax
   1151d:	c1 e0 05             	shl    $0x5,%eax
   11520:	8d 90 e0 79 04 00    	lea    0x479e0(%eax),%edx
   11526:	8b 45 f0             	mov    0xfffffff0(%ebp),%eax
   11529:	8b 40 0c             	mov    0xc(%eax),%eax
   1152c:	89 54 24 04          	mov    %edx,0x4(%esp)
   11530:	89 04 24             	mov    %eax,(%esp)
   11533:	e8 a3 16 00 00       	call   0x12bdb
   11538:	89 c2                	mov    %eax,%edx
   1153a:	8b 45 f0             	mov    0xfffffff0(%ebp),%eax
   1153d:	89 10                	mov    %edx,(%eax)
   1153f:	e9 f2 00 00 00       	jmp    0x11636
   11544:	8b 45 f0             	mov    0xfffffff0(%ebp),%eax
   11547:	8b 58 08             	mov    0x8(%eax),%ebx
   1154a:	8b 45 f0             	mov    0xfffffff0(%ebp),%eax
   1154d:	8b 48 04             	mov    0x4(%eax),%ecx
   11550:	8b 45 c8             	mov    0xffffffc8(%ebp),%eax
   11553:	89 c2                	mov    %eax,%edx
   11555:	89 d0                	mov    %edx,%eax
   11557:	c1 e0 03             	shl    $0x3,%eax
   1155a:	01 d0                	add    %edx,%eax
   1155c:	c1 e0 05             	shl    $0x5,%eax
   1155f:	05 e0 79 04 00       	add    $0x479e0,%eax
   11564:	8b 40 48             	mov    0x48(%eax),%eax
   11567:	89 4c 24 04          	mov    %ecx,0x4(%esp)
   1156b:	89 04 24             	mov    %eax,(%esp)
   1156e:	e8 63 97 00 00       	call   0x1acd6
   11573:	89 5c 24 04          	mov    %ebx,0x4(%esp)
   11577:	89 04 24             	mov    %eax,(%esp)
   1157a:	e8 bd 17 00 00       	call   0x12d3c
   1157f:	89 c2                	mov    %eax,%edx
   11581:	8b 45 f0             	mov    0xfffffff0(%ebp),%eax
   11584:	89 10                	mov    %edx,(%eax)
   11586:	e9 ab 00 00 00       	jmp    0x11636
   1158b:	8b 45 f0             	mov    0xfffffff0(%ebp),%eax
   1158e:	8b 40 08             	mov    0x8(%eax),%eax
   11591:	89 45 f4             	mov    %eax,0xfffffff4(%ebp)
   11594:	83 7d f4 00          	cmpl   $0x0,0xfffffff4(%ebp)
   11598:	78 0d                	js     0x115a7
   1159a:	81 7d f4 0a 01 00 00 	cmpl   $0x10a,0xfffffff4(%ebp)
   115a1:	0f 8e 8f 00 00 00    	jle    0x11636
   115a7:	c7 44 24 0c 36 00 00 	movl   $0x36,0xc(%esp)
   115ae:	00 
   115af:	c7 44 24 08 38 af 01 	movl   $0x1af38,0x8(%esp)
   115b6:	00 
   115b7:	c7 44 24 04 38 af 01 	movl   $0x1af38,0x4(%esp)
   115be:	00 
   115bf:	c7 04 24 6a af 01 00 	movl   $0x1af6a,(%esp)
   115c6:	e8 5d 86 00 00       	call   0x19c28
   115cb:	eb 69                	jmp    0x11636
   115cd:	8b 45 f0             	mov    0xfffffff0(%ebp),%eax
   115d0:	8b 40 08             	mov    0x8(%eax),%eax
   115d3:	89 04 24             	mov    %eax,(%esp)
   115d6:	e8 10 1c 00 00       	call   0x131eb
   115db:	89 c2                	mov    %eax,%edx
   115dd:	8b 45 f0             	mov    0xfffffff0(%ebp),%eax
   115e0:	89 10                	mov    %edx,(%eax)
   115e2:	eb 52                	jmp    0x11636
   115e4:	8b 45 f0             	mov    0xfffffff0(%ebp),%eax
   115e7:	8b 40 08             	mov    0x8(%eax),%eax
   115ea:	89 04 24             	mov    %eax,(%esp)
   115ed:	e8 3a 1d 00 00       	call   0x1332c
   115f2:	eb 42                	jmp    0x11636
   115f4:	8b 45 c8             	mov    0xffffffc8(%ebp),%eax
   115f7:	89 c2                	mov    %eax,%edx
   115f9:	89 d0                	mov    %edx,%eax
   115fb:	c1 e0 03             	shl    $0x3,%eax
   115fe:	01 d0                	add    %edx,%eax
   11600:	c1 e0 05             	shl    $0x5,%eax
   11603:	8d 88 e0 79 04 00    	lea    0x479e0(%eax),%ecx
   11609:	8b 45 f0             	mov    0xfffffff0(%ebp),%eax
   1160c:	8b 58 08             	mov    0x8(%eax),%ebx
   1160f:	8b 45 f0             	mov    0xfffffff0(%ebp),%eax
   11612:	8b 50 18             	mov    0x18(%eax),%edx
   11615:	8b 45 f0             	mov    0xfffffff0(%ebp),%eax
   11618:	8b 40 0c             	mov    0xc(%eax),%eax
   1161b:	89 4c 24 0c          	mov    %ecx,0xc(%esp)
   1161f:	89 5c 24 08          	mov    %ebx,0x8(%esp)
   11623:	89 54 24 04          	mov    %edx,0x4(%esp)
   11627:	89 04 24             	mov    %eax,(%esp)
   1162a:	e8 32 1b 00 00       	call   0x13161
   1162f:	89 c2                	mov    %eax,%edx
   11631:	8b 45 f0             	mov    0xfffffff0(%ebp),%eax
   11634:	89 10                	mov    %edx,(%eax)
   11636:	a1 10 f4 01 00       	mov    0x1f410,%eax
   1163b:	83 f8 01             	cmp    $0x1,%eax
   1163e:	75 0f                	jne    0x1164f
   11640:	c7 05 10 f4 01 00 00 	movl   $0x0,0x1f410
   11647:	00 00 00 
   1164a:	e9 44 fd ff ff       	jmp    0x11393
   1164f:	8d 45 c8             	lea    0xffffffc8(%ebp),%eax
   11652:	89 44 24 08          	mov    %eax,0x8(%esp)
   11656:	8b 45 f4             	mov    0xfffffff4(%ebp),%eax
   11659:	89 44 24 04          	mov    %eax,0x4(%esp)
   1165d:	c7 04 24 00 00 00 00 	movl   $0x0,(%esp)
   11664:	e8 87 85 00 00       	call   0x19bf0
   11669:	e9 25 fd ff ff       	jmp    0x11393
   1166e:	55                   	push   %ebp
   1166f:	89 e5                	mov    %esp,%ebp
   11671:	57                   	push   %edi
   11672:	56                   	push   %esi
   11673:	53                   	push   %ebx
   11674:	81 ec 8c 00 00 00    	sub    $0x8c,%esp
   1167a:	c7 45 84 01 01 10 10 	movl   $0x10100101,0xffffff84(%ebp)
   11681:	c7 45 88 02 00 00 00 	movl   $0x2,0xffffff88(%ebp)
   11688:	c7 45 8c 17 00 00 00 	movl   $0x17,0xffffff8c(%ebp)
   1168f:	c7 45 90 01 00 00 00 	movl   $0x1,0xffffff90(%ebp)
   11696:	c7 45 94 03 00 00 00 	movl   $0x3,0xffffff94(%ebp)
   1169d:	c7 45 98 a0 0f 00 00 	movl   $0xfa0,0xffffff98(%ebp)
   116a4:	c7 45 9c 01 00 00 00 	movl   $0x1,0xffffff9c(%ebp)
   116ab:	c7 45 a0 04 00 00 00 	movl   $0x4,0xffffffa0(%ebp)
   116b2:	c7 45 a4 20 00 00 00 	movl   $0x20,0xffffffa4(%ebp)
   116b9:	c7 45 a8 10 00 00 00 	movl   $0x10,0xffffffa8(%ebp)
   116c0:	c7 45 ac 02 00 00 00 	movl   $0x2,0xffffffac(%ebp)
   116c7:	c7 45 b0 06 00 00 00 	movl   $0x6,0xffffffb0(%ebp)
   116ce:	c7 45 b4 10 00 00 00 	movl   $0x10,0xffffffb4(%ebp)
   116d5:	c7 45 b8 00 00 00 00 	movl   $0x0,0xffffffb8(%ebp)
   116dc:	c7 45 bc 04 00 00 00 	movl   $0x4,0xffffffbc(%ebp)
   116e3:	c7 45 c0 20 00 00 00 	movl   $0x20,0xffffffc0(%ebp)
   116ea:	c7 45 c4 01 00 00 00 	movl   $0x1,0xffffffc4(%ebp)
   116f1:	c7 45 c8 01 00 00 00 	movl   $0x1,0xffffffc8(%ebp)
   116f8:	c7 45 cc 04 00 00 00 	movl   $0x4,0xffffffcc(%ebp)
   116ff:	c7 45 d0 08 00 00 00 	movl   $0x8,0xffffffd0(%ebp)
   11706:	c7 44 24 08 01 00 00 	movl   $0x1,0x8(%esp)
   1170d:	00 
   1170e:	c7 44 24 04 01 00 00 	movl   $0x1,0x4(%esp)
   11715:	00 
   11716:	c7 04 24 ac af 01 00 	movl   $0x1afac,(%esp)
   1171d:	e8 2a 96 00 00       	call   0x1ad4c
   11722:	c7 44 24 08 01 00 00 	movl   $0x1,0x8(%esp)
   11729:	00 
   1172a:	c7 44 24 04 02 00 00 	movl   $0x2,0x4(%esp)
   11731:	00 
   11732:	c7 04 24 cc af 01 00 	movl   $0x1afcc,(%esp)
   11739:	e8 0e 96 00 00       	call   0x1ad4c
   1173e:	c7 44 24 08 01 00 00 	movl   $0x1,0x8(%esp)
   11745:	00 
   11746:	c7 44 24 04 03 00 00 	movl   $0x3,0x4(%esp)
   1174d:	00 
   1174e:	c7 04 24 ec af 01 00 	movl   $0x1afec,(%esp)
   11755:	e8 f2 95 00 00       	call   0x1ad4c
   1175a:	c7 44 24 08 02 00 00 	movl   $0x2,0x8(%esp)
   11761:	00 
   11762:	c7 44 24 04 04 00 00 	movl   $0x4,0x4(%esp)
   11769:	00 
   1176a:	c7 04 24 0c b0 01 00 	movl   $0x1b00c,(%esp)
   11771:	e8 d6 95 00 00       	call   0x1ad4c
   11776:	c7 44 24 08 a0 0f 00 	movl   $0xfa0,0x8(%esp)
   1177d:	00 
   1177e:	c7 44 24 04 06 00 00 	movl   $0x6,0x4(%esp)
   11785:	00 
   11786:	c7 04 24 2c b0 01 00 	movl   $0x1b02c,(%esp)
   1178d:	e8 ba 95 00 00       	call   0x1ad4c
   11792:	c7 44 24 08 00 02 00 	movl   $0x200,0x8(%esp)
   11799:	00 
   1179a:	c7 44 24 04 11 00 00 	movl   $0x11,0x4(%esp)
   117a1:	00 
   117a2:	c7 04 24 a0 ab 02 00 	movl   $0x2aba0,(%esp)
   117a9:	e8 5e 92 00 00       	call   0x1aa0c
   117ae:	8d 75 84             	lea    0xffffff84(%ebp),%esi
   117b1:	bf a0 ab 02 00       	mov    $0x2aba0,%edi
   117b6:	b9 48 00 00 00       	mov    $0x48,%ecx
   117bb:	f3 a4                	rep movsb %ds:(%esi),%es:(%edi)
   117bd:	c7 44 24 0c 01 00 00 	movl   $0x1,0xc(%esp)
   117c4:	00 
   117c5:	c7 44 24 08 00 02 00 	movl   $0x200,0x8(%esp)
   117cc:	00 
   117cd:	c7 44 24 04 a0 ab 02 	movl   $0x2aba0,0x4(%esp)
   117d4:	00 
   117d5:	c7 04 24 1a 03 00 00 	movl   $0x31a,(%esp)
   117dc:	e8 29 22 00 00       	call   0x13a0a
   117e1:	c7 45 d8 00 00 00 00 	movl   $0x0,0xffffffd8(%ebp)
   117e8:	eb 58                	jmp    0x11842
   117ea:	c7 44 24 08 00 02 00 	movl   $0x200,0x8(%esp)
   117f1:	00 
   117f2:	c7 44 24 04 00 00 00 	movl   $0x0,0x4(%esp)
   117f9:	00 
   117fa:	c7 04 24 a0 ab 02 00 	movl   $0x2aba0,(%esp)
   11801:	e8 06 92 00 00       	call   0x1aa0c
   11806:	83 7d d8 00          	cmpl   $0x0,0xffffffd8(%ebp)
   1180a:	75 07                	jne    0x11813
   1180c:	c6 05 a0 ab 02 00 1f 	movb   $0x1f,0x2aba0
   11813:	8b 45 d8             	mov    0xffffffd8(%ebp),%eax
   11816:	c1 e0 09             	shl    $0x9,%eax
   11819:	05 00 04 00 00       	add    $0x400,%eax
   1181e:	c7 44 24 0c 01 00 00 	movl   $0x1,0xc(%esp)
   11825:	00 
   11826:	89 44 24 08          	mov    %eax,0x8(%esp)
   1182a:	c7 44 24 04 a0 ab 02 	movl   $0x2aba0,0x4(%esp)
   11831:	00 
   11832:	c7 04 24 1a 03 00 00 	movl   $0x31a,(%esp)
   11839:	e8 cc 21 00 00       	call   0x13a0a
   1183e:	83 45 d8 01          	addl   $0x1,0xffffffd8(%ebp)
   11842:	83 7d d8 00          	cmpl   $0x0,0xffffffd8(%ebp)
   11846:	7e a2                	jle    0x117ea
   11848:	c7 44 24 08 00 02 00 	movl   $0x200,0x8(%esp)
   1184f:	00 
   11850:	c7 44 24 04 00 00 00 	movl   $0x0,0x4(%esp)
   11857:	00 
   11858:	c7 04 24 a0 ab 02 00 	movl   $0x2aba0,(%esp)
   1185f:	e8 a8 91 00 00       	call   0x1aa0c
   11864:	c7 45 d8 00 00 00 00 	movl   $0x0,0xffffffd8(%ebp)
   1186b:	c7 45 dc 00 00 00 00 	movl   $0x0,0xffffffdc(%ebp)
   11872:	eb 23                	jmp    0x11897
   11874:	8b 5d d8             	mov    0xffffffd8(%ebp),%ebx
   11877:	8b 45 d8             	mov    0xffffffd8(%ebp),%eax
   1187a:	0f b6 90 a0 ab 02 00 	movzbl 0x2aba0(%eax),%edx
   11881:	8b 4d dc             	mov    0xffffffdc(%ebp),%ecx
   11884:	b8 01 00 00 00       	mov    $0x1,%eax
   11889:	d3 e0                	shl    %cl,%eax
   1188b:	09 d0                	or     %edx,%eax
   1188d:	88 83 a0 ab 02 00    	mov    %al,0x2aba0(%ebx)
   11893:	83 45 dc 01          	addl   $0x1,0xffffffdc(%ebp)
   11897:	8b 45 dc             	mov    0xffffffdc(%ebp),%eax
   1189a:	83 f8 01             	cmp    $0x1,%eax
   1189d:	76 d5                	jbe    0x11874
   1189f:	c7 44 24 0c 01 00 00 	movl   $0x1,0xc(%esp)
   118a6:	00 
   118a7:	c7 44 24 08 00 06 00 	movl   $0x600,0x8(%esp)
   118ae:	00 
   118af:	c7 44 24 04 a0 ab 02 	movl   $0x2aba0,0x4(%esp)
   118b6:	00 
   118b7:	c7 04 24 1a 03 00 00 	movl   $0x31a,(%esp)
   118be:	e8 47 21 00 00       	call   0x13a0a
   118c3:	c7 45 e0 00 00 00 00 	movl   $0x0,0xffffffe0(%ebp)
   118ca:	c7 45 e4 02 00 00 00 	movl   $0x2,0xffffffe4(%ebp)
   118d1:	c7 45 d8 00 00 00 00 	movl   $0x0,0xffffffd8(%ebp)
   118d8:	e9 af 00 00 00       	jmp    0x1198c
   118dd:	c7 44 24 08 00 02 00 	movl   $0x200,0x8(%esp)
   118e4:	00 
   118e5:	c7 44 24 04 00 00 00 	movl   $0x0,0x4(%esp)
   118ec:	00 
   118ed:	c7 04 24 a0 ab 02 00 	movl   $0x2aba0,(%esp)
   118f4:	e8 13 91 00 00       	call   0x1aa0c
   118f9:	c7 45 f0 a0 ab 02 00 	movl   $0x2aba0,0xfffffff0(%ebp)
   11900:	c7 45 dc 00 00 00 00 	movl   $0x0,0xffffffdc(%ebp)
   11907:	eb 4e                	jmp    0x11957
   11909:	83 7d e0 00          	cmpl   $0x0,0xffffffe0(%ebp)
   1190d:	7e 0f                	jle    0x1191e
   1190f:	8b 45 f0             	mov    0xfffffff0(%ebp),%eax
   11912:	c7 00 ff ff ff ff    	movl   $0xffffffff,(%eax)
   11918:	83 6d e0 01          	subl   $0x1,0xffffffe0(%ebp)
   1191c:	eb 31                	jmp    0x1194f
   1191e:	8b 45 f0             	mov    0xfffffff0(%ebp),%eax
   11921:	c7 00 00 00 00 00    	movl   $0x0,(%eax)
   11927:	83 7d e4 00          	cmpl   $0x0,0xffffffe4(%ebp)
   1192b:	7e 22                	jle    0x1194f
   1192d:	eb 1a                	jmp    0x11949
   1192f:	83 6d e4 01          	subl   $0x1,0xffffffe4(%ebp)
   11933:	8b 45 f0             	mov    0xfffffff0(%ebp),%eax
   11936:	8b 10                	mov    (%eax),%edx
   11938:	8b 4d e4             	mov    0xffffffe4(%ebp),%ecx
   1193b:	b8 01 00 00 00       	mov    $0x1,%eax
   11940:	d3 e0                	shl    %cl,%eax
   11942:	09 c2                	or     %eax,%edx
   11944:	8b 45 f0             	mov    0xfffffff0(%ebp),%eax
   11947:	89 10                	mov    %edx,(%eax)
   11949:	83 7d e4 00          	cmpl   $0x0,0xffffffe4(%ebp)
   1194d:	7f e0                	jg     0x1192f
   1194f:	83 45 dc 01          	addl   $0x1,0xffffffdc(%ebp)
   11953:	83 45 f0 04          	addl   $0x4,0xfffffff0(%ebp)
   11957:	83 7d dc 7f          	cmpl   $0x7f,0xffffffdc(%ebp)
   1195b:	7e ac                	jle    0x11909
   1195d:	8b 45 d8             	mov    0xffffffd8(%ebp),%eax
   11960:	c1 e0 09             	shl    $0x9,%eax
   11963:	05 00 06 00 00       	add    $0x600,%eax
   11968:	c7 44 24 0c 01 00 00 	movl   $0x1,0xc(%esp)
   1196f:	00 
   11970:	89 44 24 08          	mov    %eax,0x8(%esp)
   11974:	c7 44 24 04 a0 ab 02 	movl   $0x2aba0,0x4(%esp)
   1197b:	00 
   1197c:	c7 04 24 1a 03 00 00 	movl   $0x31a,(%esp)
   11983:	e8 82 20 00 00       	call   0x13a0a
   11988:	83 45 d8 01          	addl   $0x1,0xffffffd8(%ebp)
   1198c:	83 7d d8 00          	cmpl   $0x0,0xffffffd8(%ebp)
   11990:	0f 8e 47 ff ff ff    	jle    0x118dd
   11996:	c7 45 e8 a0 ab 02 00 	movl   $0x2aba0,0xffffffe8(%ebp)
   1199d:	c7 44 24 08 00 02 00 	movl   $0x200,0x8(%esp)
   119a4:	00 
   119a5:	c7 44 24 04 00 00 00 	movl   $0x0,0x4(%esp)
   119ac:	00 
   119ad:	c7 04 24 a0 ab 02 00 	movl   $0x2aba0,(%esp)
   119b4:	e8 53 90 00 00       	call   0x1aa0c
   119b9:	83 45 e8 20          	addl   $0x20,0xffffffe8(%ebp)
   119bd:	8b 45 e8             	mov    0xffffffe8(%ebp),%eax
   119c0:	c7 00 01 00 00 00    	movl   $0x1,(%eax)
   119c6:	8b 45 e8             	mov    0xffffffe8(%ebp),%eax
   119c9:	c7 40 04 00 02 00 00 	movl   $0x200,0x4(%eax)
   119d0:	8b 45 e8             	mov    0xffffffe8(%ebp),%eax
   119d3:	c7 40 08 01 00 00 00 	movl   $0x1,0x8(%eax)
   119da:	8b 45 e8             	mov    0xffffffe8(%ebp),%eax
   119dd:	c7 40 0c 01 00 00 00 	movl   $0x1,0xc(%eax)
   119e4:	83 45 e8 20          	addl   $0x20,0xffffffe8(%ebp)
   119e8:	c7 45 d8 00 00 00 00 	movl   $0x0,0xffffffd8(%ebp)
   119ef:	eb 34                	jmp    0x11a25
   119f1:	8b 45 e8             	mov    0xffffffe8(%ebp),%eax
   119f4:	c7 00 02 00 00 00    	movl   $0x2,(%eax)
   119fa:	8b 45 e8             	mov    0xffffffe8(%ebp),%eax
   119fd:	c7 40 04 00 00 00 00 	movl   $0x0,0x4(%eax)
   11a04:	0f b6 45 d8          	movzbl 0xffffffd8(%ebp),%eax
   11a08:	80 cc 04             	or     $0x4,%ah
   11a0b:	89 c2                	mov    %eax,%edx
   11a0d:	8b 45 e8             	mov    0xffffffe8(%ebp),%eax
   11a10:	89 50 08             	mov    %edx,0x8(%eax)
   11a13:	8b 45 e8             	mov    0xffffffe8(%ebp),%eax
   11a16:	c7 40 0c 00 00 00 00 	movl   $0x0,0xc(%eax)
   11a1d:	83 45 d8 01          	addl   $0x1,0xffffffd8(%ebp)
   11a21:	83 45 e8 20          	addl   $0x20,0xffffffe8(%ebp)
   11a25:	83 7d d8 02          	cmpl   $0x2,0xffffffd8(%ebp)
   11a29:	7e c6                	jle    0x119f1
   11a2b:	c7 44 24 0c 01 00 00 	movl   $0x1,0xc(%esp)
   11a32:	00 
   11a33:	c7 44 24 08 00 08 00 	movl   $0x800,0x8(%esp)
   11a3a:	00 
   11a3b:	c7 44 24 04 a0 ab 02 	movl   $0x2aba0,0x4(%esp)
   11a42:	00 
   11a43:	c7 04 24 1a 03 00 00 	movl   $0x31a,(%esp)
   11a4a:	e8 bb 1f 00 00       	call   0x13a0a
   11a4f:	c7 45 d8 00 00 00 00 	movl   $0x0,0xffffffd8(%ebp)
   11a56:	eb 58                	jmp    0x11ab0
   11a58:	c7 45 ec a0 ab 02 00 	movl   $0x2aba0,0xffffffec(%ebp)
   11a5f:	c7 45 dc 00 00 00 00 	movl   $0x0,0xffffffdc(%ebp)
   11a66:	eb 11                	jmp    0x11a79
   11a68:	8b 45 ec             	mov    0xffffffec(%ebp),%eax
   11a6b:	c7 00 00 00 00 00    	movl   $0x0,(%eax)
   11a71:	83 45 dc 01          	addl   $0x1,0xffffffdc(%ebp)
   11a75:	83 45 ec 10          	addl   $0x10,0xffffffec(%ebp)
   11a79:	8b 45 dc             	mov    0xffffffdc(%ebp),%eax
   11a7c:	83 f8 1f             	cmp    $0x1f,%eax
   11a7f:	76 e7                	jbe    0x11a68
   11a81:	8b 45 d8             	mov    0xffffffd8(%ebp),%eax
   11a84:	c1 e0 09             	shl    $0x9,%eax
   11a87:	05 00 0e 00 00       	add    $0xe00,%eax
   11a8c:	c7 44 24 0c 01 00 00 	movl   $0x1,0xc(%esp)
   11a93:	00 
   11a94:	89 44 24 08          	mov    %eax,0x8(%esp)
   11a98:	c7 44 24 04 a0 ab 02 	movl   $0x2aba0,0x4(%esp)
   11a9f:	00 
   11aa0:	c7 04 24 1a 03 00 00 	movl   $0x31a,(%esp)
   11aa7:	e8 5e 1f 00 00       	call   0x13a0a
   11aac:	83 45 d8 01          	addl   $0x1,0xffffffd8(%ebp)
   11ab0:	83 7d d8 00          	cmpl   $0x0,0xffffffd8(%ebp)
   11ab4:	74 a2                	je     0x11a58
   11ab6:	c7 45 ec a0 ab 02 00 	movl   $0x2aba0,0xffffffec(%ebp)
   11abd:	83 45 ec 10          	addl   $0x10,0xffffffec(%ebp)
   11ac1:	8b 45 ec             	mov    0xffffffec(%ebp),%eax
   11ac4:	c7 00 01 00 00 00    	movl   $0x1,(%eax)
   11aca:	8b 7d ec             	mov    0xffffffec(%ebp),%edi
   11acd:	83 c7 04             	add    $0x4,%edi
   11ad0:	be 4c b0 01 00       	mov    $0x1b04c,%esi
   11ad5:	b9 02 00 00 00       	mov    $0x2,%ecx
   11ada:	f3 a4                	rep movsb %ds:(%esi),%es:(%edi)
   11adc:	83 45 ec 10          	addl   $0x10,0xffffffec(%ebp)
   11ae0:	c7 45 d8 00 00 00 00 	movl   $0x0,0xffffffd8(%ebp)
   11ae7:	eb 33                	jmp    0x11b1c
   11ae9:	8b 55 d8             	mov    0xffffffd8(%ebp),%edx
   11aec:	83 c2 02             	add    $0x2,%edx
   11aef:	8b 45 ec             	mov    0xffffffec(%ebp),%eax
   11af2:	89 10                	mov    %edx,(%eax)
   11af4:	8b 7d ec             	mov    0xffffffec(%ebp),%edi
   11af7:	83 c7 04             	add    $0x4,%edi
   11afa:	be 4e b0 01 00       	mov    $0x1b04e,%esi
   11aff:	b9 05 00 00 00       	mov    $0x5,%ecx
   11b04:	f3 a4                	rep movsb %ds:(%esi),%es:(%edi)
   11b06:	8b 45 d8             	mov    0xffffffd8(%ebp),%eax
   11b09:	83 c0 30             	add    $0x30,%eax
   11b0c:	89 c2                	mov    %eax,%edx
   11b0e:	8b 45 ec             	mov    0xffffffec(%ebp),%eax
   11b11:	88 50 07             	mov    %dl,0x7(%eax)
   11b14:	83 45 d8 01          	addl   $0x1,0xffffffd8(%ebp)
   11b18:	83 45 ec 10          	addl   $0x10,0xffffffec(%ebp)
   11b1c:	83 7d d8 02          	cmpl   $0x2,0xffffffd8(%ebp)
   11b20:	7e c7                	jle    0x11ae9
   11b22:	c7 44 24 0c 01 00 00 	movl   $0x1,0xc(%esp)
   11b29:	00 
   11b2a:	c7 44 24 08 00 0e 00 	movl   $0xe00,0x8(%esp)
   11b31:	00 
   11b32:	c7 44 24 04 a0 ab 02 	movl   $0x2aba0,0x4(%esp)
   11b39:	00 
   11b3a:	c7 04 24 1a 03 00 00 	movl   $0x31a,(%esp)
   11b41:	e8 c4 1e 00 00       	call   0x13a0a
   11b46:	81 c4 8c 00 00 00    	add    $0x8c,%esp
   11b4c:	5b                   	pop    %ebx
   11b4d:	5e                   	pop    %esi
   11b4e:	5f                   	pop    %edi
   11b4f:	5d                   	pop    %ebp
   11b50:	c3                   	ret    
   11b51:	55                   	push   %ebp
   11b52:	89 e5                	mov    %esp,%ebp
   11b54:	83 ec 28             	sub    $0x28,%esp
   11b57:	c7 05 10 f4 01 00 00 	movl   $0x0,0x1f410
   11b5e:	00 00 00 
   11b61:	c7 45 f0 e0 49 04 00 	movl   $0x449e0,0xfffffff0(%ebp)
   11b68:	eb 0e                	jmp    0x11b78
   11b6a:	8b 45 f0             	mov    0xfffffff0(%ebp),%eax
   11b6d:	c7 40 08 00 00 00 00 	movl   $0x0,0x8(%eax)
   11b74:	83 45 f0 0c          	addl   $0xc,0xfffffff0(%ebp)
   11b78:	b8 e0 79 04 00       	mov    $0x479e0,%eax
   11b7d:	39 45 f0             	cmp    %eax,0xfffffff0(%ebp)
   11b80:	72 e8                	jb     0x11b6a
   11b82:	c7 45 f4 40 f4 01 00 	movl   $0x1f440,0xfffffff4(%ebp)
   11b89:	eb 0e                	jmp    0x11b99
   11b8b:	8b 45 f4             	mov    0xfffffff4(%ebp),%eax
   11b8e:	c7 40 24 00 00 00 00 	movl   $0x0,0x24(%eax)
   11b95:	83 45 f4 2c          	addl   $0x2c,0xfffffff4(%ebp)
   11b99:	b8 40 ff 01 00       	mov    $0x1ff40,%eax
   11b9e:	39 45 f4             	cmp    %eax,0xfffffff4(%ebp)
   11ba1:	72 e8                	jb     0x11b8b
   11ba3:	c7 04 24 1a 03 00 00 	movl   $0x31a,(%esp)
   11baa:	e8 de 1c 00 00       	call   0x1388d
   11baf:	c7 44 24 0c 01 00 00 	movl   $0x1,0xc(%esp)
   11bb6:	00 
   11bb7:	c7 44 24 08 00 02 00 	movl   $0x200,0x8(%esp)
   11bbe:	00 
   11bbf:	c7 44 24 04 a0 ab 02 	movl   $0x2aba0,0x4(%esp)
   11bc6:	00 
   11bc7:	c7 04 24 1a 03 00 00 	movl   $0x31a,(%esp)
   11bce:	e8 b2 1d 00 00       	call   0x13985
   11bd3:	c7 45 f8 a0 ab 02 00 	movl   $0x2aba0,0xfffffff8(%ebp)
   11bda:	8b 45 f8             	mov    0xfffffff8(%ebp),%eax
   11bdd:	8b 00                	mov    (%eax),%eax
   11bdf:	3d 01 01 10 10       	cmp    $0x10100101,%eax
   11be4:	74 05                	je     0x11beb
   11be6:	e8 83 fa ff ff       	call   0x1166e
   11beb:	c7 44 24 0c 01 00 00 	movl   $0x1,0xc(%esp)
   11bf2:	00 
   11bf3:	c7 44 24 08 00 08 00 	movl   $0x800,0x8(%esp)
   11bfa:	00 
   11bfb:	c7 44 24 04 a0 ab 02 	movl   $0x2aba0,0x4(%esp)
   11c02:	00 
   11c03:	c7 04 24 1a 03 00 00 	movl   $0x31a,(%esp)
   11c0a:	e8 76 1d 00 00       	call   0x13985
   11c0f:	c7 45 fc a0 ab 02 00 	movl   $0x2aba0,0xfffffffc(%ebp)
   11c16:	8b 45 fc             	mov    0xfffffffc(%ebp),%eax
   11c19:	83 c0 20             	add    $0x20,%eax
   11c1c:	89 c2                	mov    %eax,%edx
   11c1e:	8b 02                	mov    (%edx),%eax
   11c20:	a3 40 f4 01 00       	mov    %eax,0x1f440
   11c25:	8b 42 04             	mov    0x4(%edx),%eax
   11c28:	a3 44 f4 01 00       	mov    %eax,0x1f444
   11c2d:	8b 42 08             	mov    0x8(%edx),%eax
   11c30:	a3 48 f4 01 00       	mov    %eax,0x1f448
   11c35:	8b 42 0c             	mov    0xc(%edx),%eax
   11c38:	a3 4c f4 01 00       	mov    %eax,0x1f44c
   11c3d:	8b 42 10             	mov    0x10(%edx),%eax
   11c40:	a3 50 f4 01 00       	mov    %eax,0x1f450
   11c45:	8b 42 14             	mov    0x14(%edx),%eax
   11c48:	a3 54 f4 01 00       	mov    %eax,0x1f454
   11c4d:	8b 42 18             	mov    0x18(%edx),%eax
   11c50:	a3 58 f4 01 00       	mov    %eax,0x1f458
   11c55:	8b 42 1c             	mov    0x1c(%edx),%eax
   11c58:	a3 5c f4 01 00       	mov    %eax,0x1f45c
   11c5d:	8b 42 20             	mov    0x20(%edx),%eax
   11c60:	a3 60 f4 01 00       	mov    %eax,0x1f460
   11c65:	8b 42 24             	mov    0x24(%edx),%eax
   11c68:	a3 64 f4 01 00       	mov    %eax,0x1f464
   11c6d:	8b 42 28             	mov    0x28(%edx),%eax
   11c70:	a3 68 f4 01 00       	mov    %eax,0x1f468
   11c75:	c7 05 60 f4 01 00 1a 	movl   $0x31a,0x1f460
   11c7c:	03 00 00 
   11c7f:	c7 05 64 f4 01 00 01 	movl   $0x1,0x1f464
   11c86:	00 00 00 
   11c89:	c7 05 68 f4 01 00 01 	movl   $0x1,0x1f468
   11c90:	00 00 00 
   11c93:	c7 05 0c f4 01 00 40 	movl   $0x1f440,0x1f40c
   11c9a:	f4 01 00 
   11c9d:	c9                   	leave  
   11c9e:	c3                   	ret    
   11c9f:	55                   	push   %ebp
   11ca0:	89 e5                	mov    %esp,%ebp
   11ca2:	57                   	push   %edi
   11ca3:	56                   	push   %esi
   11ca4:	53                   	push   %ebx
   11ca5:	83 ec 5c             	sub    $0x5c,%esp
   11ca8:	c7 45 c8 00 00 00 00 	movl   $0x0,0xffffffc8(%ebp)
   11caf:	c7 45 cc 00 00 00 00 	movl   $0x0,0xffffffcc(%ebp)
   11cb6:	c7 45 d0 00 00 00 00 	movl   $0x0,0xffffffd0(%ebp)
   11cbd:	e9 01 01 00 00       	jmp    0x11dc3
   11cc2:	8b 45 d0             	mov    0xffffffd0(%ebp),%eax
   11cc5:	c1 e0 09             	shl    $0x9,%eax
   11cc8:	05 00 04 00 00       	add    $0x400,%eax
   11ccd:	c7 44 24 0c 01 00 00 	movl   $0x1,0xc(%esp)
   11cd4:	00 
   11cd5:	89 44 24 08          	mov    %eax,0x8(%esp)
   11cd9:	c7 44 24 04 a0 ab 02 	movl   $0x2aba0,0x4(%esp)
   11ce0:	00 
   11ce1:	c7 04 24 1a 03 00 00 	movl   $0x31a,(%esp)
   11ce8:	e8 98 1c 00 00       	call   0x13985
   11ced:	c7 45 d4 00 00 00 00 	movl   $0x0,0xffffffd4(%ebp)
   11cf4:	e9 b3 00 00 00       	jmp    0x11dac
   11cf9:	8b 45 d4             	mov    0xffffffd4(%ebp),%eax
   11cfc:	0f b6 80 a0 ab 02 00 	movzbl 0x2aba0(%eax),%eax
   11d03:	3c ff                	cmp    $0xff,%al
   11d05:	0f 84 9d 00 00 00    	je     0x11da8
   11d0b:	c7 45 d8 00 00 00 00 	movl   $0x0,0xffffffd8(%ebp)
   11d12:	e9 81 00 00 00       	jmp    0x11d98
   11d17:	8b 45 d4             	mov    0xffffffd4(%ebp),%eax
   11d1a:	0f b6 80 a0 ab 02 00 	movzbl 0x2aba0(%eax),%eax
   11d21:	0f be c0             	movsbl %al,%eax
   11d24:	8b 4d d8             	mov    0xffffffd8(%ebp),%ecx
   11d27:	d3 f8                	sar    %cl,%eax
   11d29:	83 e0 01             	and    $0x1,%eax
   11d2c:	85 c0                	test   %eax,%eax
   11d2e:	75 64                	jne    0x11d94
   11d30:	8b 45 d0             	mov    0xffffffd0(%ebp),%eax
   11d33:	c1 e0 09             	shl    $0x9,%eax
   11d36:	03 45 d4             	add    0xffffffd4(%ebp),%eax
   11d39:	c1 e0 03             	shl    $0x3,%eax
   11d3c:	03 45 d8             	add    0xffffffd8(%ebp),%eax
   11d3f:	89 45 c8             	mov    %eax,0xffffffc8(%ebp)
   11d42:	83 7d c8 00          	cmpl   $0x0,0xffffffc8(%ebp)
   11d46:	74 4c                	je     0x11d94
   11d48:	8b 5d d4             	mov    0xffffffd4(%ebp),%ebx
   11d4b:	8b 45 d4             	mov    0xffffffd4(%ebp),%eax
   11d4e:	0f b6 90 a0 ab 02 00 	movzbl 0x2aba0(%eax),%edx
   11d55:	8b 4d d8             	mov    0xffffffd8(%ebp),%ecx
   11d58:	b8 01 00 00 00       	mov    $0x1,%eax
   11d5d:	d3 e0                	shl    %cl,%eax
   11d5f:	09 d0                	or     %edx,%eax
   11d61:	88 83 a0 ab 02 00    	mov    %al,0x2aba0(%ebx)
   11d67:	8b 45 d0             	mov    0xffffffd0(%ebp),%eax
   11d6a:	c1 e0 09             	shl    $0x9,%eax
   11d6d:	05 00 04 00 00       	add    $0x400,%eax
   11d72:	c7 44 24 0c 01 00 00 	movl   $0x1,0xc(%esp)
   11d79:	00 
   11d7a:	89 44 24 08          	mov    %eax,0x8(%esp)
   11d7e:	c7 44 24 04 a0 ab 02 	movl   $0x2aba0,0x4(%esp)
   11d85:	00 
   11d86:	c7 04 24 1a 03 00 00 	movl   $0x31a,(%esp)
   11d8d:	e8 78 1c 00 00       	call   0x13a0a
   11d92:	eb 0e                	jmp    0x11da2
   11d94:	83 45 d8 01          	addl   $0x1,0xffffffd8(%ebp)
   11d98:	83 7d d8 07          	cmpl   $0x7,0xffffffd8(%ebp)
   11d9c:	0f 8e 75 ff ff ff    	jle    0x11d17
   11da2:	83 7d c8 00          	cmpl   $0x0,0xffffffc8(%ebp)
   11da6:	75 11                	jne    0x11db9
   11da8:	83 45 d4 01          	addl   $0x1,0xffffffd4(%ebp)
   11dac:	81 7d d4 ff 01 00 00 	cmpl   $0x1ff,0xffffffd4(%ebp)
   11db3:	0f 8e 40 ff ff ff    	jle    0x11cf9
   11db9:	83 7d c8 00          	cmpl   $0x0,0xffffffc8(%ebp)
   11dbd:	75 0e                	jne    0x11dcd
   11dbf:	83 45 d0 01          	addl   $0x1,0xffffffd0(%ebp)
   11dc3:	83 7d d0 00          	cmpl   $0x0,0xffffffd0(%ebp)
   11dc7:	0f 8e f5 fe ff ff    	jle    0x11cc2
   11dcd:	83 7d c8 00          	cmpl   $0x0,0xffffffc8(%ebp)
   11dd1:	75 18                	jne    0x11deb
   11dd3:	c7 04 24 53 b0 01 00 	movl   $0x1b053,(%esp)
   11dda:	e8 6d 8f 00 00       	call   0x1ad4c
   11ddf:	c7 45 b0 00 00 00 00 	movl   $0x0,0xffffffb0(%ebp)
   11de6:	e9 dc 04 00 00       	jmp    0x122c7
   11deb:	c7 45 d0 00 00 00 00 	movl   $0x0,0xffffffd0(%ebp)
   11df2:	e9 d5 02 00 00       	jmp    0x120cc
   11df7:	8b 45 d0             	mov    0xffffffd0(%ebp),%eax
   11dfa:	c1 e0 09             	shl    $0x9,%eax
   11dfd:	05 00 06 00 00       	add    $0x600,%eax
   11e02:	c7 44 24 0c 01 00 00 	movl   $0x1,0xc(%esp)
   11e09:	00 
   11e0a:	89 44 24 08          	mov    %eax,0x8(%esp)
   11e0e:	c7 44 24 04 a0 ab 02 	movl   $0x2aba0,0x4(%esp)
   11e15:	00 
   11e16:	c7 04 24 1a 03 00 00 	movl   $0x31a,(%esp)
   11e1d:	e8 63 1b 00 00       	call   0x13985
   11e22:	c7 45 d4 00 00 00 00 	movl   $0x0,0xffffffd4(%ebp)
   11e29:	e9 8d 02 00 00       	jmp    0x120bb
   11e2e:	8b 45 d4             	mov    0xffffffd4(%ebp),%eax
   11e31:	0f b6 80 a0 ab 02 00 	movzbl 0x2aba0(%eax),%eax
   11e38:	3c ff                	cmp    $0xff,%al
   11e3a:	0f 84 77 02 00 00    	je     0x120b7
   11e40:	c7 45 d8 00 00 00 00 	movl   $0x0,0xffffffd8(%ebp)
   11e47:	e9 61 02 00 00       	jmp    0x120ad
   11e4c:	8b 45 d4             	mov    0xffffffd4(%ebp),%eax
   11e4f:	0f b6 80 a0 ab 02 00 	movzbl 0x2aba0(%eax),%eax
   11e56:	0f be c0             	movsbl %al,%eax
   11e59:	8b 4d d8             	mov    0xffffffd8(%ebp),%ecx
   11e5c:	d3 f8                	sar    %cl,%eax
   11e5e:	83 e0 01             	and    $0x1,%eax
   11e61:	85 c0                	test   %eax,%eax
   11e63:	0f 85 40 02 00 00    	jne    0x120a9
   11e69:	8b 45 d0             	mov    0xffffffd0(%ebp),%eax
   11e6c:	c1 e0 09             	shl    $0x9,%eax
   11e6f:	03 45 d4             	add    0xffffffd4(%ebp),%eax
   11e72:	c1 e0 03             	shl    $0x3,%eax
   11e75:	03 45 d8             	add    0xffffffd8(%ebp),%eax
   11e78:	89 45 cc             	mov    %eax,0xffffffcc(%ebp)
   11e7b:	c7 45 f0 c8 00 00 00 	movl   $0xc8,0xfffffff0(%ebp)
   11e82:	e9 18 02 00 00       	jmp    0x1209f
   11e87:	8b 45 d0             	mov    0xffffffd0(%ebp),%eax
   11e8a:	c1 e0 09             	shl    $0x9,%eax
   11e8d:	05 00 06 00 00       	add    $0x600,%eax
   11e92:	c7 44 24 0c 01 00 00 	movl   $0x1,0xc(%esp)
   11e99:	00 
   11e9a:	89 44 24 08          	mov    %eax,0x8(%esp)
   11e9e:	c7 44 24 04 a0 ab 02 	movl   $0x2aba0,0x4(%esp)
   11ea5:	00 
   11ea6:	c7 04 24 1a 03 00 00 	movl   $0x31a,(%esp)
   11ead:	e8 d3 1a 00 00       	call   0x13985
   11eb2:	e9 9f 01 00 00       	jmp    0x12056
   11eb7:	b8 08 00 00 00       	mov    $0x8,%eax
   11ebc:	2b 45 d8             	sub    0xffffffd8(%ebp),%eax
   11ebf:	3b 45 f0             	cmp    0xfffffff0(%ebp),%eax
   11ec2:	0f 8c b0 00 00 00    	jl     0x11f78
   11ec8:	eb 6f                	jmp    0x11f39
   11eca:	8b 45 d4             	mov    0xffffffd4(%ebp),%eax
   11ecd:	0f b6 90 a0 ab 02 00 	movzbl 0x2aba0(%eax),%edx
   11ed4:	8b 4d d8             	mov    0xffffffd8(%ebp),%ecx
   11ed7:	b8 01 00 00 00       	mov    $0x1,%eax
   11edc:	d3 e0                	shl    %cl,%eax
   11ede:	21 d0                	and    %edx,%eax
   11ee0:	84 c0                	test   %al,%al
   11ee2:	74 32                	je     0x11f16
   11ee4:	8b 45 d8             	mov    0xffffffd8(%ebp),%eax
   11ee7:	89 44 24 0c          	mov    %eax,0xc(%esp)
   11eeb:	8b 45 d4             	mov    0xffffffd4(%ebp),%eax
   11eee:	89 44 24 08          	mov    %eax,0x8(%esp)
   11ef2:	8b 45 d0             	mov    0xffffffd0(%ebp),%eax
   11ef5:	89 44 24 04          	mov    %eax,0x4(%esp)
   11ef9:	c7 04 24 61 b0 01 00 	movl   $0x1b061,(%esp)
   11f00:	e8 47 8e 00 00       	call   0x1ad4c
   11f05:	c7 04 24 71 b0 01 00 	movl   $0x1b071,(%esp)
   11f0c:	e8 3b 8e 00 00       	call   0x1ad4c
   11f11:	e9 93 01 00 00       	jmp    0x120a9
   11f16:	8b 5d d4             	mov    0xffffffd4(%ebp),%ebx
   11f19:	8b 45 d4             	mov    0xffffffd4(%ebp),%eax
   11f1c:	0f b6 90 a0 ab 02 00 	movzbl 0x2aba0(%eax),%edx
   11f23:	8b 4d d8             	mov    0xffffffd8(%ebp),%ecx
   11f26:	b8 01 00 00 00       	mov    $0x1,%eax
   11f2b:	d3 e0                	shl    %cl,%eax
   11f2d:	09 d0                	or     %edx,%eax
   11f2f:	88 83 a0 ab 02 00    	mov    %al,0x2aba0(%ebx)
   11f35:	83 45 d8 01          	addl   $0x1,0xffffffd8(%ebp)
   11f39:	83 7d f0 00          	cmpl   $0x0,0xfffffff0(%ebp)
   11f3d:	0f 9f c0             	setg   %al
   11f40:	83 6d f0 01          	subl   $0x1,0xfffffff0(%ebp)
   11f44:	84 c0                	test   %al,%al
   11f46:	75 82                	jne    0x11eca
   11f48:	8b 45 d0             	mov    0xffffffd0(%ebp),%eax
   11f4b:	c1 e0 09             	shl    $0x9,%eax
   11f4e:	05 00 06 00 00       	add    $0x600,%eax
   11f53:	c7 44 24 0c 01 00 00 	movl   $0x1,0xc(%esp)
   11f5a:	00 
   11f5b:	89 44 24 08          	mov    %eax,0x8(%esp)
   11f5f:	c7 44 24 04 a0 ab 02 	movl   $0x2aba0,0x4(%esp)
   11f66:	00 
   11f67:	c7 04 24 1a 03 00 00 	movl   $0x31a,(%esp)
   11f6e:	e8 97 1a 00 00       	call   0x13a0a
   11f73:	e9 5e 01 00 00       	jmp    0x120d6
   11f78:	83 7d d8 00          	cmpl   $0x0,0xffffffd8(%ebp)
   11f7c:	0f 85 c3 00 00 00    	jne    0x12045
   11f82:	8b 45 d4             	mov    0xffffffd4(%ebp),%eax
   11f85:	0f b6 80 a0 ab 02 00 	movzbl 0x2aba0(%eax),%eax
   11f8c:	84 c0                	test   %al,%al
   11f8e:	74 32                	je     0x11fc2
   11f90:	8b 45 d8             	mov    0xffffffd8(%ebp),%eax
   11f93:	89 44 24 0c          	mov    %eax,0xc(%esp)
   11f97:	8b 45 d4             	mov    0xffffffd4(%ebp),%eax
   11f9a:	89 44 24 08          	mov    %eax,0x8(%esp)
   11f9e:	8b 45 d0             	mov    0xffffffd0(%ebp),%eax
   11fa1:	89 44 24 04          	mov    %eax,0x4(%esp)
   11fa5:	c7 04 24 61 b0 01 00 	movl   $0x1b061,(%esp)
   11fac:	e8 9b 8d 00 00       	call   0x1ad4c
   11fb1:	c7 04 24 7e b0 01 00 	movl   $0x1b07e,(%esp)
   11fb8:	e8 8f 8d 00 00       	call   0x1ad4c
   11fbd:	e9 e7 00 00 00       	jmp    0x120a9
   11fc2:	8b 45 d4             	mov    0xffffffd4(%ebp),%eax
   11fc5:	c6 80 a0 ab 02 00 ff 	movb   $0xff,0x2aba0(%eax)
   11fcc:	83 6d f0 08          	subl   $0x8,0xfffffff0(%ebp)
   11fd0:	eb 79                	jmp    0x1204b
   11fd2:	8b 45 d4             	mov    0xffffffd4(%ebp),%eax
   11fd5:	0f b6 90 a0 ab 02 00 	movzbl 0x2aba0(%eax),%edx
   11fdc:	8b 4d d8             	mov    0xffffffd8(%ebp),%ecx
   11fdf:	b8 01 00 00 00       	mov    $0x1,%eax
   11fe4:	d3 e0                	shl    %cl,%eax
   11fe6:	21 d0                	and    %edx,%eax
   11fe8:	84 c0                	test   %al,%al
   11fea:	74 32                	je     0x1201e
   11fec:	8b 45 d8             	mov    0xffffffd8(%ebp),%eax
   11fef:	89 44 24 0c          	mov    %eax,0xc(%esp)
   11ff3:	8b 45 d4             	mov    0xffffffd4(%ebp),%eax
   11ff6:	89 44 24 08          	mov    %eax,0x8(%esp)
   11ffa:	8b 45 d0             	mov    0xffffffd0(%ebp),%eax
   11ffd:	89 44 24 04          	mov    %eax,0x4(%esp)
   12001:	c7 04 24 61 b0 01 00 	movl   $0x1b061,(%esp)
   12008:	e8 3f 8d 00 00       	call   0x1ad4c
   1200d:	c7 04 24 8b b0 01 00 	movl   $0x1b08b,(%esp)
   12014:	e8 33 8d 00 00       	call   0x1ad4c
   12019:	e9 8b 00 00 00       	jmp    0x120a9
   1201e:	8b 5d d4             	mov    0xffffffd4(%ebp),%ebx
   12021:	8b 45 d4             	mov    0xffffffd4(%ebp),%eax
   12024:	0f b6 90 a0 ab 02 00 	movzbl 0x2aba0(%eax),%edx
   1202b:	8b 4d d8             	mov    0xffffffd8(%ebp),%ecx
   1202e:	b8 01 00 00 00       	mov    $0x1,%eax
   12033:	d3 e0                	shl    %cl,%eax
   12035:	09 d0                	or     %edx,%eax
   12037:	88 83 a0 ab 02 00    	mov    %al,0x2aba0(%ebx)
   1203d:	83 45 d8 01          	addl   $0x1,0xffffffd8(%ebp)
   12041:	83 6d f0 01          	subl   $0x1,0xfffffff0(%ebp)
   12045:	83 7d d8 07          	cmpl   $0x7,0xffffffd8(%ebp)
   12049:	7e 87                	jle    0x11fd2
   1204b:	83 45 d4 01          	addl   $0x1,0xffffffd4(%ebp)
   1204f:	c7 45 d8 00 00 00 00 	movl   $0x0,0xffffffd8(%ebp)
   12056:	81 7d d4 ff 01 00 00 	cmpl   $0x1ff,0xffffffd4(%ebp)
   1205d:	7f 0a                	jg     0x12069
   1205f:	83 7d f0 00          	cmpl   $0x0,0xfffffff0(%ebp)
   12063:	0f 8f 4e fe ff ff    	jg     0x11eb7
   12069:	8b 45 d0             	mov    0xffffffd0(%ebp),%eax
   1206c:	c1 e0 09             	shl    $0x9,%eax
   1206f:	05 00 06 00 00       	add    $0x600,%eax
   12074:	c7 44 24 0c 01 00 00 	movl   $0x1,0xc(%esp)
   1207b:	00 
   1207c:	89 44 24 08          	mov    %eax,0x8(%esp)
   12080:	c7 44 24 04 a0 ab 02 	movl   $0x2aba0,0x4(%esp)
   12087:	00 
   12088:	c7 04 24 1a 03 00 00 	movl   $0x31a,(%esp)
   1208f:	e8 76 19 00 00       	call   0x13a0a
   12094:	83 45 d0 01          	addl   $0x1,0xffffffd0(%ebp)
   12098:	c7 45 d4 00 00 00 00 	movl   $0x0,0xffffffd4(%ebp)
   1209f:	83 7d f0 00          	cmpl   $0x0,0xfffffff0(%ebp)
   120a3:	0f 8f de fd ff ff    	jg     0x11e87
   120a9:	83 45 d8 01          	addl   $0x1,0xffffffd8(%ebp)
   120ad:	83 7d d8 07          	cmpl   $0x7,0xffffffd8(%ebp)
   120b1:	0f 8e 95 fd ff ff    	jle    0x11e4c
   120b7:	83 45 d4 01          	addl   $0x1,0xffffffd4(%ebp)
   120bb:	81 7d d4 ff 01 00 00 	cmpl   $0x1ff,0xffffffd4(%ebp)
   120c2:	0f 8e 66 fd ff ff    	jle    0x11e2e
   120c8:	83 45 d0 01          	addl   $0x1,0xffffffd0(%ebp)
   120cc:	83 7d d0 00          	cmpl   $0x0,0xffffffd0(%ebp)
   120d0:	0f 8e 21 fd ff ff    	jle    0x11df7
   120d6:	83 7d cc 00          	cmpl   $0x0,0xffffffcc(%ebp)
   120da:	75 18                	jne    0x120f4
   120dc:	c7 04 24 98 b0 01 00 	movl   $0x1b098,(%esp)
   120e3:	e8 64 8c 00 00       	call   0x1ad4c
   120e8:	c7 45 b0 00 00 00 00 	movl   $0x0,0xffffffb0(%ebp)
   120ef:	e9 d3 01 00 00       	jmp    0x122c7
   120f4:	8b 45 c8             	mov    0xffffffc8(%ebp),%eax
   120f7:	c1 e0 05             	shl    $0x5,%eax
   120fa:	05 00 08 00 00       	add    $0x800,%eax
   120ff:	25 00 fe ff ff       	and    $0xfffffe00,%eax
   12104:	89 45 dc             	mov    %eax,0xffffffdc(%ebp)
   12107:	8b 45 dc             	mov    0xffffffdc(%ebp),%eax
   1210a:	c7 44 24 0c 01 00 00 	movl   $0x1,0xc(%esp)
   12111:	00 
   12112:	89 44 24 08          	mov    %eax,0x8(%esp)
   12116:	c7 44 24 04 a0 ab 02 	movl   $0x2aba0,0x4(%esp)
   1211d:	00 
   1211e:	c7 04 24 1a 03 00 00 	movl   $0x31a,(%esp)
   12125:	e8 5b 18 00 00       	call   0x13985
   1212a:	c7 45 e0 a0 ab 02 00 	movl   $0x2aba0,0xffffffe0(%ebp)
   12131:	8b 45 c8             	mov    0xffffffc8(%ebp),%eax
   12134:	83 e0 0f             	and    $0xf,%eax
   12137:	c1 e0 05             	shl    $0x5,%eax
   1213a:	01 45 e0             	add    %eax,0xffffffe0(%ebp)
   1213d:	8b 45 e0             	mov    0xffffffe0(%ebp),%eax
   12140:	c7 00 04 00 00 00    	movl   $0x4,(%eax)
   12146:	8b 45 e0             	mov    0xffffffe0(%ebp),%eax
   12149:	c7 40 04 00 90 01 00 	movl   $0x19000,0x4(%eax)
   12150:	8b 55 cc             	mov    0xffffffcc(%ebp),%edx
   12153:	8b 45 e0             	mov    0xffffffe0(%ebp),%eax
   12156:	89 50 08             	mov    %edx,0x8(%eax)
   12159:	8b 45 e0             	mov    0xffffffe0(%ebp),%eax
   1215c:	c7 40 0c c8 00 00 00 	movl   $0xc8,0xc(%eax)
   12163:	c7 44 24 0c c8 00 00 	movl   $0xc8,0xc(%esp)
   1216a:	00 
   1216b:	8b 45 cc             	mov    0xffffffcc(%ebp),%eax
   1216e:	89 44 24 08          	mov    %eax,0x8(%esp)
   12172:	8b 45 08             	mov    0x8(%ebp),%eax
   12175:	89 44 24 04          	mov    %eax,0x4(%esp)
   12179:	c7 04 24 a8 b0 01 00 	movl   $0x1b0a8,(%esp)
   12180:	e8 c7 8b 00 00       	call   0x1ad4c
   12185:	8b 45 dc             	mov    0xffffffdc(%ebp),%eax
   12188:	c7 44 24 0c 01 00 00 	movl   $0x1,0xc(%esp)
   1218f:	00 
   12190:	89 44 24 08          	mov    %eax,0x8(%esp)
   12194:	c7 44 24 04 a0 ab 02 	movl   $0x2aba0,0x4(%esp)
   1219b:	00 
   1219c:	c7 04 24 1a 03 00 00 	movl   $0x31a,(%esp)
   121a3:	e8 62 18 00 00       	call   0x13a0a
   121a8:	c7 45 e8 00 00 00 00 	movl   $0x0,0xffffffe8(%ebp)
   121af:	c7 45 ec 00 00 00 00 	movl   $0x0,0xffffffec(%ebp)
   121b6:	c7 45 d0 00 00 00 00 	movl   $0x0,0xffffffd0(%ebp)
   121bd:	e9 e8 00 00 00       	jmp    0x122aa
   121c2:	8b 15 0c f4 01 00    	mov    0x1f40c,%edx
   121c8:	c7 44 24 0c 00 02 00 	movl   $0x200,0xc(%esp)
   121cf:	00 
   121d0:	8b 45 e8             	mov    0xffffffe8(%ebp),%eax
   121d3:	89 44 24 08          	mov    %eax,0x8(%esp)
   121d7:	89 54 24 04          	mov    %edx,0x4(%esp)
   121db:	c7 04 24 a0 ab 02 00 	movl   $0x2aba0,(%esp)
   121e2:	e8 b7 08 00 00       	call   0x12a9e
   121e7:	c7 45 d4 00 00 00 00 	movl   $0x0,0xffffffd4(%ebp)
   121ee:	c7 45 e4 a0 ab 02 00 	movl   $0x2aba0,0xffffffe4(%ebp)
   121f5:	e9 90 00 00 00       	jmp    0x1228a
   121fa:	8b 45 e4             	mov    0xffffffe4(%ebp),%eax
   121fd:	8b 00                	mov    (%eax),%eax
   121ff:	85 c0                	test   %eax,%eax
   12201:	75 7f                	jne    0x12282
   12203:	83 7d d0 00          	cmpl   $0x0,0xffffffd0(%ebp)
   12207:	75 06                	jne    0x1220f
   12209:	83 7d d4 00          	cmpl   $0x0,0xffffffd4(%ebp)
   1220d:	74 73                	je     0x12282
   1220f:	8b 45 d4             	mov    0xffffffd4(%ebp),%eax
   12212:	01 45 ec             	add    %eax,0xffffffec(%ebp)
   12215:	8b 45 c8             	mov    0xffffffc8(%ebp),%eax
   12218:	89 45 b8             	mov    %eax,0xffffffb8(%ebp)
   1221b:	8d 45 b8             	lea    0xffffffb8(%ebp),%eax
   1221e:	8d 78 04             	lea    0x4(%eax),%edi
   12221:	8b 75 08             	mov    0x8(%ebp),%esi
   12224:	b9 0c 00 00 00       	mov    $0xc,%ecx
   12229:	f3 a4                	rep movsb %ds:(%esi),%es:(%edi)
   1222b:	8b 45 ec             	mov    0xffffffec(%ebp),%eax
   1222e:	c1 e0 04             	shl    $0x4,%eax
   12231:	8b 15 0c f4 01 00    	mov    0x1f40c,%edx
   12237:	c7 44 24 0c 10 00 00 	movl   $0x10,0xc(%esp)
   1223e:	00 
   1223f:	89 44 24 08          	mov    %eax,0x8(%esp)
   12243:	89 54 24 04          	mov    %edx,0x4(%esp)
   12247:	8d 45 b8             	lea    0xffffffb8(%ebp),%eax
   1224a:	89 04 24             	mov    %eax,(%esp)
   1224d:	e8 92 05 00 00       	call   0x127e4
   12252:	a1 0c f4 01 00       	mov    0x1f40c,%eax
   12257:	c7 44 24 04 00 00 00 	movl   $0x0,0x4(%esp)
   1225e:	00 
   1225f:	89 04 24             	mov    %eax,(%esp)
   12262:	e8 6d eb ff ff       	call   0x10dd4
   12267:	8b 45 08             	mov    0x8(%ebp),%eax
   1226a:	89 44 24 04          	mov    %eax,0x4(%esp)
   1226e:	c7 04 24 d0 b0 01 00 	movl   $0x1b0d0,(%esp)
   12275:	e8 d2 8a 00 00       	call   0x1ad4c
   1227a:	8b 45 c8             	mov    0xffffffc8(%ebp),%eax
   1227d:	89 45 b0             	mov    %eax,0xffffffb0(%ebp)
   12280:	eb 45                	jmp    0x122c7
   12282:	83 45 d4 01          	addl   $0x1,0xffffffd4(%ebp)
   12286:	83 45 e4 10          	addl   $0x10,0xffffffe4(%ebp)
   1228a:	8b 45 d4             	mov    0xffffffd4(%ebp),%eax
   1228d:	83 f8 1f             	cmp    $0x1f,%eax
   12290:	0f 86 64 ff ff ff    	jbe    0x121fa
   12296:	8b 45 ec             	mov    0xffffffec(%ebp),%eax
   12299:	83 c0 20             	add    $0x20,%eax
   1229c:	89 45 ec             	mov    %eax,0xffffffec(%ebp)
   1229f:	83 45 d0 01          	addl   $0x1,0xffffffd0(%ebp)
   122a3:	81 45 e8 00 02 00 00 	addl   $0x200,0xffffffe8(%ebp)
   122aa:	83 7d d0 00          	cmpl   $0x0,0xffffffd0(%ebp)
   122ae:	0f 84 0e ff ff ff    	je     0x121c2
   122b4:	c7 04 24 e9 b0 01 00 	movl   $0x1b0e9,(%esp)
   122bb:	e8 8c 8a 00 00       	call   0x1ad4c
   122c0:	c7 45 b0 00 00 00 00 	movl   $0x0,0xffffffb0(%ebp)
   122c7:	8b 45 b0             	mov    0xffffffb0(%ebp),%eax
   122ca:	83 c4 5c             	add    $0x5c,%esp
   122cd:	5b                   	pop    %ebx
   122ce:	5e                   	pop    %esi
   122cf:	5f                   	pop    %edi
   122d0:	5d                   	pop    %ebp
   122d1:	c3                   	ret    
   122d2:	55                   	push   %ebp
   122d3:	89 e5                	mov    %esp,%ebp
   122d5:	83 ec 78             	sub    $0x78,%esp
   122d8:	8b 45 10             	mov    0x10(%ebp),%eax
   122db:	8b 50 48             	mov    0x48(%eax),%edx
   122de:	8b 45 08             	mov    0x8(%ebp),%eax
   122e1:	89 44 24 04          	mov    %eax,0x4(%esp)
   122e5:	89 14 24             	mov    %edx,(%esp)
   122e8:	e8 e9 89 00 00       	call   0x1acd6
   122ed:	89 45 08             	mov    %eax,0x8(%ebp)
   122f0:	c7 45 ec 00 00 00 00 	movl   $0x0,0xffffffec(%ebp)
   122f7:	c7 45 e4 00 00 00 00 	movl   $0x0,0xffffffe4(%ebp)
   122fe:	c7 45 d4 00 00 00 00 	movl   $0x0,0xffffffd4(%ebp)
   12305:	eb 79                	jmp    0x12380
   12307:	8b 15 0c f4 01 00    	mov    0x1f40c,%edx
   1230d:	c7 44 24 0c 00 02 00 	movl   $0x200,0xc(%esp)
   12314:	00 
   12315:	8b 45 ec             	mov    0xffffffec(%ebp),%eax
   12318:	89 44 24 08          	mov    %eax,0x8(%esp)
   1231c:	89 54 24 04          	mov    %edx,0x4(%esp)
   12320:	c7 04 24 a0 ab 02 00 	movl   $0x2aba0,(%esp)
   12327:	e8 72 07 00 00       	call   0x12a9e
   1232c:	c7 45 e8 00 00 00 00 	movl   $0x0,0xffffffe8(%ebp)
   12333:	c7 45 e0 a0 ab 02 00 	movl   $0x2aba0,0xffffffe0(%ebp)
   1233a:	eb 2b                	jmp    0x12367
   1233c:	8b 45 e0             	mov    0xffffffe0(%ebp),%eax
   1233f:	83 c0 04             	add    $0x4,%eax
   12342:	8b 55 08             	mov    0x8(%ebp),%edx
   12345:	89 54 24 04          	mov    %edx,0x4(%esp)
   12349:	89 04 24             	mov    %eax,(%esp)
   1234c:	e8 7a 86 00 00       	call   0x1a9cb
   12351:	85 c0                	test   %eax,%eax
   12353:	75 0a                	jne    0x1235f
   12355:	8b 45 e0             	mov    0xffffffe0(%ebp),%eax
   12358:	8b 00                	mov    (%eax),%eax
   1235a:	89 45 d4             	mov    %eax,0xffffffd4(%ebp)
   1235d:	eb 10                	jmp    0x1236f
   1235f:	83 45 e8 01          	addl   $0x1,0xffffffe8(%ebp)
   12363:	83 45 e0 10          	addl   $0x10,0xffffffe0(%ebp)
   12367:	8b 45 e8             	mov    0xffffffe8(%ebp),%eax
   1236a:	83 f8 1f             	cmp    $0x1f,%eax
   1236d:	76 cd                	jbe    0x1233c
   1236f:	83 7d d4 00          	cmpl   $0x0,0xffffffd4(%ebp)
   12373:	75 11                	jne    0x12386
   12375:	83 45 e4 01          	addl   $0x1,0xffffffe4(%ebp)
   12379:	81 45 ec 00 02 00 00 	addl   $0x200,0xffffffec(%ebp)
   12380:	83 7d e4 00          	cmpl   $0x0,0xffffffe4(%ebp)
   12384:	74 81                	je     0x12307
   12386:	83 7d d4 00          	cmpl   $0x0,0xffffffd4(%ebp)
   1238a:	75 58                	jne    0x123e4
   1238c:	83 7d 0c 01          	cmpl   $0x1,0xc(%ebp)
   12390:	75 33                	jne    0x123c5
   12392:	8b 45 08             	mov    0x8(%ebp),%eax
   12395:	89 04 24             	mov    %eax,(%esp)
   12398:	e8 02 f9 ff ff       	call   0x11c9f
   1239d:	89 45 d4             	mov    %eax,0xffffffd4(%ebp)
   123a0:	83 7d d4 00          	cmpl   $0x0,0xffffffd4(%ebp)
   123a4:	75 3e                	jne    0x123e4
   123a6:	8b 45 08             	mov    0x8(%ebp),%eax
   123a9:	89 44 24 04          	mov    %eax,0x4(%esp)
   123ad:	c7 04 24 fa b0 01 00 	movl   $0x1b0fa,(%esp)
   123b4:	e8 93 89 00 00       	call   0x1ad4c
   123b9:	c7 45 9c ff ff ff ff 	movl   $0xffffffff,0xffffff9c(%ebp)
   123c0:	e9 d5 02 00 00       	jmp    0x1269a
   123c5:	8b 45 08             	mov    0x8(%ebp),%eax
   123c8:	89 44 24 04          	mov    %eax,0x4(%esp)
   123cc:	c7 04 24 11 b1 01 00 	movl   $0x1b111,(%esp)
   123d3:	e8 74 89 00 00       	call   0x1ad4c
   123d8:	c7 45 9c ff ff ff ff 	movl   $0xffffffff,0xffffff9c(%ebp)
   123df:	e9 b6 02 00 00       	jmp    0x1269a
   123e4:	c7 45 f0 1a 03 00 00 	movl   $0x31a,0xfffffff0(%ebp)
   123eb:	c7 45 f4 00 00 00 00 	movl   $0x0,0xfffffff4(%ebp)
   123f2:	c7 45 f8 00 00 00 00 	movl   $0x0,0xfffffff8(%ebp)
   123f9:	c7 45 dc 40 f4 01 00 	movl   $0x1f440,0xffffffdc(%ebp)
   12400:	eb 52                	jmp    0x12454
   12402:	8b 45 dc             	mov    0xffffffdc(%ebp),%eax
   12405:	8b 40 24             	mov    0x24(%eax),%eax
   12408:	85 c0                	test   %eax,%eax
   1240a:	75 2c                	jne    0x12438
   1240c:	83 7d f4 00          	cmpl   $0x0,0xfffffff4(%ebp)
   12410:	75 06                	jne    0x12418
   12412:	8b 45 dc             	mov    0xffffffdc(%ebp),%eax
   12415:	89 45 f4             	mov    %eax,0xfffffff4(%ebp)
   12418:	83 7d f8 00          	cmpl   $0x0,0xfffffff8(%ebp)
   1241c:	75 1a                	jne    0x12438
   1241e:	8b 45 dc             	mov    0xffffffdc(%ebp),%eax
   12421:	8b 40 20             	mov    0x20(%eax),%eax
   12424:	85 c0                	test   %eax,%eax
   12426:	75 10                	jne    0x12438
   12428:	8b 45 dc             	mov    0xffffffdc(%ebp),%eax
   1242b:	8b 40 28             	mov    0x28(%eax),%eax
   1242e:	85 c0                	test   %eax,%eax
   12430:	75 06                	jne    0x12438
   12432:	8b 45 dc             	mov    0xffffffdc(%ebp),%eax
   12435:	89 45 f8             	mov    %eax,0xfffffff8(%ebp)
   12438:	8b 45 dc             	mov    0xffffffdc(%ebp),%eax
   1243b:	8b 40 20             	mov    0x20(%eax),%eax
   1243e:	3b 45 f0             	cmp    0xfffffff0(%ebp),%eax
   12441:	75 0d                	jne    0x12450
   12443:	8b 45 dc             	mov    0xffffffdc(%ebp),%eax
   12446:	8b 40 28             	mov    0x28(%eax),%eax
   12449:	3b 45 d4             	cmp    0xffffffd4(%ebp),%eax
   1244c:	75 02                	jne    0x12450
   1244e:	eb 0e                	jmp    0x1245e
   12450:	83 45 dc 2c          	addl   $0x2c,0xffffffdc(%ebp)
   12454:	b8 40 ff 01 00       	mov    $0x1ff40,%eax
   12459:	39 45 dc             	cmp    %eax,0xffffffdc(%ebp)
   1245c:	72 a4                	jb     0x12402
   1245e:	c7 45 fc 00 00 00 00 	movl   $0x0,0xfffffffc(%ebp)
   12465:	b8 40 ff 01 00       	mov    $0x1ff40,%eax
   1246a:	39 45 dc             	cmp    %eax,0xffffffdc(%ebp)
   1246d:	72 40                	jb     0x124af
   1246f:	83 7d f8 00          	cmpl   $0x0,0xfffffff8(%ebp)
   12473:	74 08                	je     0x1247d
   12475:	8b 45 f8             	mov    0xfffffff8(%ebp),%eax
   12478:	89 45 dc             	mov    %eax,0xffffffdc(%ebp)
   1247b:	eb 2b                	jmp    0x124a8
   1247d:	83 7d f4 00          	cmpl   $0x0,0xfffffff4(%ebp)
   12481:	75 1f                	jne    0x124a2
   12483:	8b 45 08             	mov    0x8(%ebp),%eax
   12486:	89 44 24 04          	mov    %eax,0x4(%esp)
   1248a:	c7 04 24 1f b1 01 00 	movl   $0x1b11f,(%esp)
   12491:	e8 b6 88 00 00       	call   0x1ad4c
   12496:	c7 45 9c ff ff ff ff 	movl   $0xffffffff,0xffffff9c(%ebp)
   1249d:	e9 f8 01 00 00       	jmp    0x1269a
   124a2:	8b 45 f4             	mov    0xfffffff4(%ebp),%eax
   124a5:	89 45 dc             	mov    %eax,0xffffffdc(%ebp)
   124a8:	c7 45 fc 01 00 00 00 	movl   $0x1,0xfffffffc(%ebp)
   124af:	c7 45 d8 e0 49 04 00 	movl   $0x449e0,0xffffffd8(%ebp)
   124b6:	eb 0e                	jmp    0x124c6
   124b8:	8b 45 d8             	mov    0xffffffd8(%ebp),%eax
   124bb:	8b 40 08             	mov    0x8(%eax),%eax
   124be:	85 c0                	test   %eax,%eax
   124c0:	74 0e                	je     0x124d0
   124c2:	83 45 d8 0c          	addl   $0xc,0xffffffd8(%ebp)
   124c6:	b8 e0 79 04 00       	mov    $0x479e0,%eax
   124cb:	39 45 d8             	cmp    %eax,0xffffffd8(%ebp)
   124ce:	72 e8                	jb     0x124b8
   124d0:	b8 e0 79 04 00       	mov    $0x479e0,%eax
   124d5:	39 45 d8             	cmp    %eax,0xffffffd8(%ebp)
   124d8:	72 1f                	jb     0x124f9
   124da:	8b 45 08             	mov    0x8(%ebp),%eax
   124dd:	89 44 24 04          	mov    %eax,0x4(%esp)
   124e1:	c7 04 24 39 b1 01 00 	movl   $0x1b139,(%esp)
   124e8:	e8 5f 88 00 00       	call   0x1ad4c
   124ed:	c7 45 9c ff ff ff ff 	movl   $0xffffffff,0xffffff9c(%ebp)
   124f4:	e9 a1 01 00 00       	jmp    0x1269a
   124f9:	c7 45 e4 00 00 00 00 	movl   $0x0,0xffffffe4(%ebp)
   12500:	eb 12                	jmp    0x12514
   12502:	8b 45 e4             	mov    0xffffffe4(%ebp),%eax
   12505:	8b 55 10             	mov    0x10(%ebp),%edx
   12508:	8b 44 82 70          	mov    0x70(%edx,%eax,4),%eax
   1250c:	85 c0                	test   %eax,%eax
   1250e:	74 0a                	je     0x1251a
   12510:	83 45 e4 01          	addl   $0x1,0xffffffe4(%ebp)
   12514:	83 7d e4 1f          	cmpl   $0x1f,0xffffffe4(%ebp)
   12518:	7e e8                	jle    0x12502
   1251a:	83 7d e4 1f          	cmpl   $0x1f,0xffffffe4(%ebp)
   1251e:	7e 1f                	jle    0x1253f
   12520:	8b 45 08             	mov    0x8(%ebp),%eax
   12523:	89 44 24 04          	mov    %eax,0x4(%esp)
   12527:	c7 04 24 52 b1 01 00 	movl   $0x1b152,(%esp)
   1252e:	e8 19 88 00 00       	call   0x1ad4c
   12533:	c7 45 9c ff ff ff ff 	movl   $0xffffffff,0xffffff9c(%ebp)
   1253a:	e9 5b 01 00 00       	jmp    0x1269a
   1253f:	8b 4d e4             	mov    0xffffffe4(%ebp),%ecx
   12542:	8b 55 10             	mov    0x10(%ebp),%edx
   12545:	8b 45 d8             	mov    0xffffffd8(%ebp),%eax
   12548:	89 44 8a 70          	mov    %eax,0x70(%edx,%ecx,4)
   1254c:	8b 45 d8             	mov    0xffffffd8(%ebp),%eax
   1254f:	c7 00 01 00 00 00    	movl   $0x1,(%eax)
   12555:	8b 45 d8             	mov    0xffffffd8(%ebp),%eax
   12558:	c7 40 04 00 00 00 00 	movl   $0x0,0x4(%eax)
   1255f:	8b 55 d8             	mov    0xffffffd8(%ebp),%edx
   12562:	8b 45 dc             	mov    0xffffffdc(%ebp),%eax
   12565:	89 42 08             	mov    %eax,0x8(%edx)
   12568:	8b 45 dc             	mov    0xffffffdc(%ebp),%eax
   1256b:	8b 40 24             	mov    0x24(%eax),%eax
   1256e:	8d 50 01             	lea    0x1(%eax),%edx
   12571:	8b 45 dc             	mov    0xffffffdc(%ebp),%eax
   12574:	89 50 24             	mov    %edx,0x24(%eax)
   12577:	83 7d fc 01          	cmpl   $0x1,0xfffffffc(%ebp)
   1257b:	0f 85 82 00 00 00    	jne    0x12603
   12581:	8b 45 d4             	mov    0xffffffd4(%ebp),%eax
   12584:	c1 e8 04             	shr    $0x4,%eax
   12587:	c1 e0 09             	shl    $0x9,%eax
   1258a:	05 00 08 00 00       	add    $0x800,%eax
   1258f:	c7 44 24 0c 01 00 00 	movl   $0x1,0xc(%esp)
   12596:	00 
   12597:	89 44 24 08          	mov    %eax,0x8(%esp)
   1259b:	c7 44 24 04 a0 ab 02 	movl   $0x2aba0,0x4(%esp)
   125a2:	00 
   125a3:	c7 04 24 1a 03 00 00 	movl   $0x31a,(%esp)
   125aa:	e8 d6 13 00 00       	call   0x13985
   125af:	c7 45 d0 a0 ab 02 00 	movl   $0x2aba0,0xffffffd0(%ebp)
   125b6:	8b 45 d4             	mov    0xffffffd4(%ebp),%eax
   125b9:	83 e0 0f             	and    $0xf,%eax
   125bc:	c1 e0 05             	shl    $0x5,%eax
   125bf:	01 45 d0             	add    %eax,0xffffffd0(%ebp)
   125c2:	8b 45 d0             	mov    0xffffffd0(%ebp),%eax
   125c5:	8b 10                	mov    (%eax),%edx
   125c7:	8b 45 dc             	mov    0xffffffdc(%ebp),%eax
   125ca:	89 10                	mov    %edx,(%eax)
   125cc:	8b 45 d0             	mov    0xffffffd0(%ebp),%eax
   125cf:	8b 50 04             	mov    0x4(%eax),%edx
   125d2:	8b 45 dc             	mov    0xffffffdc(%ebp),%eax
   125d5:	89 50 04             	mov    %edx,0x4(%eax)
   125d8:	8b 45 d0             	mov    0xffffffd0(%ebp),%eax
   125db:	8b 50 08             	mov    0x8(%eax),%edx
   125de:	8b 45 dc             	mov    0xffffffdc(%ebp),%eax
   125e1:	89 50 08             	mov    %edx,0x8(%eax)
   125e4:	8b 45 d0             	mov    0xffffffd0(%ebp),%eax
   125e7:	8b 50 0c             	mov    0xc(%eax),%edx
   125ea:	8b 45 dc             	mov    0xffffffdc(%ebp),%eax
   125ed:	89 50 0c             	mov    %edx,0xc(%eax)
   125f0:	8b 45 dc             	mov    0xffffffdc(%ebp),%eax
   125f3:	c7 40 20 1a 03 00 00 	movl   $0x31a,0x20(%eax)
   125fa:	8b 55 dc             	mov    0xffffffdc(%ebp),%edx
   125fd:	8b 45 d4             	mov    0xffffffd4(%ebp),%eax
   12600:	89 42 28             	mov    %eax,0x28(%edx)
   12603:	8b 45 dc             	mov    0xffffffdc(%ebp),%eax
   12606:	8b 00                	mov    (%eax),%eax
   12608:	83 f8 02             	cmp    $0x2,%eax
   1260b:	0f 85 83 00 00 00    	jne    0x12694
   12611:	c7 45 b0 fe ff ff ff 	movl   $0xfffffffe,0xffffffb0(%ebp)
   12618:	c7 45 b4 00 00 00 00 	movl   $0x0,0xffffffb4(%ebp)
   1261f:	8b 45 dc             	mov    0xffffffdc(%ebp),%eax
   12622:	8b 40 08             	mov    0x8(%eax),%eax
   12625:	25 ff 00 00 00       	and    $0xff,%eax
   1262a:	89 45 b8             	mov    %eax,0xffffffb8(%ebp)
   1262d:	e8 a8 80 00 00       	call   0x1a6da
   12632:	a1 6c e6 06 00       	mov    0x6e66c,%eax
   12637:	85 c0                	test   %eax,%eax
   12639:	75 54                	jne    0x1268f
   1263b:	8b 45 dc             	mov    0xffffffdc(%ebp),%eax
   1263e:	8b 40 08             	mov    0x8(%eax),%eax
   12641:	c1 e8 08             	shr    $0x8,%eax
   12644:	25 ff 00 00 00       	and    $0xff,%eax
   12649:	8b 14 85 28 c6 01 00 	mov    0x1c628(,%eax,4),%edx
   12650:	8d 45 a8             	lea    0xffffffa8(%ebp),%eax
   12653:	89 44 24 08          	mov    %eax,0x8(%esp)
   12657:	89 54 24 04          	mov    %edx,0x4(%esp)
   1265b:	c7 04 24 02 00 00 00 	movl   $0x2,(%esp)
   12662:	e8 89 75 00 00       	call   0x19bf0
   12667:	85 c0                	test   %eax,%eax
   12669:	74 24                	je     0x1268f
   1266b:	c7 44 24 0c 17 02 00 	movl   $0x217,0xc(%esp)
   12672:	00 
   12673:	c7 44 24 08 38 af 01 	movl   $0x1af38,0x8(%esp)
   1267a:	00 
   1267b:	c7 44 24 04 38 af 01 	movl   $0x1af38,0x4(%esp)
   12682:	00 
   12683:	c7 04 24 68 b1 01 00 	movl   $0x1b168,(%esp)
   1268a:	e8 99 75 00 00       	call   0x19c28
   1268f:	e8 3c 80 00 00       	call   0x1a6d0
   12694:	8b 45 e4             	mov    0xffffffe4(%ebp),%eax
   12697:	89 45 9c             	mov    %eax,0xffffff9c(%ebp)
   1269a:	8b 45 9c             	mov    0xffffff9c(%ebp),%eax
   1269d:	c9                   	leave  
   1269e:	c3                   	ret    
   1269f:	55                   	push   %ebp
   126a0:	89 e5                	mov    %esp,%ebp
   126a2:	83 ec 58             	sub    $0x58,%esp
   126a5:	8b 45 18             	mov    0x18(%ebp),%eax
   126a8:	8b 50 48             	mov    0x48(%eax),%edx
   126ab:	8b 45 0c             	mov    0xc(%ebp),%eax
   126ae:	89 44 24 04          	mov    %eax,0x4(%esp)
   126b2:	89 14 24             	mov    %edx,(%esp)
   126b5:	e8 1c 86 00 00       	call   0x1acd6
   126ba:	89 45 0c             	mov    %eax,0xc(%ebp)
   126bd:	8b 55 08             	mov    0x8(%ebp),%edx
   126c0:	8b 45 18             	mov    0x18(%ebp),%eax
   126c3:	8b 44 90 70          	mov    0x70(%eax,%edx,4),%eax
   126c7:	89 45 f4             	mov    %eax,0xfffffff4(%ebp)
   126ca:	8b 45 f4             	mov    0xfffffff4(%ebp),%eax
   126cd:	8b 40 08             	mov    0x8(%eax),%eax
   126d0:	89 45 f8             	mov    %eax,0xfffffff8(%ebp)
   126d3:	8b 45 f8             	mov    0xfffffff8(%ebp),%eax
   126d6:	8b 00                	mov    (%eax),%eax
   126d8:	83 f8 02             	cmp    $0x2,%eax
   126db:	0f 85 8c 00 00 00    	jne    0x1276d
   126e1:	c7 45 d4 fe ff ff ff 	movl   $0xfffffffe,0xffffffd4(%ebp)
   126e8:	c7 45 d8 03 00 00 00 	movl   $0x3,0xffffffd8(%ebp)
   126ef:	8b 45 f8             	mov    0xfffffff8(%ebp),%eax
   126f2:	8b 40 08             	mov    0x8(%eax),%eax
   126f5:	25 ff 00 00 00       	and    $0xff,%eax
   126fa:	89 45 dc             	mov    %eax,0xffffffdc(%ebp)
   126fd:	8b 45 0c             	mov    0xc(%ebp),%eax
   12700:	89 45 e8             	mov    %eax,0xffffffe8(%ebp)
   12703:	8b 45 14             	mov    0x14(%ebp),%eax
   12706:	89 45 ec             	mov    %eax,0xffffffec(%ebp)
   12709:	e8 cc 7f 00 00       	call   0x1a6da
   1270e:	a1 6c e6 06 00       	mov    0x6e66c,%eax
   12713:	85 c0                	test   %eax,%eax
   12715:	75 48                	jne    0x1275f
   12717:	8b 45 f8             	mov    0xfffffff8(%ebp),%eax
   1271a:	8b 40 08             	mov    0x8(%eax),%eax
   1271d:	c1 e8 08             	shr    $0x8,%eax
   12720:	25 ff 00 00 00       	and    $0xff,%eax
   12725:	8b 14 85 28 c6 01 00 	mov    0x1c628(,%eax,4),%edx
   1272c:	8d 45 cc             	lea    0xffffffcc(%ebp),%eax
   1272f:	89 44 24 08          	mov    %eax,0x8(%esp)
   12733:	89 54 24 04          	mov    %edx,0x4(%esp)
   12737:	c7 04 24 02 00 00 00 	movl   $0x2,(%esp)
   1273e:	e8 ad 74 00 00       	call   0x19bf0
   12743:	83 f8 ff             	cmp    $0xffffffff,%eax
   12746:	75 07                	jne    0x1274f
   12748:	c7 45 ec ff ff ff ff 	movl   $0xffffffff,0xffffffec(%ebp)
   1274f:	e8 7c 7f 00 00       	call   0x1a6d0
   12754:	8b 45 ec             	mov    0xffffffec(%ebp),%eax
   12757:	89 45 bc             	mov    %eax,0xffffffbc(%ebp)
   1275a:	e9 80 00 00 00       	jmp    0x127df
   1275f:	e8 6c 7f 00 00       	call   0x1a6d0
   12764:	c7 45 bc ff ff ff ff 	movl   $0xffffffff,0xffffffbc(%ebp)
   1276b:	eb 72                	jmp    0x127df
   1276d:	8b 45 f4             	mov    0xfffffff4(%ebp),%eax
   12770:	8b 40 04             	mov    0x4(%eax),%eax
   12773:	89 c2                	mov    %eax,%edx
   12775:	03 55 10             	add    0x10(%ebp),%edx
   12778:	8b 45 f4             	mov    0xfffffff4(%ebp),%eax
   1277b:	8b 48 08             	mov    0x8(%eax),%ecx
   1277e:	8b 45 14             	mov    0x14(%ebp),%eax
   12781:	89 44 24 0c          	mov    %eax,0xc(%esp)
   12785:	89 54 24 08          	mov    %edx,0x8(%esp)
   12789:	89 4c 24 04          	mov    %ecx,0x4(%esp)
   1278d:	8b 45 0c             	mov    0xc(%ebp),%eax
   12790:	89 04 24             	mov    %eax,(%esp)
   12793:	e8 4c 00 00 00       	call   0x127e4
   12798:	89 45 fc             	mov    %eax,0xfffffffc(%ebp)
   1279b:	83 7d fc ff          	cmpl   $0xffffffff,0xfffffffc(%ebp)
   1279f:	75 24                	jne    0x127c5
   127a1:	c7 44 24 0c 4a 02 00 	movl   $0x24a,0xc(%esp)
   127a8:	00 
   127a9:	c7 44 24 08 38 af 01 	movl   $0x1af38,0x8(%esp)
   127b0:	00 
   127b1:	c7 44 24 04 38 af 01 	movl   $0x1af38,0x4(%esp)
   127b8:	00 
   127b9:	c7 04 24 a6 b1 01 00 	movl   $0x1b1a6,(%esp)
   127c0:	e8 63 74 00 00       	call   0x19c28
   127c5:	8b 45 f4             	mov    0xfffffff4(%ebp),%eax
   127c8:	8b 50 04             	mov    0x4(%eax),%edx
   127cb:	8b 45 fc             	mov    0xfffffffc(%ebp),%eax
   127ce:	03 45 10             	add    0x10(%ebp),%eax
   127d1:	01 c2                	add    %eax,%edx
   127d3:	8b 45 f4             	mov    0xfffffff4(%ebp),%eax
   127d6:	89 50 04             	mov    %edx,0x4(%eax)
   127d9:	8b 45 fc             	mov    0xfffffffc(%ebp),%eax
   127dc:	89 45 bc             	mov    %eax,0xffffffbc(%ebp)
   127df:	8b 45 bc             	mov    0xffffffbc(%ebp),%eax
   127e2:	c9                   	leave  
   127e3:	c3                   	ret    
   127e4:	55                   	push   %ebp
   127e5:	89 e5                	mov    %esp,%ebp
   127e7:	57                   	push   %edi
   127e8:	56                   	push   %esi
   127e9:	83 ec 30             	sub    $0x30,%esp
   127ec:	83 7d 10 00          	cmpl   $0x0,0x10(%ebp)
   127f0:	78 09                	js     0x127fb
   127f2:	81 7d 10 ff 8f 01 00 	cmpl   $0x18fff,0x10(%ebp)
   127f9:	7e 1f                	jle    0x1281a
   127fb:	8b 45 10             	mov    0x10(%ebp),%eax
   127fe:	89 44 24 04          	mov    %eax,0x4(%esp)
   12802:	c7 04 24 b0 b1 01 00 	movl   $0x1b1b0,(%esp)
   12809:	e8 3e 85 00 00       	call   0x1ad4c
   1280e:	c7 45 d4 ff ff ff ff 	movl   $0xffffffff,0xffffffd4(%ebp)
   12815:	e9 11 01 00 00       	jmp    0x1292b
   1281a:	8b 55 10             	mov    0x10(%ebp),%edx
   1281d:	89 d0                	mov    %edx,%eax
   1281f:	c1 f8 1f             	sar    $0x1f,%eax
   12822:	89 c1                	mov    %eax,%ecx
   12824:	c1 e9 14             	shr    $0x14,%ecx
   12827:	8d 04 0a             	lea    (%edx,%ecx,1),%eax
   1282a:	25 ff 0f 00 00       	and    $0xfff,%eax
   1282f:	29 c8                	sub    %ecx,%eax
   12831:	89 45 e0             	mov    %eax,0xffffffe0(%ebp)
   12834:	c7 45 e4 00 00 00 00 	movl   $0x0,0xffffffe4(%ebp)
   1283b:	c7 45 e8 00 00 00 00 	movl   $0x0,0xffffffe8(%ebp)
   12842:	e9 d3 00 00 00       	jmp    0x1291a
   12847:	8b 45 10             	mov    0x10(%ebp),%eax
   1284a:	89 44 24 04          	mov    %eax,0x4(%esp)
   1284e:	8b 45 0c             	mov    0xc(%ebp),%eax
   12851:	89 04 24             	mov    %eax,(%esp)
   12854:	e8 75 e2 ff ff       	call   0x10ace
   12859:	89 45 ec             	mov    %eax,0xffffffec(%ebp)
   1285c:	83 7d ec 00          	cmpl   $0x0,0xffffffec(%ebp)
   12860:	75 32                	jne    0x12894
   12862:	8b 45 10             	mov    0x10(%ebp),%eax
   12865:	89 44 24 04          	mov    %eax,0x4(%esp)
   12869:	8b 45 0c             	mov    0xc(%ebp),%eax
   1286c:	89 04 24             	mov    %eax,(%esp)
   1286f:	e8 cf e2 ff ff       	call   0x10b43
   12874:	89 45 ec             	mov    %eax,0xffffffec(%ebp)
   12877:	83 7d ec 00          	cmpl   $0x0,0xffffffec(%ebp)
   1287b:	75 0c                	jne    0x12889
   1287d:	c7 45 d4 ff ff ff ff 	movl   $0xffffffff,0xffffffd4(%ebp)
   12884:	e9 a2 00 00 00       	jmp    0x1292b
   12889:	8b 45 ec             	mov    0xffffffec(%ebp),%eax
   1288c:	89 04 24             	mov    %eax,(%esp)
   1288f:	e8 9c e8 ff ff       	call   0x11130
   12894:	8b 45 ec             	mov    0xffffffec(%ebp),%eax
   12897:	8b 00                	mov    (%eax),%eax
   12899:	89 45 f0             	mov    %eax,0xfffffff0(%ebp)
   1289c:	b8 00 10 00 00       	mov    $0x1000,%eax
   128a1:	2b 45 e0             	sub    0xffffffe0(%ebp),%eax
   128a4:	89 45 f4             	mov    %eax,0xfffffff4(%ebp)
   128a7:	8b 45 f4             	mov    0xfffffff4(%ebp),%eax
   128aa:	3b 45 14             	cmp    0x14(%ebp),%eax
   128ad:	7c 2d                	jl     0x128dc
   128af:	8b 45 e0             	mov    0xffffffe0(%ebp),%eax
   128b2:	89 c7                	mov    %eax,%edi
   128b4:	03 7d f0             	add    0xfffffff0(%ebp),%edi
   128b7:	8b 45 e4             	mov    0xffffffe4(%ebp),%eax
   128ba:	89 c6                	mov    %eax,%esi
   128bc:	03 75 08             	add    0x8(%ebp),%esi
   128bf:	8b 4d 14             	mov    0x14(%ebp),%ecx
   128c2:	f3 a4                	rep movsb %ds:(%esi),%es:(%edi)
   128c4:	8b 45 14             	mov    0x14(%ebp),%eax
   128c7:	01 45 e8             	add    %eax,0xffffffe8(%ebp)
   128ca:	8b 45 ec             	mov    0xffffffec(%ebp),%eax
   128cd:	c7 40 14 01 00 00 00 	movl   $0x1,0x14(%eax)
   128d4:	8b 45 e8             	mov    0xffffffe8(%ebp),%eax
   128d7:	89 45 d4             	mov    %eax,0xffffffd4(%ebp)
   128da:	eb 4f                	jmp    0x1292b
   128dc:	8b 45 e0             	mov    0xffffffe0(%ebp),%eax
   128df:	89 c7                	mov    %eax,%edi
   128e1:	03 7d f0             	add    0xfffffff0(%ebp),%edi
   128e4:	8b 45 e4             	mov    0xffffffe4(%ebp),%eax
   128e7:	89 c6                	mov    %eax,%esi
   128e9:	03 75 08             	add    0x8(%ebp),%esi
   128ec:	8b 4d f4             	mov    0xfffffff4(%ebp),%ecx
   128ef:	f3 a4                	rep movsb %ds:(%esi),%es:(%edi)
   128f1:	c7 45 e0 00 00 00 00 	movl   $0x0,0xffffffe0(%ebp)
   128f8:	8b 45 f4             	mov    0xfffffff4(%ebp),%eax
   128fb:	01 45 e4             	add    %eax,0xffffffe4(%ebp)
   128fe:	8b 45 f4             	mov    0xfffffff4(%ebp),%eax
   12901:	29 45 14             	sub    %eax,0x14(%ebp)
   12904:	8b 45 f4             	mov    0xfffffff4(%ebp),%eax
   12907:	01 45 e8             	add    %eax,0xffffffe8(%ebp)
   1290a:	8b 45 f4             	mov    0xfffffff4(%ebp),%eax
   1290d:	01 45 10             	add    %eax,0x10(%ebp)
   12910:	8b 45 ec             	mov    0xffffffec(%ebp),%eax
   12913:	c7 40 14 01 00 00 00 	movl   $0x1,0x14(%eax)
   1291a:	83 7d 14 00          	cmpl   $0x0,0x14(%ebp)
   1291e:	0f 8f 23 ff ff ff    	jg     0x12847
   12924:	c7 45 d4 00 00 00 00 	movl   $0x0,0xffffffd4(%ebp)
   1292b:	8b 45 d4             	mov    0xffffffd4(%ebp),%eax
   1292e:	83 c4 30             	add    $0x30,%esp
   12931:	5e                   	pop    %esi
   12932:	5f                   	pop    %edi
   12933:	5d                   	pop    %ebp
   12934:	c3                   	ret    
   12935:	55                   	push   %ebp
   12936:	89 e5                	mov    %esp,%ebp
   12938:	83 ec 58             	sub    $0x58,%esp
   1293b:	8b 45 18             	mov    0x18(%ebp),%eax
   1293e:	8b 50 48             	mov    0x48(%eax),%edx
   12941:	8b 45 0c             	mov    0xc(%ebp),%eax
   12944:	89 44 24 04          	mov    %eax,0x4(%esp)
   12948:	89 14 24             	mov    %edx,(%esp)
   1294b:	e8 86 83 00 00       	call   0x1acd6
   12950:	89 45 0c             	mov    %eax,0xc(%ebp)
   12953:	8b 55 08             	mov    0x8(%ebp),%edx
   12956:	8b 45 18             	mov    0x18(%ebp),%eax
   12959:	8b 44 90 70          	mov    0x70(%eax,%edx,4),%eax
   1295d:	89 45 f4             	mov    %eax,0xfffffff4(%ebp)
   12960:	8b 45 f4             	mov    0xfffffff4(%ebp),%eax
   12963:	8b 40 08             	mov    0x8(%eax),%eax
   12966:	89 45 f8             	mov    %eax,0xfffffff8(%ebp)
   12969:	8b 45 f8             	mov    0xfffffff8(%ebp),%eax
   1296c:	8b 00                	mov    (%eax),%eax
   1296e:	83 f8 02             	cmp    $0x2,%eax
   12971:	0f 85 b0 00 00 00    	jne    0x12a27
   12977:	c7 45 d4 fe ff ff ff 	movl   $0xfffffffe,0xffffffd4(%ebp)
   1297e:	c7 45 d8 02 00 00 00 	movl   $0x2,0xffffffd8(%ebp)
   12985:	8b 45 f8             	mov    0xfffffff8(%ebp),%eax
   12988:	8b 40 08             	mov    0x8(%eax),%eax
   1298b:	25 ff 00 00 00       	and    $0xff,%eax
   12990:	89 45 dc             	mov    %eax,0xffffffdc(%ebp)
   12993:	c7 45 e0 03 00 00 00 	movl   $0x3,0xffffffe0(%ebp)
   1299a:	8b 55 18             	mov    0x18(%ebp),%edx
   1299d:	b8 e0 79 04 00       	mov    $0x479e0,%eax
   129a2:	89 d1                	mov    %edx,%ecx
   129a4:	29 c1                	sub    %eax,%ecx
   129a6:	89 c8                	mov    %ecx,%eax
   129a8:	c1 f8 05             	sar    $0x5,%eax
   129ab:	69 c0 39 8e e3 38    	imul   $0x38e38e39,%eax,%eax
   129b1:	89 45 e4             	mov    %eax,0xffffffe4(%ebp)
   129b4:	8b 45 0c             	mov    0xc(%ebp),%eax
   129b7:	89 45 e8             	mov    %eax,0xffffffe8(%ebp)
   129ba:	8b 45 14             	mov    0x14(%ebp),%eax
   129bd:	89 45 ec             	mov    %eax,0xffffffec(%ebp)
   129c0:	e8 15 7d 00 00       	call   0x1a6da
   129c5:	a1 6c e6 06 00       	mov    0x6e66c,%eax
   129ca:	85 c0                	test   %eax,%eax
   129cc:	75 4b                	jne    0x12a19
   129ce:	8b 45 f8             	mov    0xfffffff8(%ebp),%eax
   129d1:	8b 40 08             	mov    0x8(%eax),%eax
   129d4:	c1 e8 08             	shr    $0x8,%eax
   129d7:	25 ff 00 00 00       	and    $0xff,%eax
   129dc:	8b 14 85 28 c6 01 00 	mov    0x1c628(,%eax,4),%edx
   129e3:	8d 45 cc             	lea    0xffffffcc(%ebp),%eax
   129e6:	89 44 24 08          	mov    %eax,0x8(%esp)
   129ea:	89 54 24 04          	mov    %edx,0x4(%esp)
   129ee:	c7 04 24 00 00 00 00 	movl   $0x0,(%esp)
   129f5:	e8 f6 71 00 00       	call   0x19bf0
   129fa:	85 c0                	test   %eax,%eax
   129fc:	75 1b                	jne    0x12a19
   129fe:	c7 05 10 f4 01 00 01 	movl   $0x1,0x1f410
   12a05:	00 00 00 
   12a08:	e8 c3 7c 00 00       	call   0x1a6d0
   12a0d:	c7 45 bc 00 00 00 00 	movl   $0x0,0xffffffbc(%ebp)
   12a14:	e9 80 00 00 00       	jmp    0x12a99
   12a19:	e8 b2 7c 00 00       	call   0x1a6d0
   12a1e:	c7 45 bc ff ff ff ff 	movl   $0xffffffff,0xffffffbc(%ebp)
   12a25:	eb 72                	jmp    0x12a99
   12a27:	8b 45 f4             	mov    0xfffffff4(%ebp),%eax
   12a2a:	8b 40 04             	mov    0x4(%eax),%eax
   12a2d:	89 c2                	mov    %eax,%edx
   12a2f:	03 55 10             	add    0x10(%ebp),%edx
   12a32:	8b 45 f4             	mov    0xfffffff4(%ebp),%eax
   12a35:	8b 48 08             	mov    0x8(%eax),%ecx
   12a38:	8b 45 14             	mov    0x14(%ebp),%eax
   12a3b:	89 44 24 0c          	mov    %eax,0xc(%esp)
   12a3f:	89 54 24 08          	mov    %edx,0x8(%esp)
   12a43:	89 4c 24 04          	mov    %ecx,0x4(%esp)
   12a47:	8b 45 0c             	mov    0xc(%ebp),%eax
   12a4a:	89 04 24             	mov    %eax,(%esp)
   12a4d:	e8 4c 00 00 00       	call   0x12a9e
   12a52:	89 45 fc             	mov    %eax,0xfffffffc(%ebp)
   12a55:	83 7d fc ff          	cmpl   $0xffffffff,0xfffffffc(%ebp)
   12a59:	75 24                	jne    0x12a7f
   12a5b:	c7 44 24 0c ac 02 00 	movl   $0x2ac,0xc(%esp)
   12a62:	00 
   12a63:	c7 44 24 08 38 af 01 	movl   $0x1af38,0x8(%esp)
   12a6a:	00 
   12a6b:	c7 44 24 04 38 af 01 	movl   $0x1af38,0x4(%esp)
   12a72:	00 
   12a73:	c7 04 24 a6 b1 01 00 	movl   $0x1b1a6,(%esp)
   12a7a:	e8 a9 71 00 00       	call   0x19c28
   12a7f:	8b 45 f4             	mov    0xfffffff4(%ebp),%eax
   12a82:	8b 50 04             	mov    0x4(%eax),%edx
   12a85:	8b 45 fc             	mov    0xfffffffc(%ebp),%eax
   12a88:	03 45 10             	add    0x10(%ebp),%eax
   12a8b:	01 c2                	add    %eax,%edx
   12a8d:	8b 45 f4             	mov    0xfffffff4(%ebp),%eax
   12a90:	89 50 04             	mov    %edx,0x4(%eax)
   12a93:	8b 45 fc             	mov    0xfffffffc(%ebp),%eax
   12a96:	89 45 bc             	mov    %eax,0xffffffbc(%ebp)
   12a99:	8b 45 bc             	mov    0xffffffbc(%ebp),%eax
   12a9c:	c9                   	leave  
   12a9d:	c3                   	ret    
   12a9e:	55                   	push   %ebp
   12a9f:	89 e5                	mov    %esp,%ebp
   12aa1:	57                   	push   %edi
   12aa2:	56                   	push   %esi
   12aa3:	83 ec 30             	sub    $0x30,%esp
   12aa6:	83 7d 10 00          	cmpl   $0x0,0x10(%ebp)
   12aaa:	78 09                	js     0x12ab5
   12aac:	81 7d 10 ff 8f 01 00 	cmpl   $0x18fff,0x10(%ebp)
   12ab3:	7e 1f                	jle    0x12ad4
   12ab5:	8b 45 10             	mov    0x10(%ebp),%eax
   12ab8:	89 44 24 04          	mov    %eax,0x4(%esp)
   12abc:	c7 04 24 d4 b1 01 00 	movl   $0x1b1d4,(%esp)
   12ac3:	e8 84 82 00 00       	call   0x1ad4c
   12ac8:	c7 45 d4 ff ff ff ff 	movl   $0xffffffff,0xffffffd4(%ebp)
   12acf:	e9 fd 00 00 00       	jmp    0x12bd1
   12ad4:	8b 55 10             	mov    0x10(%ebp),%edx
   12ad7:	89 d0                	mov    %edx,%eax
   12ad9:	c1 f8 1f             	sar    $0x1f,%eax
   12adc:	89 c1                	mov    %eax,%ecx
   12ade:	c1 e9 14             	shr    $0x14,%ecx
   12ae1:	8d 04 0a             	lea    (%edx,%ecx,1),%eax
   12ae4:	25 ff 0f 00 00       	and    $0xfff,%eax
   12ae9:	29 c8                	sub    %ecx,%eax
   12aeb:	89 45 e0             	mov    %eax,0xffffffe0(%ebp)
   12aee:	c7 45 e4 00 00 00 00 	movl   $0x0,0xffffffe4(%ebp)
   12af5:	c7 45 e8 00 00 00 00 	movl   $0x0,0xffffffe8(%ebp)
   12afc:	e9 bf 00 00 00       	jmp    0x12bc0
   12b01:	8b 45 10             	mov    0x10(%ebp),%eax
   12b04:	89 44 24 04          	mov    %eax,0x4(%esp)
   12b08:	8b 45 0c             	mov    0xc(%ebp),%eax
   12b0b:	89 04 24             	mov    %eax,(%esp)
   12b0e:	e8 bb df ff ff       	call   0x10ace
   12b13:	89 45 ec             	mov    %eax,0xffffffec(%ebp)
   12b16:	83 7d ec 00          	cmpl   $0x0,0xffffffec(%ebp)
   12b1a:	75 32                	jne    0x12b4e
   12b1c:	8b 45 10             	mov    0x10(%ebp),%eax
   12b1f:	89 44 24 04          	mov    %eax,0x4(%esp)
   12b23:	8b 45 0c             	mov    0xc(%ebp),%eax
   12b26:	89 04 24             	mov    %eax,(%esp)
   12b29:	e8 15 e0 ff ff       	call   0x10b43
   12b2e:	89 45 ec             	mov    %eax,0xffffffec(%ebp)
   12b31:	83 7d ec 00          	cmpl   $0x0,0xffffffec(%ebp)
   12b35:	75 0c                	jne    0x12b43
   12b37:	c7 45 d4 ff ff ff ff 	movl   $0xffffffff,0xffffffd4(%ebp)
   12b3e:	e9 8e 00 00 00       	jmp    0x12bd1
   12b43:	8b 45 ec             	mov    0xffffffec(%ebp),%eax
   12b46:	89 04 24             	mov    %eax,(%esp)
   12b49:	e8 e2 e5 ff ff       	call   0x11130
   12b4e:	8b 45 ec             	mov    0xffffffec(%ebp),%eax
   12b51:	8b 00                	mov    (%eax),%eax
   12b53:	89 45 f0             	mov    %eax,0xfffffff0(%ebp)
   12b56:	b8 00 10 00 00       	mov    $0x1000,%eax
   12b5b:	2b 45 e0             	sub    0xffffffe0(%ebp),%eax
   12b5e:	89 45 f4             	mov    %eax,0xfffffff4(%ebp)
   12b61:	8b 45 f4             	mov    0xfffffff4(%ebp),%eax
   12b64:	3b 45 14             	cmp    0x14(%ebp),%eax
   12b67:	7c 23                	jl     0x12b8c
   12b69:	8b 45 e4             	mov    0xffffffe4(%ebp),%eax
   12b6c:	89 c7                	mov    %eax,%edi
   12b6e:	03 7d 08             	add    0x8(%ebp),%edi
   12b71:	8b 45 e0             	mov    0xffffffe0(%ebp),%eax
   12b74:	89 c6                	mov    %eax,%esi
   12b76:	03 75 f0             	add    0xfffffff0(%ebp),%esi
   12b79:	8b 4d 14             	mov    0x14(%ebp),%ecx
   12b7c:	f3 a4                	rep movsb %ds:(%esi),%es:(%edi)
   12b7e:	8b 45 14             	mov    0x14(%ebp),%eax
   12b81:	01 45 e8             	add    %eax,0xffffffe8(%ebp)
   12b84:	8b 45 e8             	mov    0xffffffe8(%ebp),%eax
   12b87:	89 45 d4             	mov    %eax,0xffffffd4(%ebp)
   12b8a:	eb 45                	jmp    0x12bd1
   12b8c:	8b 45 e4             	mov    0xffffffe4(%ebp),%eax
   12b8f:	89 c7                	mov    %eax,%edi
   12b91:	03 7d 08             	add    0x8(%ebp),%edi
   12b94:	8b 45 e0             	mov    0xffffffe0(%ebp),%eax
   12b97:	89 c6                	mov    %eax,%esi
   12b99:	03 75 f0             	add    0xfffffff0(%ebp),%esi
   12b9c:	8b 4d f4             	mov    0xfffffff4(%ebp),%ecx
   12b9f:	f3 a4                	rep movsb %ds:(%esi),%es:(%edi)
   12ba1:	c7 45 e0 00 00 00 00 	movl   $0x0,0xffffffe0(%ebp)
   12ba8:	8b 45 f4             	mov    0xfffffff4(%ebp),%eax
   12bab:	01 45 e4             	add    %eax,0xffffffe4(%ebp)
   12bae:	8b 45 f4             	mov    0xfffffff4(%ebp),%eax
   12bb1:	29 45 14             	sub    %eax,0x14(%ebp)
   12bb4:	8b 45 f4             	mov    0xfffffff4(%ebp),%eax
   12bb7:	01 45 e8             	add    %eax,0xffffffe8(%ebp)
   12bba:	8b 45 f4             	mov    0xfffffff4(%ebp),%eax
   12bbd:	01 45 10             	add    %eax,0x10(%ebp)
   12bc0:	83 7d 14 00          	cmpl   $0x0,0x14(%ebp)
   12bc4:	0f 8f 37 ff ff ff    	jg     0x12b01
   12bca:	c7 45 d4 00 00 00 00 	movl   $0x0,0xffffffd4(%ebp)
   12bd1:	8b 45 d4             	mov    0xffffffd4(%ebp),%eax
   12bd4:	83 c4 30             	add    $0x30,%esp
   12bd7:	5e                   	pop    %esi
   12bd8:	5f                   	pop    %edi
   12bd9:	5d                   	pop    %ebp
   12bda:	c3                   	ret    
   12bdb:	55                   	push   %ebp
   12bdc:	89 e5                	mov    %esp,%ebp
   12bde:	83 ec 48             	sub    $0x48,%esp
   12be1:	8b 55 08             	mov    0x8(%ebp),%edx
   12be4:	8b 45 0c             	mov    0xc(%ebp),%eax
   12be7:	8b 44 90 70          	mov    0x70(%eax,%edx,4),%eax
   12beb:	8b 40 08             	mov    0x8(%eax),%eax
   12bee:	8b 40 24             	mov    0x24(%eax),%eax
   12bf1:	85 c0                	test   %eax,%eax
   12bf3:	7f 1f                	jg     0x12c14
   12bf5:	8b 45 08             	mov    0x8(%ebp),%eax
   12bf8:	89 44 24 04          	mov    %eax,0x4(%esp)
   12bfc:	c7 04 24 f8 b1 01 00 	movl   $0x1b1f8,(%esp)
   12c03:	e8 44 81 00 00       	call   0x1ad4c
   12c08:	c7 45 cc ff ff ff ff 	movl   $0xffffffff,0xffffffcc(%ebp)
   12c0f:	e9 23 01 00 00       	jmp    0x12d37
   12c14:	8b 55 08             	mov    0x8(%ebp),%edx
   12c17:	8b 45 0c             	mov    0xc(%ebp),%eax
   12c1a:	8b 44 90 70          	mov    0x70(%eax,%edx,4),%eax
   12c1e:	8b 40 08             	mov    0x8(%eax),%eax
   12c21:	8b 40 24             	mov    0x24(%eax),%eax
   12c24:	83 f8 01             	cmp    $0x1,%eax
   12c27:	0f 85 ce 00 00 00    	jne    0x12cfb
   12c2d:	8b 55 08             	mov    0x8(%ebp),%edx
   12c30:	8b 45 0c             	mov    0xc(%ebp),%eax
   12c33:	8b 44 90 70          	mov    0x70(%eax,%edx,4),%eax
   12c37:	8b 40 08             	mov    0x8(%eax),%eax
   12c3a:	8b 00                	mov    (%eax),%eax
   12c3c:	83 f8 02             	cmp    $0x2,%eax
   12c3f:	0f 85 99 00 00 00    	jne    0x12cde
   12c45:	c7 45 e0 fe ff ff ff 	movl   $0xfffffffe,0xffffffe0(%ebp)
   12c4c:	c7 45 e4 01 00 00 00 	movl   $0x1,0xffffffe4(%ebp)
   12c53:	8b 55 08             	mov    0x8(%ebp),%edx
   12c56:	8b 45 0c             	mov    0xc(%ebp),%eax
   12c59:	8b 44 90 70          	mov    0x70(%eax,%edx,4),%eax
   12c5d:	8b 40 08             	mov    0x8(%eax),%eax
   12c60:	8b 40 08             	mov    0x8(%eax),%eax
   12c63:	25 ff 00 00 00       	and    $0xff,%eax
   12c68:	89 45 e8             	mov    %eax,0xffffffe8(%ebp)
   12c6b:	e8 6a 7a 00 00       	call   0x1a6da
   12c70:	a1 6c e6 06 00       	mov    0x6e66c,%eax
   12c75:	85 c0                	test   %eax,%eax
   12c77:	75 5e                	jne    0x12cd7
   12c79:	8b 55 08             	mov    0x8(%ebp),%edx
   12c7c:	8b 45 0c             	mov    0xc(%ebp),%eax
   12c7f:	8b 44 90 70          	mov    0x70(%eax,%edx,4),%eax
   12c83:	8b 40 08             	mov    0x8(%eax),%eax
   12c86:	8b 40 08             	mov    0x8(%eax),%eax
   12c89:	c1 e8 08             	shr    $0x8,%eax
   12c8c:	25 ff 00 00 00       	and    $0xff,%eax
   12c91:	8b 14 85 28 c6 01 00 	mov    0x1c628(,%eax,4),%edx
   12c98:	8d 45 d8             	lea    0xffffffd8(%ebp),%eax
   12c9b:	89 44 24 08          	mov    %eax,0x8(%esp)
   12c9f:	89 54 24 04          	mov    %edx,0x4(%esp)
   12ca3:	c7 04 24 02 00 00 00 	movl   $0x2,(%esp)
   12caa:	e8 41 6f 00 00       	call   0x19bf0
   12caf:	85 c0                	test   %eax,%eax
   12cb1:	74 24                	je     0x12cd7
   12cb3:	c7 44 24 0c f5 02 00 	movl   $0x2f5,0xc(%esp)
   12cba:	00 
   12cbb:	c7 44 24 08 38 af 01 	movl   $0x1af38,0x8(%esp)
   12cc2:	00 
   12cc3:	c7 44 24 04 38 af 01 	movl   $0x1af38,0x4(%esp)
   12cca:	00 
   12ccb:	c7 04 24 24 b2 01 00 	movl   $0x1b224,(%esp)
   12cd2:	e8 51 6f 00 00       	call   0x19c28
   12cd7:	e8 f4 79 00 00       	call   0x1a6d0
   12cdc:	eb 1d                	jmp    0x12cfb
   12cde:	8b 55 08             	mov    0x8(%ebp),%edx
   12ce1:	8b 45 0c             	mov    0xc(%ebp),%eax
   12ce4:	8b 44 90 70          	mov    0x70(%eax,%edx,4),%eax
   12ce8:	8b 40 08             	mov    0x8(%eax),%eax
   12ceb:	c7 44 24 04 00 00 00 	movl   $0x0,0x4(%esp)
   12cf2:	00 
   12cf3:	89 04 24             	mov    %eax,(%esp)
   12cf6:	e8 d9 e0 ff ff       	call   0x10dd4
   12cfb:	8b 55 08             	mov    0x8(%ebp),%edx
   12cfe:	8b 45 0c             	mov    0xc(%ebp),%eax
   12d01:	8b 44 90 70          	mov    0x70(%eax,%edx,4),%eax
   12d05:	8b 50 08             	mov    0x8(%eax),%edx
   12d08:	8b 42 24             	mov    0x24(%edx),%eax
   12d0b:	83 e8 01             	sub    $0x1,%eax
   12d0e:	89 42 24             	mov    %eax,0x24(%edx)
   12d11:	8b 55 08             	mov    0x8(%ebp),%edx
   12d14:	8b 45 0c             	mov    0xc(%ebp),%eax
   12d17:	8b 44 90 70          	mov    0x70(%eax,%edx,4),%eax
   12d1b:	c7 40 08 00 00 00 00 	movl   $0x0,0x8(%eax)
   12d22:	8b 55 08             	mov    0x8(%ebp),%edx
   12d25:	8b 45 0c             	mov    0xc(%ebp),%eax
   12d28:	c7 44 90 70 00 00 00 	movl   $0x0,0x70(%eax,%edx,4)
   12d2f:	00 
   12d30:	c7 45 cc 00 00 00 00 	movl   $0x0,0xffffffcc(%ebp)
   12d37:	8b 45 cc             	mov    0xffffffcc(%ebp),%eax
   12d3a:	c9                   	leave  
   12d3b:	c3                   	ret    
   12d3c:	55                   	push   %ebp
   12d3d:	89 e5                	mov    %esp,%ebp
   12d3f:	56                   	push   %esi
   12d40:	53                   	push   %ebx
   12d41:	83 ec 60             	sub    $0x60,%esp
   12d44:	c7 45 e4 00 00 00 00 	movl   $0x0,0xffffffe4(%ebp)
   12d4b:	c7 45 e8 00 00 00 00 	movl   $0x0,0xffffffe8(%ebp)
   12d52:	c7 45 d8 00 00 00 00 	movl   $0x0,0xffffffd8(%ebp)
   12d59:	c7 45 cc 00 00 00 00 	movl   $0x0,0xffffffcc(%ebp)
   12d60:	e9 88 00 00 00       	jmp    0x12ded
   12d65:	8b 15 0c f4 01 00    	mov    0x1f40c,%edx
   12d6b:	c7 44 24 0c 00 02 00 	movl   $0x200,0xc(%esp)
   12d72:	00 
   12d73:	8b 45 e4             	mov    0xffffffe4(%ebp),%eax
   12d76:	89 44 24 08          	mov    %eax,0x8(%esp)
   12d7a:	89 54 24 04          	mov    %edx,0x4(%esp)
   12d7e:	c7 04 24 a0 ab 02 00 	movl   $0x2aba0,(%esp)
   12d85:	e8 14 fd ff ff       	call   0x12a9e
   12d8a:	c7 45 dc 00 00 00 00 	movl   $0x0,0xffffffdc(%ebp)
   12d91:	c7 45 d4 a0 ab 02 00 	movl   $0x2aba0,0xffffffd4(%ebp)
   12d98:	eb 31                	jmp    0x12dcb
   12d9a:	8b 45 d4             	mov    0xffffffd4(%ebp),%eax
   12d9d:	83 c0 04             	add    $0x4,%eax
   12da0:	8b 55 08             	mov    0x8(%ebp),%edx
   12da3:	89 54 24 04          	mov    %edx,0x4(%esp)
   12da7:	89 04 24             	mov    %eax,(%esp)
   12daa:	e8 1c 7c 00 00       	call   0x1a9cb
   12daf:	85 c0                	test   %eax,%eax
   12db1:	75 10                	jne    0x12dc3
   12db3:	8b 45 d4             	mov    0xffffffd4(%ebp),%eax
   12db6:	8b 00                	mov    (%eax),%eax
   12db8:	89 45 cc             	mov    %eax,0xffffffcc(%ebp)
   12dbb:	8b 45 dc             	mov    0xffffffdc(%ebp),%eax
   12dbe:	01 45 e8             	add    %eax,0xffffffe8(%ebp)
   12dc1:	eb 10                	jmp    0x12dd3
   12dc3:	83 45 dc 01          	addl   $0x1,0xffffffdc(%ebp)
   12dc7:	83 45 d4 10          	addl   $0x10,0xffffffd4(%ebp)
   12dcb:	8b 45 dc             	mov    0xffffffdc(%ebp),%eax
   12dce:	83 f8 1f             	cmp    $0x1f,%eax
   12dd1:	76 c7                	jbe    0x12d9a
   12dd3:	83 7d cc 00          	cmpl   $0x0,0xffffffcc(%ebp)
   12dd7:	75 1e                	jne    0x12df7
   12dd9:	8b 45 e8             	mov    0xffffffe8(%ebp),%eax
   12ddc:	83 c0 20             	add    $0x20,%eax
   12ddf:	89 45 e8             	mov    %eax,0xffffffe8(%ebp)
   12de2:	83 45 d8 01          	addl   $0x1,0xffffffd8(%ebp)
   12de6:	81 45 e4 00 02 00 00 	addl   $0x200,0xffffffe4(%ebp)
   12ded:	83 7d d8 00          	cmpl   $0x0,0xffffffd8(%ebp)
   12df1:	0f 84 6e ff ff ff    	je     0x12d65
   12df7:	83 7d cc 00          	cmpl   $0x0,0xffffffcc(%ebp)
   12dfb:	75 1f                	jne    0x12e1c
   12dfd:	8b 45 08             	mov    0x8(%ebp),%eax
   12e00:	89 44 24 04          	mov    %eax,0x4(%esp)
   12e04:	c7 04 24 74 b2 01 00 	movl   $0x1b274,(%esp)
   12e0b:	e8 3c 7f 00 00       	call   0x1ad4c
   12e10:	c7 45 b4 ff ff ff ff 	movl   $0xffffffff,0xffffffb4(%ebp)
   12e17:	e9 3b 03 00 00       	jmp    0x13157
   12e1c:	83 7d cc 04          	cmpl   $0x4,0xffffffcc(%ebp)
   12e20:	7f 1f                	jg     0x12e41
   12e22:	8b 45 08             	mov    0x8(%ebp),%eax
   12e25:	89 44 24 04          	mov    %eax,0x4(%esp)
   12e29:	c7 04 24 9b b2 01 00 	movl   $0x1b29b,(%esp)
   12e30:	e8 17 7f 00 00       	call   0x1ad4c
   12e35:	c7 45 b4 ff ff ff ff 	movl   $0xffffffff,0xffffffb4(%ebp)
   12e3c:	e9 16 03 00 00       	jmp    0x13157
   12e41:	c7 45 d0 40 f4 01 00 	movl   $0x1f440,0xffffffd0(%ebp)
   12e48:	eb 38                	jmp    0x12e82
   12e4a:	8b 45 d0             	mov    0xffffffd0(%ebp),%eax
   12e4d:	8b 40 28             	mov    0x28(%eax),%eax
   12e50:	3b 45 cc             	cmp    0xffffffcc(%ebp),%eax
   12e53:	75 29                	jne    0x12e7e
   12e55:	8b 45 d0             	mov    0xffffffd0(%ebp),%eax
   12e58:	8b 40 24             	mov    0x24(%eax),%eax
   12e5b:	85 c0                	test   %eax,%eax
   12e5d:	74 1f                	je     0x12e7e
   12e5f:	8b 45 08             	mov    0x8(%ebp),%eax
   12e62:	89 44 24 04          	mov    %eax,0x4(%esp)
   12e66:	c7 04 24 b9 b2 01 00 	movl   $0x1b2b9,(%esp)
   12e6d:	e8 da 7e 00 00       	call   0x1ad4c
   12e72:	c7 45 b4 ff ff ff ff 	movl   $0xffffffff,0xffffffb4(%ebp)
   12e79:	e9 d9 02 00 00       	jmp    0x13157
   12e7e:	83 45 d0 2c          	addl   $0x2c,0xffffffd0(%ebp)
   12e82:	b8 40 ff 01 00       	mov    $0x1ff40,%eax
   12e87:	39 45 d0             	cmp    %eax,0xffffffd0(%ebp)
   12e8a:	72 be                	jb     0x12e4a
   12e8c:	8b 55 cc             	mov    0xffffffcc(%ebp),%edx
   12e8f:	89 d0                	mov    %edx,%eax
   12e91:	c1 f8 1f             	sar    $0x1f,%eax
   12e94:	c1 e8 14             	shr    $0x14,%eax
   12e97:	01 d0                	add    %edx,%eax
   12e99:	c1 f8 0c             	sar    $0xc,%eax
   12e9c:	83 c0 02             	add    $0x2,%eax
   12e9f:	89 45 ec             	mov    %eax,0xffffffec(%ebp)
   12ea2:	8b 45 ec             	mov    0xffffffec(%ebp),%eax
   12ea5:	c1 e0 09             	shl    $0x9,%eax
   12ea8:	c7 44 24 0c 01 00 00 	movl   $0x1,0xc(%esp)
   12eaf:	00 
   12eb0:	89 44 24 08          	mov    %eax,0x8(%esp)
   12eb4:	c7 44 24 04 a0 ab 02 	movl   $0x2aba0,0x4(%esp)
   12ebb:	00 
   12ebc:	c7 04 24 1a 03 00 00 	movl   $0x31a,(%esp)
   12ec3:	e8 bd 0a 00 00       	call   0x13985
   12ec8:	8b 55 cc             	mov    0xffffffcc(%ebp),%edx
   12ecb:	89 d0                	mov    %edx,%eax
   12ecd:	c1 f8 1f             	sar    $0x1f,%eax
   12ed0:	c1 e8 1d             	shr    $0x1d,%eax
   12ed3:	01 d0                	add    %edx,%eax
   12ed5:	c1 f8 03             	sar    $0x3,%eax
   12ed8:	89 c2                	mov    %eax,%edx
   12eda:	89 d0                	mov    %edx,%eax
   12edc:	c1 f8 1f             	sar    $0x1f,%eax
   12edf:	89 c1                	mov    %eax,%ecx
   12ee1:	c1 e9 17             	shr    $0x17,%ecx
   12ee4:	8d 04 0a             	lea    (%edx,%ecx,1),%eax
   12ee7:	25 ff 01 00 00       	and    $0x1ff,%eax
   12eec:	29 c8                	sub    %ecx,%eax
   12eee:	89 c3                	mov    %eax,%ebx
   12ef0:	0f b6 b0 a0 ab 02 00 	movzbl 0x2aba0(%eax),%esi
   12ef7:	8b 55 cc             	mov    0xffffffcc(%ebp),%edx
   12efa:	89 d0                	mov    %edx,%eax
   12efc:	c1 f8 1f             	sar    $0x1f,%eax
   12eff:	89 c1                	mov    %eax,%ecx
   12f01:	c1 e9 1d             	shr    $0x1d,%ecx
   12f04:	8d 04 0a             	lea    (%edx,%ecx,1),%eax
   12f07:	83 e0 07             	and    $0x7,%eax
   12f0a:	29 c8                	sub    %ecx,%eax
   12f0c:	89 c1                	mov    %eax,%ecx
   12f0e:	b8 01 00 00 00       	mov    $0x1,%eax
   12f13:	d3 e0                	shl    %cl,%eax
   12f15:	f7 d0                	not    %eax
   12f17:	21 f0                	and    %esi,%eax
   12f19:	88 83 a0 ab 02 00    	mov    %al,0x2aba0(%ebx)
   12f1f:	8b 45 ec             	mov    0xffffffec(%ebp),%eax
   12f22:	c1 e0 09             	shl    $0x9,%eax
   12f25:	c7 44 24 0c 01 00 00 	movl   $0x1,0xc(%esp)
   12f2c:	00 
   12f2d:	89 44 24 08          	mov    %eax,0x8(%esp)
   12f31:	c7 44 24 04 a0 ab 02 	movl   $0x2aba0,0x4(%esp)
   12f38:	00 
   12f39:	c7 04 24 1a 03 00 00 	movl   $0x31a,(%esp)
   12f40:	e8 c5 0a 00 00       	call   0x13a0a
   12f45:	8b 45 cc             	mov    0xffffffcc(%ebp),%eax
   12f48:	c1 e8 04             	shr    $0x4,%eax
   12f4b:	83 c0 04             	add    $0x4,%eax
   12f4e:	89 45 ec             	mov    %eax,0xffffffec(%ebp)
   12f51:	8b 45 ec             	mov    0xffffffec(%ebp),%eax
   12f54:	c1 e0 09             	shl    $0x9,%eax
   12f57:	c7 44 24 0c 01 00 00 	movl   $0x1,0xc(%esp)
   12f5e:	00 
   12f5f:	89 44 24 08          	mov    %eax,0x8(%esp)
   12f63:	c7 44 24 04 a0 ab 02 	movl   $0x2aba0,0x4(%esp)
   12f6a:	00 
   12f6b:	c7 04 24 1a 03 00 00 	movl   $0x31a,(%esp)
   12f72:	e8 0e 0a 00 00       	call   0x13985
   12f77:	c7 45 c8 a0 ab 02 00 	movl   $0x2aba0,0xffffffc8(%ebp)
   12f7e:	8b 45 cc             	mov    0xffffffcc(%ebp),%eax
   12f81:	83 e0 0f             	and    $0xf,%eax
   12f84:	c1 e0 05             	shl    $0x5,%eax
   12f87:	01 45 c8             	add    %eax,0xffffffc8(%ebp)
   12f8a:	8b 45 c8             	mov    0xffffffc8(%ebp),%eax
   12f8d:	8b 40 08             	mov    0x8(%eax),%eax
   12f90:	89 45 f0             	mov    %eax,0xfffffff0(%ebp)
   12f93:	8b 45 c8             	mov    0xffffffc8(%ebp),%eax
   12f96:	8b 40 0c             	mov    0xc(%eax),%eax
   12f99:	89 45 f4             	mov    %eax,0xfffffff4(%ebp)
   12f9c:	8b 55 f0             	mov    0xfffffff0(%ebp),%edx
   12f9f:	89 d0                	mov    %edx,%eax
   12fa1:	c1 f8 1f             	sar    $0x1f,%eax
   12fa4:	c1 e8 14             	shr    $0x14,%eax
   12fa7:	01 d0                	add    %edx,%eax
   12fa9:	c1 f8 0c             	sar    $0xc,%eax
   12fac:	89 45 d8             	mov    %eax,0xffffffd8(%ebp)
   12faf:	8b 55 f0             	mov    0xfffffff0(%ebp),%edx
   12fb2:	89 d0                	mov    %edx,%eax
   12fb4:	c1 f8 1f             	sar    $0x1f,%eax
   12fb7:	c1 e8 1d             	shr    $0x1d,%eax
   12fba:	01 d0                	add    %edx,%eax
   12fbc:	c1 f8 03             	sar    $0x3,%eax
   12fbf:	89 c2                	mov    %eax,%edx
   12fc1:	89 d0                	mov    %edx,%eax
   12fc3:	c1 f8 1f             	sar    $0x1f,%eax
   12fc6:	89 c1                	mov    %eax,%ecx
   12fc8:	c1 e9 17             	shr    $0x17,%ecx
   12fcb:	8d 04 0a             	lea    (%edx,%ecx,1),%eax
   12fce:	25 ff 01 00 00       	and    $0x1ff,%eax
   12fd3:	29 c8                	sub    %ecx,%eax
   12fd5:	89 45 dc             	mov    %eax,0xffffffdc(%ebp)
   12fd8:	8b 55 f0             	mov    0xfffffff0(%ebp),%edx
   12fdb:	89 d0                	mov    %edx,%eax
   12fdd:	c1 f8 1f             	sar    $0x1f,%eax
   12fe0:	89 c1                	mov    %eax,%ecx
   12fe2:	c1 e9 1d             	shr    $0x1d,%ecx
   12fe5:	8d 04 0a             	lea    (%edx,%ecx,1),%eax
   12fe8:	83 e0 07             	and    $0x7,%eax
   12feb:	29 c8                	sub    %ecx,%eax
   12fed:	89 45 e0             	mov    %eax,0xffffffe0(%ebp)
   12ff0:	e9 0e 01 00 00       	jmp    0x13103
   12ff5:	8b 45 d8             	mov    0xffffffd8(%ebp),%eax
   12ff8:	c1 e0 09             	shl    $0x9,%eax
   12ffb:	05 00 06 00 00       	add    $0x600,%eax
   13000:	c7 44 24 0c 01 00 00 	movl   $0x1,0xc(%esp)
   13007:	00 
   13008:	89 44 24 08          	mov    %eax,0x8(%esp)
   1300c:	c7 44 24 04 a0 ab 02 	movl   $0x2aba0,0x4(%esp)
   13013:	00 
   13014:	c7 04 24 1a 03 00 00 	movl   $0x31a,(%esp)
   1301b:	e8 65 09 00 00       	call   0x13985
   13020:	e9 95 00 00 00       	jmp    0x130ba
   13025:	b8 08 00 00 00       	mov    $0x8,%eax
   1302a:	2b 45 e0             	sub    0xffffffe0(%ebp),%eax
   1302d:	3b 45 f4             	cmp    0xfffffff4(%ebp),%eax
   13030:	7c 38                	jl     0x1306a
   13032:	eb 25                	jmp    0x13059
   13034:	8b 55 dc             	mov    0xffffffdc(%ebp),%edx
   13037:	8b 45 dc             	mov    0xffffffdc(%ebp),%eax
   1303a:	0f b6 98 a0 ab 02 00 	movzbl 0x2aba0(%eax),%ebx
   13041:	8b 4d e0             	mov    0xffffffe0(%ebp),%ecx
   13044:	b8 01 00 00 00       	mov    $0x1,%eax
   13049:	d3 e0                	shl    %cl,%eax
   1304b:	f7 d0                	not    %eax
   1304d:	21 d8                	and    %ebx,%eax
   1304f:	88 82 a0 ab 02 00    	mov    %al,0x2aba0(%edx)
   13055:	83 45 e0 01          	addl   $0x1,0xffffffe0(%ebp)
   13059:	83 7d f4 00          	cmpl   $0x0,0xfffffff4(%ebp)
   1305d:	0f 9f c0             	setg   %al
   13060:	83 6d f4 01          	subl   $0x1,0xfffffff4(%ebp)
   13064:	84 c0                	test   %al,%al
   13066:	75 cc                	jne    0x13034
   13068:	eb 63                	jmp    0x130cd
   1306a:	83 7d e0 00          	cmpl   $0x0,0xffffffe0(%ebp)
   1306e:	75 39                	jne    0x130a9
   13070:	8b 45 dc             	mov    0xffffffdc(%ebp),%eax
   13073:	c6 80 a0 ab 02 00 00 	movb   $0x0,0x2aba0(%eax)
   1307a:	83 6d f4 08          	subl   $0x8,0xfffffff4(%ebp)
   1307e:	eb 2f                	jmp    0x130af
   13080:	8b 55 dc             	mov    0xffffffdc(%ebp),%edx
   13083:	8b 45 dc             	mov    0xffffffdc(%ebp),%eax
   13086:	0f b6 98 a0 ab 02 00 	movzbl 0x2aba0(%eax),%ebx
   1308d:	8b 4d e0             	mov    0xffffffe0(%ebp),%ecx
   13090:	b8 01 00 00 00       	mov    $0x1,%eax
   13095:	d3 e0                	shl    %cl,%eax
   13097:	f7 d0                	not    %eax
   13099:	21 d8                	and    %ebx,%eax
   1309b:	88 82 a0 ab 02 00    	mov    %al,0x2aba0(%edx)
   130a1:	83 45 e0 01          	addl   $0x1,0xffffffe0(%ebp)
   130a5:	83 6d f4 01          	subl   $0x1,0xfffffff4(%ebp)
   130a9:	83 7d e0 07          	cmpl   $0x7,0xffffffe0(%ebp)
   130ad:	7e d1                	jle    0x13080
   130af:	83 45 dc 01          	addl   $0x1,0xffffffdc(%ebp)
   130b3:	c7 45 e0 00 00 00 00 	movl   $0x0,0xffffffe0(%ebp)
   130ba:	81 7d dc ff 01 00 00 	cmpl   $0x1ff,0xffffffdc(%ebp)
   130c1:	7f 0a                	jg     0x130cd
   130c3:	83 7d f4 00          	cmpl   $0x0,0xfffffff4(%ebp)
   130c7:	0f 8f 58 ff ff ff    	jg     0x13025
   130cd:	8b 45 d8             	mov    0xffffffd8(%ebp),%eax
   130d0:	c1 e0 09             	shl    $0x9,%eax
   130d3:	05 00 06 00 00       	add    $0x600,%eax
   130d8:	c7 44 24 0c 01 00 00 	movl   $0x1,0xc(%esp)
   130df:	00 
   130e0:	89 44 24 08          	mov    %eax,0x8(%esp)
   130e4:	c7 44 24 04 a0 ab 02 	movl   $0x2aba0,0x4(%esp)
   130eb:	00 
   130ec:	c7 04 24 1a 03 00 00 	movl   $0x31a,(%esp)
   130f3:	e8 12 09 00 00       	call   0x13a0a
   130f8:	83 45 d8 01          	addl   $0x1,0xffffffd8(%ebp)
   130fc:	c7 45 dc 00 00 00 00 	movl   $0x0,0xffffffdc(%ebp)
   13103:	83 7d f4 00          	cmpl   $0x0,0xfffffff4(%ebp)
   13107:	0f 8f e8 fe ff ff    	jg     0x12ff5
   1310d:	c7 45 b8 00 00 00 00 	movl   $0x0,0xffffffb8(%ebp)
   13114:	8b 45 e8             	mov    0xffffffe8(%ebp),%eax
   13117:	c1 e0 04             	shl    $0x4,%eax
   1311a:	8b 15 0c f4 01 00    	mov    0x1f40c,%edx
   13120:	c7 44 24 0c 10 00 00 	movl   $0x10,0xc(%esp)
   13127:	00 
   13128:	89 44 24 08          	mov    %eax,0x8(%esp)
   1312c:	89 54 24 04          	mov    %edx,0x4(%esp)
   13130:	8d 45 b8             	lea    0xffffffb8(%ebp),%eax
   13133:	89 04 24             	mov    %eax,(%esp)
   13136:	e8 a9 f6 ff ff       	call   0x127e4
   1313b:	a1 0c f4 01 00       	mov    0x1f40c,%eax
   13140:	c7 44 24 04 00 00 00 	movl   $0x0,0x4(%esp)
   13147:	00 
   13148:	89 04 24             	mov    %eax,(%esp)
   1314b:	e8 84 dc ff ff       	call   0x10dd4
   13150:	c7 45 b4 00 00 00 00 	movl   $0x0,0xffffffb4(%ebp)
   13157:	8b 45 b4             	mov    0xffffffb4(%ebp),%eax
   1315a:	83 c4 60             	add    $0x60,%esp
   1315d:	5b                   	pop    %ebx
   1315e:	5e                   	pop    %esi
   1315f:	5d                   	pop    %ebp
   13160:	c3                   	ret    
   13161:	55                   	push   %ebp
   13162:	89 e5                	mov    %esp,%ebp
   13164:	83 ec 18             	sub    $0x18,%esp
   13167:	8b 45 08             	mov    0x8(%ebp),%eax
   1316a:	8b 55 14             	mov    0x14(%ebp),%edx
   1316d:	8b 44 82 70          	mov    0x70(%edx,%eax,4),%eax
   13171:	85 c0                	test   %eax,%eax
   13173:	75 24                	jne    0x13199
   13175:	c7 44 24 0c 83 03 00 	movl   $0x383,0xc(%esp)
   1317c:	00 
   1317d:	c7 44 24 08 38 af 01 	movl   $0x1af38,0x8(%esp)
   13184:	00 
   13185:	c7 44 24 04 38 af 01 	movl   $0x1af38,0x4(%esp)
   1318c:	00 
   1318d:	c7 04 24 d7 b2 01 00 	movl   $0x1b2d7,(%esp)
   13194:	e8 8f 6a 00 00       	call   0x19c28
   13199:	8b 55 08             	mov    0x8(%ebp),%edx
   1319c:	8b 45 14             	mov    0x14(%ebp),%eax
   1319f:	8b 44 90 70          	mov    0x70(%eax,%edx,4),%eax
   131a3:	8b 40 08             	mov    0x8(%eax),%eax
   131a6:	8b 50 04             	mov    0x4(%eax),%edx
   131a9:	8b 45 0c             	mov    0xc(%ebp),%eax
   131ac:	39 c2                	cmp    %eax,%edx
   131ae:	77 24                	ja     0x131d4
   131b0:	c7 44 24 0c 84 03 00 	movl   $0x384,0xc(%esp)
   131b7:	00 
   131b8:	c7 44 24 08 38 af 01 	movl   $0x1af38,0x8(%esp)
   131bf:	00 
   131c0:	c7 44 24 04 38 af 01 	movl   $0x1af38,0x4(%esp)
   131c7:	00 
   131c8:	c7 04 24 ec b2 01 00 	movl   $0x1b2ec,(%esp)
   131cf:	e8 54 6a 00 00       	call   0x19c28
   131d4:	8b 55 08             	mov    0x8(%ebp),%edx
   131d7:	8b 45 14             	mov    0x14(%ebp),%eax
   131da:	8b 54 90 70          	mov    0x70(%eax,%edx,4),%edx
   131de:	8b 45 0c             	mov    0xc(%ebp),%eax
   131e1:	89 42 04             	mov    %eax,0x4(%edx)
   131e4:	b8 00 00 00 00       	mov    $0x0,%eax
   131e9:	c9                   	leave  
   131ea:	c3                   	ret    
   131eb:	55                   	push   %ebp
   131ec:	89 e5                	mov    %esp,%ebp
   131ee:	53                   	push   %ebx
   131ef:	83 ec 14             	sub    $0x14,%esp
   131f2:	8b 55 08             	mov    0x8(%ebp),%edx
   131f5:	89 d0                	mov    %edx,%eax
   131f7:	c1 e0 03             	shl    $0x3,%eax
   131fa:	01 d0                	add    %edx,%eax
   131fc:	c1 e0 05             	shl    $0x5,%eax
   131ff:	05 e0 79 04 00       	add    $0x479e0,%eax
   13204:	89 45 f0             	mov    %eax,0xfffffff0(%ebp)
   13207:	c7 45 f4 00 00 00 00 	movl   $0x0,0xfffffff4(%ebp)
   1320e:	c7 45 f8 00 00 00 00 	movl   $0x0,0xfffffff8(%ebp)
   13215:	e9 f8 00 00 00       	jmp    0x13312
   1321a:	8b 45 f4             	mov    0xfffffff4(%ebp),%eax
   1321d:	8b 55 f0             	mov    0xfffffff0(%ebp),%edx
   13220:	8b 44 82 70          	mov    0x70(%edx,%eax,4),%eax
   13224:	85 c0                	test   %eax,%eax
   13226:	0f 84 e2 00 00 00    	je     0x1330e
   1322c:	eb 1a                	jmp    0x13248
   1322e:	8b 55 f8             	mov    0xfffffff8(%ebp),%edx
   13231:	89 d0                	mov    %edx,%eax
   13233:	01 c0                	add    %eax,%eax
   13235:	01 d0                	add    %edx,%eax
   13237:	c1 e0 02             	shl    $0x2,%eax
   1323a:	8b 80 e8 49 04 00    	mov    0x449e8(%eax),%eax
   13240:	85 c0                	test   %eax,%eax
   13242:	74 0d                	je     0x13251
   13244:	83 45 f8 01          	addl   $0x1,0xfffffff8(%ebp)
   13248:	81 7d f8 ff 03 00 00 	cmpl   $0x3ff,0xfffffff8(%ebp)
   1324f:	7e dd                	jle    0x1322e
   13251:	81 7d f8 ff 03 00 00 	cmpl   $0x3ff,0xfffffff8(%ebp)
   13258:	7e 4a                	jle    0x132a4
   1325a:	eb 35                	jmp    0x13291
   1325c:	8b 45 f4             	mov    0xfffffff4(%ebp),%eax
   1325f:	8b 55 f0             	mov    0xfffffff0(%ebp),%edx
   13262:	8b 44 82 70          	mov    0x70(%edx,%eax,4),%eax
   13266:	85 c0                	test   %eax,%eax
   13268:	74 27                	je     0x13291
   1326a:	8b 55 f4             	mov    0xfffffff4(%ebp),%edx
   1326d:	8b 45 f0             	mov    0xfffffff0(%ebp),%eax
   13270:	8b 44 90 70          	mov    0x70(%eax,%edx,4),%eax
   13274:	8b 50 08             	mov    0x8(%eax),%edx
   13277:	8b 42 24             	mov    0x24(%edx),%eax
   1327a:	83 e8 01             	sub    $0x1,%eax
   1327d:	89 42 24             	mov    %eax,0x24(%edx)
   13280:	8b 55 f4             	mov    0xfffffff4(%ebp),%edx
   13283:	8b 45 f0             	mov    0xfffffff0(%ebp),%eax
   13286:	8b 44 90 70          	mov    0x70(%eax,%edx,4),%eax
   1328a:	c7 40 08 00 00 00 00 	movl   $0x0,0x8(%eax)
   13291:	83 6d f4 01          	subl   $0x1,0xfffffff4(%ebp)
   13295:	83 7d f4 00          	cmpl   $0x0,0xfffffff4(%ebp)
   13299:	79 c1                	jns    0x1325c
   1329b:	c7 45 e8 ff ff ff ff 	movl   $0xffffffff,0xffffffe8(%ebp)
   132a2:	eb 7f                	jmp    0x13323
   132a4:	8b 5d f8             	mov    0xfffffff8(%ebp),%ebx
   132a7:	8b 55 f4             	mov    0xfffffff4(%ebp),%edx
   132aa:	8b 45 f0             	mov    0xfffffff0(%ebp),%eax
   132ad:	8b 4c 90 70          	mov    0x70(%eax,%edx,4),%ecx
   132b1:	89 d8                	mov    %ebx,%eax
   132b3:	01 c0                	add    %eax,%eax
   132b5:	01 d8                	add    %ebx,%eax
   132b7:	8d 14 85 00 00 00 00 	lea    0x0(,%eax,4),%edx
   132be:	8b 01                	mov    (%ecx),%eax
   132c0:	89 82 e0 49 04 00    	mov    %eax,0x449e0(%edx)
   132c6:	8b 41 04             	mov    0x4(%ecx),%eax
   132c9:	89 82 e4 49 04 00    	mov    %eax,0x449e4(%edx)
   132cf:	8b 41 08             	mov    0x8(%ecx),%eax
   132d2:	89 82 e8 49 04 00    	mov    %eax,0x449e8(%edx)
   132d8:	8b 4d f4             	mov    0xfffffff4(%ebp),%ecx
   132db:	8b 55 f8             	mov    0xfffffff8(%ebp),%edx
   132de:	89 d0                	mov    %edx,%eax
   132e0:	01 c0                	add    %eax,%eax
   132e2:	01 d0                	add    %edx,%eax
   132e4:	c1 e0 02             	shl    $0x2,%eax
   132e7:	8d 90 e0 49 04 00    	lea    0x449e0(%eax),%edx
   132ed:	8b 45 f0             	mov    0xfffffff0(%ebp),%eax
   132f0:	89 54 88 70          	mov    %edx,0x70(%eax,%ecx,4)
   132f4:	8b 55 f4             	mov    0xfffffff4(%ebp),%edx
   132f7:	8b 45 f0             	mov    0xfffffff0(%ebp),%eax
   132fa:	8b 44 90 70          	mov    0x70(%eax,%edx,4),%eax
   132fe:	8b 50 08             	mov    0x8(%eax),%edx
   13301:	8b 42 24             	mov    0x24(%edx),%eax
   13304:	83 c0 01             	add    $0x1,%eax
   13307:	89 42 24             	mov    %eax,0x24(%edx)
   1330a:	83 45 f8 01          	addl   $0x1,0xfffffff8(%ebp)
   1330e:	83 45 f4 01          	addl   $0x1,0xfffffff4(%ebp)
   13312:	83 7d f4 1f          	cmpl   $0x1f,0xfffffff4(%ebp)
   13316:	0f 8e fe fe ff ff    	jle    0x1321a
   1331c:	c7 45 e8 00 00 00 00 	movl   $0x0,0xffffffe8(%ebp)
   13323:	8b 45 e8             	mov    0xffffffe8(%ebp),%eax
   13326:	83 c4 14             	add    $0x14,%esp
   13329:	5b                   	pop    %ebx
   1332a:	5d                   	pop    %ebp
   1332b:	c3                   	ret    
   1332c:	55                   	push   %ebp
   1332d:	89 e5                	mov    %esp,%ebp
   1332f:	83 ec 48             	sub    $0x48,%esp
   13332:	8b 55 08             	mov    0x8(%ebp),%edx
   13335:	89 d0                	mov    %edx,%eax
   13337:	c1 e0 03             	shl    $0x3,%eax
   1333a:	01 d0                	add    %edx,%eax
   1333c:	c1 e0 05             	shl    $0x5,%eax
   1333f:	05 e0 79 04 00       	add    $0x479e0,%eax
   13344:	89 45 f8             	mov    %eax,0xfffffff8(%ebp)
   13347:	c7 45 fc 00 00 00 00 	movl   $0x0,0xfffffffc(%ebp)
   1334e:	e9 2f 01 00 00       	jmp    0x13482
   13353:	8b 45 fc             	mov    0xfffffffc(%ebp),%eax
   13356:	8b 55 f8             	mov    0xfffffff8(%ebp),%edx
   13359:	8b 44 82 70          	mov    0x70(%edx,%eax,4),%eax
   1335d:	85 c0                	test   %eax,%eax
   1335f:	0f 84 19 01 00 00    	je     0x1347e
   13365:	8b 55 fc             	mov    0xfffffffc(%ebp),%edx
   13368:	8b 45 f8             	mov    0xfffffff8(%ebp),%eax
   1336b:	8b 44 90 70          	mov    0x70(%eax,%edx,4),%eax
   1336f:	8b 40 08             	mov    0x8(%eax),%eax
   13372:	8b 40 24             	mov    0x24(%eax),%eax
   13375:	85 c0                	test   %eax,%eax
   13377:	7f 24                	jg     0x1339d
   13379:	c7 44 24 0c bd 03 00 	movl   $0x3bd,0xc(%esp)
   13380:	00 
   13381:	c7 44 24 08 38 af 01 	movl   $0x1af38,0x8(%esp)
   13388:	00 
   13389:	c7 44 24 04 38 af 01 	movl   $0x1af38,0x4(%esp)
   13390:	00 
   13391:	c7 04 24 18 b3 01 00 	movl   $0x1b318,(%esp)
   13398:	e8 8b 68 00 00       	call   0x19c28
   1339d:	8b 55 fc             	mov    0xfffffffc(%ebp),%edx
   133a0:	8b 45 f8             	mov    0xfffffff8(%ebp),%eax
   133a3:	8b 44 90 70          	mov    0x70(%eax,%edx,4),%eax
   133a7:	8b 40 08             	mov    0x8(%eax),%eax
   133aa:	8b 50 24             	mov    0x24(%eax),%edx
   133ad:	83 ea 01             	sub    $0x1,%edx
   133b0:	89 50 24             	mov    %edx,0x24(%eax)
   133b3:	8b 40 24             	mov    0x24(%eax),%eax
   133b6:	85 c0                	test   %eax,%eax
   133b8:	0f 85 af 00 00 00    	jne    0x1346d
   133be:	8b 55 fc             	mov    0xfffffffc(%ebp),%edx
   133c1:	8b 45 f8             	mov    0xfffffff8(%ebp),%eax
   133c4:	8b 44 90 70          	mov    0x70(%eax,%edx,4),%eax
   133c8:	8b 40 08             	mov    0x8(%eax),%eax
   133cb:	8b 00                	mov    (%eax),%eax
   133cd:	83 f8 02             	cmp    $0x2,%eax
   133d0:	0f 85 97 00 00 00    	jne    0x1346d
   133d6:	c7 45 d8 fe ff ff ff 	movl   $0xfffffffe,0xffffffd8(%ebp)
   133dd:	c7 45 dc 01 00 00 00 	movl   $0x1,0xffffffdc(%ebp)
   133e4:	8b 55 fc             	mov    0xfffffffc(%ebp),%edx
   133e7:	8b 45 f8             	mov    0xfffffff8(%ebp),%eax
   133ea:	8b 44 90 70          	mov    0x70(%eax,%edx,4),%eax
   133ee:	8b 40 08             	mov    0x8(%eax),%eax
   133f1:	8b 40 08             	mov    0x8(%eax),%eax
   133f4:	25 ff 00 00 00       	and    $0xff,%eax
   133f9:	89 45 e0             	mov    %eax,0xffffffe0(%ebp)
   133fc:	e8 d9 72 00 00       	call   0x1a6da
   13401:	a1 6c e6 06 00       	mov    0x6e66c,%eax
   13406:	85 c0                	test   %eax,%eax
   13408:	75 5e                	jne    0x13468
   1340a:	8b 55 fc             	mov    0xfffffffc(%ebp),%edx
   1340d:	8b 45 f8             	mov    0xfffffff8(%ebp),%eax
   13410:	8b 44 90 70          	mov    0x70(%eax,%edx,4),%eax
   13414:	8b 40 08             	mov    0x8(%eax),%eax
   13417:	8b 40 08             	mov    0x8(%eax),%eax
   1341a:	c1 e8 08             	shr    $0x8,%eax
   1341d:	25 ff 00 00 00       	and    $0xff,%eax
   13422:	8b 14 85 28 c6 01 00 	mov    0x1c628(,%eax,4),%edx
   13429:	8d 45 d0             	lea    0xffffffd0(%ebp),%eax
   1342c:	89 44 24 08          	mov    %eax,0x8(%esp)
   13430:	89 54 24 04          	mov    %edx,0x4(%esp)
   13434:	c7 04 24 02 00 00 00 	movl   $0x2,(%esp)
   1343b:	e8 b0 67 00 00       	call   0x19bf0
   13440:	85 c0                	test   %eax,%eax
   13442:	74 24                	je     0x13468
   13444:	c7 44 24 0c c9 03 00 	movl   $0x3c9,0xc(%esp)
   1344b:	00 
   1344c:	c7 44 24 08 38 af 01 	movl   $0x1af38,0x8(%esp)
   13453:	00 
   13454:	c7 44 24 04 38 af 01 	movl   $0x1af38,0x4(%esp)
   1345b:	00 
   1345c:	c7 04 24 24 b2 01 00 	movl   $0x1b224,(%esp)
   13463:	e8 c0 67 00 00       	call   0x19c28
   13468:	e8 63 72 00 00       	call   0x1a6d0
   1346d:	8b 45 fc             	mov    0xfffffffc(%ebp),%eax
   13470:	8b 55 f8             	mov    0xfffffff8(%ebp),%edx
   13473:	8b 44 82 70          	mov    0x70(%edx,%eax,4),%eax
   13477:	c7 40 08 00 00 00 00 	movl   $0x0,0x8(%eax)
   1347e:	83 45 fc 01          	addl   $0x1,0xfffffffc(%ebp)
   13482:	83 7d fc 1f          	cmpl   $0x1f,0xfffffffc(%ebp)
   13486:	0f 8e c7 fe ff ff    	jle    0x13353
   1348c:	c9                   	leave  
   1348d:	c3                   	ret    
   1348e:	00 00                	add    %al,(%eax)
   13490:	55                   	push   %ebp
   13491:	89 e5                	mov    %esp,%ebp
   13493:	53                   	push   %ebx
   13494:	83 ec 54             	sub    $0x54,%esp
   13497:	eb 00                	jmp    0x13499
   13499:	8d 45 d0             	lea    0xffffffd0(%ebp),%eax
   1349c:	89 44 24 08          	mov    %eax,0x8(%esp)
   134a0:	c7 44 24 04 ff ff ff 	movl   $0xffffffff,0x4(%esp)
   134a7:	ff 
   134a8:	c7 04 24 01 00 00 00 	movl   $0x1,(%esp)
   134af:	e8 3c 67 00 00       	call   0x19bf0
   134b4:	85 c0                	test   %eax,%eax
   134b6:	74 24                	je     0x134dc
   134b8:	c7 44 24 0c 0d 00 00 	movl   $0xd,0xc(%esp)
   134bf:	00 
   134c0:	c7 44 24 08 40 b3 01 	movl   $0x1b340,0x8(%esp)
   134c7:	00 
   134c8:	c7 44 24 04 40 b3 01 	movl   $0x1b340,0x4(%esp)
   134cf:	00 
   134d0:	c7 04 24 45 b3 01 00 	movl   $0x1b345,(%esp)
   134d7:	e8 4c 67 00 00       	call   0x19c28
   134dc:	8b 45 d8             	mov    0xffffffd8(%ebp),%eax
   134df:	83 f8 ff             	cmp    $0xffffffff,%eax
   134e2:	74 24                	je     0x13508
   134e4:	c7 44 24 0c 0e 00 00 	movl   $0xe,0xc(%esp)
   134eb:	00 
   134ec:	c7 44 24 08 40 b3 01 	movl   $0x1b340,0x8(%esp)
   134f3:	00 
   134f4:	c7 44 24 04 40 b3 01 	movl   $0x1b340,0x4(%esp)
   134fb:	00 
   134fc:	c7 04 24 62 b3 01 00 	movl   $0x1b362,(%esp)
   13503:	e8 20 67 00 00       	call   0x19c28
   13508:	8d 45 d0             	lea    0xffffffd0(%ebp),%eax
   1350b:	83 c0 0c             	add    $0xc,%eax
   1350e:	89 45 f8             	mov    %eax,0xfffffff8(%ebp)
   13511:	8b 55 d0             	mov    0xffffffd0(%ebp),%edx
   13514:	89 d0                	mov    %edx,%eax
   13516:	c1 e0 03             	shl    $0x3,%eax
   13519:	01 d0                	add    %edx,%eax
   1351b:	c1 e0 05             	shl    $0x5,%eax
   1351e:	8b 80 34 7a 04 00    	mov    0x47a34(%eax),%eax
   13524:	83 f8 02             	cmp    $0x2,%eax
   13527:	75 e8                	jne    0x13511
   13529:	8b 55 d0             	mov    0xffffffd0(%ebp),%edx
   1352c:	89 d0                	mov    %edx,%eax
   1352e:	c1 e0 03             	shl    $0x3,%eax
   13531:	01 d0                	add    %edx,%eax
   13533:	c1 e0 05             	shl    $0x5,%eax
   13536:	8b 80 34 7a 04 00    	mov    0x47a34(%eax),%eax
   1353c:	83 f8 02             	cmp    $0x2,%eax
   1353f:	74 24                	je     0x13565
   13541:	c7 44 24 0c 12 00 00 	movl   $0x12,0xc(%esp)
   13548:	00 
   13549:	c7 44 24 08 40 b3 01 	movl   $0x1b340,0x8(%esp)
   13550:	00 
   13551:	c7 44 24 04 40 b3 01 	movl   $0x1b340,0x4(%esp)
   13558:	00 
   13559:	c7 04 24 7c b3 01 00 	movl   $0x1b37c,(%esp)
   13560:	e8 c3 66 00 00       	call   0x19c28
   13565:	8b 55 d0             	mov    0xffffffd0(%ebp),%edx
   13568:	89 d0                	mov    %edx,%eax
   1356a:	c1 e0 03             	shl    $0x3,%eax
   1356d:	01 d0                	add    %edx,%eax
   1356f:	c1 e0 05             	shl    $0x5,%eax
   13572:	8b 80 44 7a 04 00    	mov    0x47a44(%eax),%eax
   13578:	83 f8 02             	cmp    $0x2,%eax
   1357b:	74 24                	je     0x135a1
   1357d:	c7 44 24 0c 13 00 00 	movl   $0x13,0xc(%esp)
   13584:	00 
   13585:	c7 44 24 08 40 b3 01 	movl   $0x1b340,0x8(%esp)
   1358c:	00 
   1358d:	c7 44 24 04 40 b3 01 	movl   $0x1b340,0x4(%esp)
   13594:	00 
   13595:	c7 04 24 a8 b3 01 00 	movl   $0x1b3a8,(%esp)
   1359c:	e8 87 66 00 00       	call   0x19c28
   135a1:	8b 45 f8             	mov    0xfffffff8(%ebp),%eax
   135a4:	8b 00                	mov    (%eax),%eax
   135a6:	89 45 c8             	mov    %eax,0xffffffc8(%ebp)
   135a9:	83 7d c8 04          	cmpl   $0x4,0xffffffc8(%ebp)
   135ad:	0f 87 cd 00 00 00    	ja     0x13680
   135b3:	8b 55 c8             	mov    0xffffffc8(%ebp),%edx
   135b6:	8b 04 95 fc b3 01 00 	mov    0x1b3fc(,%edx,4),%eax
   135bd:	ff e0                	jmp    *%eax
   135bf:	8b 45 f8             	mov    0xfffffff8(%ebp),%eax
   135c2:	0f b7 40 04          	movzwl 0x4(%eax),%eax
   135c6:	0f b7 c0             	movzwl %ax,%eax
   135c9:	89 04 24             	mov    %eax,(%esp)
   135cc:	e8 28 0e 00 00       	call   0x143f9
   135d1:	e9 aa 00 00 00       	jmp    0x13680
   135d6:	8b 45 f8             	mov    0xfffffff8(%ebp),%eax
   135d9:	0f b7 40 04          	movzwl 0x4(%eax),%eax
   135dd:	0f b7 c0             	movzwl %ax,%eax
   135e0:	89 04 24             	mov    %eax,(%esp)
   135e3:	e8 15 0f 00 00       	call   0x144fd
   135e8:	e9 93 00 00 00       	jmp    0x13680
   135ed:	8b 45 f8             	mov    0xfffffff8(%ebp),%eax
   135f0:	8b 48 0c             	mov    0xc(%eax),%ecx
   135f3:	8b 45 f8             	mov    0xfffffff8(%ebp),%eax
   135f6:	0f b7 40 06          	movzwl 0x6(%eax),%eax
   135fa:	0f b7 d8             	movzwl %ax,%ebx
   135fd:	8b 45 f8             	mov    0xfffffff8(%ebp),%eax
   13600:	0f b7 40 04          	movzwl 0x4(%eax),%eax
   13604:	0f b7 d0             	movzwl %ax,%edx
   13607:	8b 45 f8             	mov    0xfffffff8(%ebp),%eax
   1360a:	8b 40 08             	mov    0x8(%eax),%eax
   1360d:	89 4c 24 10          	mov    %ecx,0x10(%esp)
   13611:	89 5c 24 0c          	mov    %ebx,0xc(%esp)
   13615:	89 54 24 08          	mov    %edx,0x8(%esp)
   13619:	89 44 24 04          	mov    %eax,0x4(%esp)
   1361d:	c7 04 24 02 00 00 00 	movl   $0x2,(%esp)
   13624:	e8 65 0f 00 00       	call   0x1458e
   13629:	89 c2                	mov    %eax,%edx
   1362b:	8b 45 f8             	mov    0xfffffff8(%ebp),%eax
   1362e:	66 89 50 06          	mov    %dx,0x6(%eax)
   13632:	eb 4c                	jmp    0x13680
   13634:	8b 45 f8             	mov    0xfffffff8(%ebp),%eax
   13637:	8b 48 0c             	mov    0xc(%eax),%ecx
   1363a:	8b 45 f8             	mov    0xfffffff8(%ebp),%eax
   1363d:	0f b7 40 06          	movzwl 0x6(%eax),%eax
   13641:	0f b7 d8             	movzwl %ax,%ebx
   13644:	8b 45 f8             	mov    0xfffffff8(%ebp),%eax
   13647:	0f b7 40 04          	movzwl 0x4(%eax),%eax
   1364b:	0f b7 d0             	movzwl %ax,%edx
   1364e:	8b 45 f8             	mov    0xfffffff8(%ebp),%eax
   13651:	8b 40 08             	mov    0x8(%eax),%eax
   13654:	89 4c 24 10          	mov    %ecx,0x10(%esp)
   13658:	89 5c 24 0c          	mov    %ebx,0xc(%esp)
   1365c:	89 54 24 08          	mov    %edx,0x8(%esp)
   13660:	89 44 24 04          	mov    %eax,0x4(%esp)
   13664:	c7 04 24 03 00 00 00 	movl   $0x3,(%esp)
   1366b:	e8 1e 0f 00 00       	call   0x1458e
   13670:	89 c2                	mov    %eax,%edx
   13672:	8b 45 f8             	mov    0xfffffff8(%ebp),%eax
   13675:	66 89 50 06          	mov    %dx,0x6(%eax)
   13679:	eb 05                	jmp    0x13680
   1367b:	e8 39 12 00 00       	call   0x148b9
   13680:	8b 45 d0             	mov    0xffffffd0(%ebp),%eax
   13683:	8d 55 d0             	lea    0xffffffd0(%ebp),%edx
   13686:	89 54 24 08          	mov    %edx,0x8(%esp)
   1368a:	89 44 24 04          	mov    %eax,0x4(%esp)
   1368e:	c7 04 24 00 00 00 00 	movl   $0x0,(%esp)
   13695:	e8 56 65 00 00       	call   0x19bf0
   1369a:	85 c0                	test   %eax,%eax
   1369c:	0f 84 f7 fd ff ff    	je     0x13499
   136a2:	c7 44 24 0c 29 00 00 	movl   $0x29,0xc(%esp)
   136a9:	00 
   136aa:	c7 44 24 08 40 b3 01 	movl   $0x1b340,0x8(%esp)
   136b1:	00 
   136b2:	c7 44 24 04 40 b3 01 	movl   $0x1b340,0x4(%esp)
   136b9:	00 
   136ba:	c7 04 24 d8 b3 01 00 	movl   $0x1b3d8,(%esp)
   136c1:	e8 62 65 00 00       	call   0x19c28
   136c6:	e9 ce fd ff ff       	jmp    0x13499
   136cb:	55                   	push   %ebp
   136cc:	89 e5                	mov    %esp,%ebp
   136ce:	83 ec 10             	sub    $0x10,%esp
   136d1:	b8 75 04 00 00       	mov    $0x475,%eax
   136d6:	0f b6 00             	movzbl (%eax),%eax
   136d9:	a2 2c f4 01 00       	mov    %al,0x1f42c
   136de:	c7 45 f8 c0 ff 01 00 	movl   $0x1ffc0,0xfffffff8(%ebp)
   136e5:	e9 72 01 00 00       	jmp    0x1385c
   136ea:	8b 45 f8             	mov    0xfffffff8(%ebp),%eax
   136ed:	c7 00 00 00 00 00    	movl   $0x0,(%eax)
   136f3:	8b 45 f8             	mov    0xfffffff8(%ebp),%eax
   136f6:	c7 40 04 00 00 00 00 	movl   $0x0,0x4(%eax)
   136fd:	8b 45 f8             	mov    0xfffffff8(%ebp),%eax
   13700:	c7 40 08 00 00 00 00 	movl   $0x0,0x8(%eax)
   13707:	8b 45 f8             	mov    0xfffffff8(%ebp),%eax
   1370a:	c7 40 0c 00 00 00 00 	movl   $0x0,0xc(%eax)
   13711:	c7 45 fc 00 00 00 00 	movl   $0x0,0xfffffffc(%ebp)
   13718:	e9 8b 00 00 00       	jmp    0x137a8
   1371d:	8b 55 fc             	mov    0xfffffffc(%ebp),%edx
   13720:	8b 4d f8             	mov    0xfffffff8(%ebp),%ecx
   13723:	89 d0                	mov    %edx,%eax
   13725:	c1 e0 02             	shl    $0x2,%eax
   13728:	01 d0                	add    %edx,%eax
   1372a:	c1 e0 02             	shl    $0x2,%eax
   1372d:	01 c8                	add    %ecx,%eax
   1372f:	83 c0 10             	add    $0x10,%eax
   13732:	c7 00 ff ff ff ff    	movl   $0xffffffff,(%eax)
   13738:	8b 55 fc             	mov    0xfffffffc(%ebp),%edx
   1373b:	8b 4d f8             	mov    0xfffffff8(%ebp),%ecx
   1373e:	89 d0                	mov    %edx,%eax
   13740:	c1 e0 02             	shl    $0x2,%eax
   13743:	01 d0                	add    %edx,%eax
   13745:	c1 e0 02             	shl    $0x2,%eax
   13748:	01 c8                	add    %ecx,%eax
   1374a:	83 c0 14             	add    $0x14,%eax
   1374d:	c7 00 00 00 00 00    	movl   $0x0,(%eax)
   13753:	8b 55 fc             	mov    0xfffffffc(%ebp),%edx
   13756:	8b 4d f8             	mov    0xfffffff8(%ebp),%ecx
   13759:	89 d0                	mov    %edx,%eax
   1375b:	c1 e0 02             	shl    $0x2,%eax
   1375e:	01 d0                	add    %edx,%eax
   13760:	c1 e0 02             	shl    $0x2,%eax
   13763:	01 c8                	add    %ecx,%eax
   13765:	83 c0 18             	add    $0x18,%eax
   13768:	c7 00 00 00 00 00    	movl   $0x0,(%eax)
   1376e:	8b 55 fc             	mov    0xfffffffc(%ebp),%edx
   13771:	8b 4d f8             	mov    0xfffffff8(%ebp),%ecx
   13774:	89 d0                	mov    %edx,%eax
   13776:	c1 e0 02             	shl    $0x2,%eax
   13779:	01 d0                	add    %edx,%eax
   1377b:	c1 e0 02             	shl    $0x2,%eax
   1377e:	01 c8                	add    %ecx,%eax
   13780:	83 c0 1c             	add    $0x1c,%eax
   13783:	c7 00 00 00 00 00    	movl   $0x0,(%eax)
   13789:	8b 55 fc             	mov    0xfffffffc(%ebp),%edx
   1378c:	8b 4d f8             	mov    0xfffffff8(%ebp),%ecx
   1378f:	89 d0                	mov    %edx,%eax
   13791:	c1 e0 02             	shl    $0x2,%eax
   13794:	01 d0                	add    %edx,%eax
   13796:	c1 e0 02             	shl    $0x2,%eax
   13799:	01 c8                	add    %ecx,%eax
   1379b:	83 c0 20             	add    $0x20,%eax
   1379e:	c7 00 00 00 00 00    	movl   $0x0,(%eax)
   137a4:	83 45 fc 01          	addl   $0x1,0xfffffffc(%ebp)
   137a8:	83 7d fc 04          	cmpl   $0x4,0xfffffffc(%ebp)
   137ac:	0f 8e 6b ff ff ff    	jle    0x1371d
   137b2:	c7 45 fc 00 00 00 00 	movl   $0x0,0xfffffffc(%ebp)
   137b9:	e9 8d 00 00 00       	jmp    0x1384b
   137be:	8b 55 fc             	mov    0xfffffffc(%ebp),%edx
   137c1:	8b 4d f8             	mov    0xfffffff8(%ebp),%ecx
   137c4:	89 d0                	mov    %edx,%eax
   137c6:	c1 e0 02             	shl    $0x2,%eax
   137c9:	01 d0                	add    %edx,%eax
   137cb:	c1 e0 02             	shl    $0x2,%eax
   137ce:	01 c8                	add    %ecx,%eax
   137d0:	83 c0 74             	add    $0x74,%eax
   137d3:	c7 00 ff ff ff ff    	movl   $0xffffffff,(%eax)
   137d9:	8b 55 fc             	mov    0xfffffffc(%ebp),%edx
   137dc:	8b 4d f8             	mov    0xfffffff8(%ebp),%ecx
   137df:	89 d0                	mov    %edx,%eax
   137e1:	c1 e0 02             	shl    $0x2,%eax
   137e4:	01 d0                	add    %edx,%eax
   137e6:	c1 e0 02             	shl    $0x2,%eax
   137e9:	01 c8                	add    %ecx,%eax
   137eb:	83 c0 78             	add    $0x78,%eax
   137ee:	c7 00 00 00 00 00    	movl   $0x0,(%eax)
   137f4:	8b 55 fc             	mov    0xfffffffc(%ebp),%edx
   137f7:	8b 4d f8             	mov    0xfffffff8(%ebp),%ecx
   137fa:	89 d0                	mov    %edx,%eax
   137fc:	c1 e0 02             	shl    $0x2,%eax
   137ff:	01 d0                	add    %edx,%eax
   13801:	c1 e0 02             	shl    $0x2,%eax
   13804:	01 c8                	add    %ecx,%eax
   13806:	83 c0 7c             	add    $0x7c,%eax
   13809:	c7 00 00 00 00 00    	movl   $0x0,(%eax)
   1380f:	8b 55 fc             	mov    0xfffffffc(%ebp),%edx
   13812:	8b 4d f8             	mov    0xfffffff8(%ebp),%ecx
   13815:	89 d0                	mov    %edx,%eax
   13817:	c1 e0 02             	shl    $0x2,%eax
   1381a:	01 d0                	add    %edx,%eax
   1381c:	c1 e0 02             	shl    $0x2,%eax
   1381f:	01 c8                	add    %ecx,%eax
   13821:	83 e8 80             	sub    $0xffffff80,%eax
   13824:	c7 00 00 00 00 00    	movl   $0x0,(%eax)
   1382a:	8b 55 fc             	mov    0xfffffffc(%ebp),%edx
   1382d:	8b 4d f8             	mov    0xfffffff8(%ebp),%ecx
   13830:	89 d0                	mov    %edx,%eax
   13832:	c1 e0 02             	shl    $0x2,%eax
   13835:	01 d0                	add    %edx,%eax
   13837:	c1 e0 02             	shl    $0x2,%eax
   1383a:	01 c8                	add    %ecx,%eax
   1383c:	05 84 00 00 00       	add    $0x84,%eax
   13841:	c7 00 00 00 00 00    	movl   $0x0,(%eax)
   13847:	83 45 fc 01          	addl   $0x1,0xfffffffc(%ebp)
   1384b:	83 7d fc 3f          	cmpl   $0x3f,0xfffffffc(%ebp)
   1384f:	0f 8e 69 ff ff ff    	jle    0x137be
   13855:	81 45 f8 74 05 00 00 	addl   $0x574,0xfffffff8(%ebp)
   1385c:	b8 a8 0a 02 00       	mov    $0x20aa8,%eax
   13861:	39 45 f8             	cmp    %eax,0xfffffff8(%ebp)
   13864:	0f 82 80 fe ff ff    	jb     0x136ea
   1386a:	c9                   	leave  
   1386b:	c3                   	ret    
   1386c:	55                   	push   %ebp
   1386d:	89 e5                	mov    %esp,%ebp
   1386f:	83 ec 08             	sub    $0x8,%esp
   13872:	c7 04 24 f7 01 00 00 	movl   $0x1f7,(%esp)
   13879:	e8 07 6e 00 00       	call   0x1a685
   1387e:	b8 20 7c 04 00       	mov    $0x47c20,%eax
   13883:	89 04 24             	mov    %eax,(%esp)
   13886:	e8 71 1e 00 00       	call   0x156fc
   1388b:	c9                   	leave  
   1388c:	c3                   	ret    
   1388d:	55                   	push   %ebp
   1388e:	89 e5                	mov    %esp,%ebp
   13890:	83 ec 48             	sub    $0x48,%esp
   13893:	8b 45 08             	mov    0x8(%ebp),%eax
   13896:	66 89 45 cc          	mov    %ax,0xffffffcc(%ebp)
   1389a:	c7 45 e0 ff ff ff ff 	movl   $0xffffffff,0xffffffe0(%ebp)
   138a1:	c7 45 e4 00 00 00 00 	movl   $0x0,0xffffffe4(%ebp)
   138a8:	0f b7 45 cc          	movzwl 0xffffffcc(%ebp),%eax
   138ac:	66 89 45 e8          	mov    %ax,0xffffffe8(%ebp)
   138b0:	0f b7 45 cc          	movzwl 0xffffffcc(%ebp),%eax
   138b4:	89 44 24 04          	mov    %eax,0x4(%esp)
   138b8:	c7 04 24 10 b4 01 00 	movl   $0x1b410,(%esp)
   138bf:	e8 88 74 00 00       	call   0x1ad4c
   138c4:	8d 45 d8             	lea    0xffffffd8(%ebp),%eax
   138c7:	89 44 24 08          	mov    %eax,0x8(%esp)
   138cb:	c7 44 24 04 02 00 00 	movl   $0x2,0x4(%esp)
   138d2:	00 
   138d3:	c7 04 24 02 00 00 00 	movl   $0x2,(%esp)
   138da:	e8 11 63 00 00       	call   0x19bf0
   138df:	85 c0                	test   %eax,%eax
   138e1:	74 24                	je     0x13907
   138e3:	c7 44 24 0c 60 00 00 	movl   $0x60,0xc(%esp)
   138ea:	00 
   138eb:	c7 44 24 08 40 b3 01 	movl   $0x1b340,0x8(%esp)
   138f2:	00 
   138f3:	c7 44 24 04 40 b3 01 	movl   $0x1b340,0x4(%esp)
   138fa:	00 
   138fb:	c7 04 24 24 b4 01 00 	movl   $0x1b424,(%esp)
   13902:	e8 21 63 00 00       	call   0x19c28
   13907:	c9                   	leave  
   13908:	c3                   	ret    
   13909:	55                   	push   %ebp
   1390a:	89 e5                	mov    %esp,%ebp
   1390c:	83 ec 48             	sub    $0x48,%esp
   1390f:	8b 45 08             	mov    0x8(%ebp),%eax
   13912:	66 89 45 cc          	mov    %ax,0xffffffcc(%ebp)
   13916:	c7 45 e0 ff ff ff ff 	movl   $0xffffffff,0xffffffe0(%ebp)
   1391d:	c7 45 e4 01 00 00 00 	movl   $0x1,0xffffffe4(%ebp)
   13924:	0f b7 45 cc          	movzwl 0xffffffcc(%ebp),%eax
   13928:	66 89 45 e8          	mov    %ax,0xffffffe8(%ebp)
   1392c:	0f b7 45 cc          	movzwl 0xffffffcc(%ebp),%eax
   13930:	89 44 24 04          	mov    %eax,0x4(%esp)
   13934:	c7 04 24 49 b4 01 00 	movl   $0x1b449,(%esp)
   1393b:	e8 0c 74 00 00       	call   0x1ad4c
   13940:	8d 45 d8             	lea    0xffffffd8(%ebp),%eax
   13943:	89 44 24 08          	mov    %eax,0x8(%esp)
   13947:	c7 44 24 04 02 00 00 	movl   $0x2,0x4(%esp)
   1394e:	00 
   1394f:	c7 04 24 02 00 00 00 	movl   $0x2,(%esp)
   13956:	e8 95 62 00 00       	call   0x19bf0
   1395b:	85 c0                	test   %eax,%eax
   1395d:	74 24                	je     0x13983
   1395f:	c7 44 24 0c 6f 00 00 	movl   $0x6f,0xc(%esp)
   13966:	00 
   13967:	c7 44 24 08 40 b3 01 	movl   $0x1b340,0x8(%esp)
   1396e:	00 
   1396f:	c7 44 24 04 40 b3 01 	movl   $0x1b340,0x4(%esp)
   13976:	00 
   13977:	c7 04 24 24 b4 01 00 	movl   $0x1b424,(%esp)
   1397e:	e8 a5 62 00 00       	call   0x19c28
   13983:	c9                   	leave  
   13984:	c3                   	ret    
   13985:	55                   	push   %ebp
   13986:	89 e5                	mov    %esp,%ebp
   13988:	83 ec 48             	sub    $0x48,%esp
   1398b:	8b 45 08             	mov    0x8(%ebp),%eax
   1398e:	66 89 45 cc          	mov    %ax,0xffffffcc(%ebp)
   13992:	c7 45 e0 ff ff ff ff 	movl   $0xffffffff,0xffffffe0(%ebp)
   13999:	c7 45 e4 02 00 00 00 	movl   $0x2,0xffffffe4(%ebp)
   139a0:	0f b7 45 cc          	movzwl 0xffffffcc(%ebp),%eax
   139a4:	66 89 45 e8          	mov    %ax,0xffffffe8(%ebp)
   139a8:	8b 45 0c             	mov    0xc(%ebp),%eax
   139ab:	89 45 ec             	mov    %eax,0xffffffec(%ebp)
   139ae:	8b 45 10             	mov    0x10(%ebp),%eax
   139b1:	c1 e8 09             	shr    $0x9,%eax
   139b4:	89 45 f0             	mov    %eax,0xfffffff0(%ebp)
   139b7:	8b 45 14             	mov    0x14(%ebp),%eax
   139ba:	66 89 45 ea          	mov    %ax,0xffffffea(%ebp)
   139be:	8d 45 d8             	lea    0xffffffd8(%ebp),%eax
   139c1:	89 44 24 08          	mov    %eax,0x8(%esp)
   139c5:	c7 44 24 04 02 00 00 	movl   $0x2,0x4(%esp)
   139cc:	00 
   139cd:	c7 04 24 02 00 00 00 	movl   $0x2,(%esp)
   139d4:	e8 17 62 00 00       	call   0x19bf0
   139d9:	85 c0                	test   %eax,%eax
   139db:	74 24                	je     0x13a01
   139dd:	c7 44 24 0c 84 00 00 	movl   $0x84,0xc(%esp)
   139e4:	00 
   139e5:	c7 44 24 08 40 b3 01 	movl   $0x1b340,0x8(%esp)
   139ec:	00 
   139ed:	c7 44 24 04 40 b3 01 	movl   $0x1b340,0x4(%esp)
   139f4:	00 
   139f5:	c7 04 24 24 b4 01 00 	movl   $0x1b424,(%esp)
   139fc:	e8 27 62 00 00       	call   0x19c28
   13a01:	0f b7 45 ea          	movzwl 0xffffffea(%ebp),%eax
   13a05:	0f b7 c0             	movzwl %ax,%eax
   13a08:	c9                   	leave  
   13a09:	c3                   	ret    
   13a0a:	55                   	push   %ebp
   13a0b:	89 e5                	mov    %esp,%ebp
   13a0d:	83 ec 48             	sub    $0x48,%esp
   13a10:	8b 45 08             	mov    0x8(%ebp),%eax
   13a13:	66 89 45 cc          	mov    %ax,0xffffffcc(%ebp)
   13a17:	c7 45 e0 ff ff ff ff 	movl   $0xffffffff,0xffffffe0(%ebp)
   13a1e:	c7 45 e4 03 00 00 00 	movl   $0x3,0xffffffe4(%ebp)
   13a25:	0f b7 45 cc          	movzwl 0xffffffcc(%ebp),%eax
   13a29:	66 89 45 e8          	mov    %ax,0xffffffe8(%ebp)
   13a2d:	8b 45 0c             	mov    0xc(%ebp),%eax
   13a30:	89 45 ec             	mov    %eax,0xffffffec(%ebp)
   13a33:	8b 45 10             	mov    0x10(%ebp),%eax
   13a36:	c1 e8 09             	shr    $0x9,%eax
   13a39:	89 45 f0             	mov    %eax,0xfffffff0(%ebp)
   13a3c:	8b 45 14             	mov    0x14(%ebp),%eax
   13a3f:	66 89 45 ea          	mov    %ax,0xffffffea(%ebp)
   13a43:	8d 45 d8             	lea    0xffffffd8(%ebp),%eax
   13a46:	89 44 24 08          	mov    %eax,0x8(%esp)
   13a4a:	c7 44 24 04 02 00 00 	movl   $0x2,0x4(%esp)
   13a51:	00 
   13a52:	c7 04 24 02 00 00 00 	movl   $0x2,(%esp)
   13a59:	e8 92 61 00 00       	call   0x19bf0
   13a5e:	85 c0                	test   %eax,%eax
   13a60:	74 24                	je     0x13a86
   13a62:	c7 44 24 0c 9b 00 00 	movl   $0x9b,0xc(%esp)
   13a69:	00 
   13a6a:	c7 44 24 08 40 b3 01 	movl   $0x1b340,0x8(%esp)
   13a71:	00 
   13a72:	c7 44 24 04 40 b3 01 	movl   $0x1b340,0x4(%esp)
   13a79:	00 
   13a7a:	c7 04 24 24 b4 01 00 	movl   $0x1b424,(%esp)
   13a81:	e8 a2 61 00 00       	call   0x19c28
   13a86:	0f b7 45 ea          	movzwl 0xffffffea(%ebp),%eax
   13a8a:	0f b7 c0             	movzwl %ax,%eax
   13a8d:	c9                   	leave  
   13a8e:	c3                   	ret    
   13a8f:	55                   	push   %ebp
   13a90:	89 e5                	mov    %esp,%ebp
   13a92:	83 ec 48             	sub    $0x48,%esp
   13a95:	8b 45 08             	mov    0x8(%ebp),%eax
   13a98:	66 89 45 cc          	mov    %ax,0xffffffcc(%ebp)
   13a9c:	c7 45 e0 ff ff ff ff 	movl   $0xffffffff,0xffffffe0(%ebp)
   13aa3:	c7 45 e4 04 00 00 00 	movl   $0x4,0xffffffe4(%ebp)
   13aaa:	0f b7 45 cc          	movzwl 0xffffffcc(%ebp),%eax
   13aae:	66 89 45 e8          	mov    %ax,0xffffffe8(%ebp)
   13ab2:	0f b7 45 cc          	movzwl 0xffffffcc(%ebp),%eax
   13ab6:	89 44 24 04          	mov    %eax,0x4(%esp)
   13aba:	c7 04 24 5b b4 01 00 	movl   $0x1b45b,(%esp)
   13ac1:	e8 86 72 00 00       	call   0x1ad4c
   13ac6:	8d 45 d8             	lea    0xffffffd8(%ebp),%eax
   13ac9:	89 44 24 08          	mov    %eax,0x8(%esp)
   13acd:	c7 44 24 04 02 00 00 	movl   $0x2,0x4(%esp)
   13ad4:	00 
   13ad5:	c7 04 24 02 00 00 00 	movl   $0x2,(%esp)
   13adc:	e8 0f 61 00 00       	call   0x19bf0
   13ae1:	85 c0                	test   %eax,%eax
   13ae3:	74 24                	je     0x13b09
   13ae5:	c7 44 24 0c ab 00 00 	movl   $0xab,0xc(%esp)
   13aec:	00 
   13aed:	c7 44 24 08 40 b3 01 	movl   $0x1b340,0x8(%esp)
   13af4:	00 
   13af5:	c7 44 24 04 40 b3 01 	movl   $0x1b340,0x4(%esp)
   13afc:	00 
   13afd:	c7 04 24 24 b4 01 00 	movl   $0x1b424,(%esp)
   13b04:	e8 1f 61 00 00       	call   0x19c28
   13b09:	c9                   	leave  
   13b0a:	c3                   	ret    
   13b0b:	55                   	push   %ebp
   13b0c:	89 e5                	mov    %esp,%ebp
   13b0e:	83 ec 18             	sub    $0x18,%esp
   13b11:	e8 a2 68 00 00       	call   0x1a3b8
   13b16:	89 45 fc             	mov    %eax,0xfffffffc(%ebp)
   13b19:	eb 20                	jmp    0x13b3b
   13b1b:	c7 04 24 f7 01 00 00 	movl   $0x1f7,(%esp)
   13b22:	e8 5e 6b 00 00       	call   0x1a685
   13b27:	0f b6 c0             	movzbl %al,%eax
   13b2a:	23 45 08             	and    0x8(%ebp),%eax
   13b2d:	3b 45 0c             	cmp    0xc(%ebp),%eax
   13b30:	75 09                	jne    0x13b3b
   13b32:	c7 45 ec 00 00 00 00 	movl   $0x0,0xffffffec(%ebp)
   13b39:	eb 1a                	jmp    0x13b55
   13b3b:	e8 78 68 00 00       	call   0x1a3b8
   13b40:	89 c2                	mov    %eax,%edx
   13b42:	8b 45 fc             	mov    0xfffffffc(%ebp),%eax
   13b45:	29 c2                	sub    %eax,%edx
   13b47:	8b 45 10             	mov    0x10(%ebp),%eax
   13b4a:	39 c2                	cmp    %eax,%edx
   13b4c:	72 cd                	jb     0x13b1b
   13b4e:	c7 45 ec ff ff ff ff 	movl   $0xffffffff,0xffffffec(%ebp)
   13b55:	8b 45 ec             	mov    0xffffffec(%ebp),%eax
   13b58:	c9                   	leave  
   13b59:	c3                   	ret    
   13b5a:	55                   	push   %ebp
   13b5b:	89 e5                	mov    %esp,%ebp
   13b5d:	83 ec 18             	sub    $0x18,%esp
   13b60:	c7 44 24 08 64 00 00 	movl   $0x64,0x8(%esp)
   13b67:	00 
   13b68:	c7 44 24 04 00 00 00 	movl   $0x0,0x4(%esp)
   13b6f:	00 
   13b70:	c7 04 24 80 00 00 00 	movl   $0x80,(%esp)
   13b77:	e8 8f ff ff ff       	call   0x13b0b
   13b7c:	83 f8 ff             	cmp    $0xffffffff,%eax
   13b7f:	75 0e                	jne    0x13b8f
   13b81:	c7 04 24 70 b4 01 00 	movl   $0x1b470,(%esp)
   13b88:	e8 bf 71 00 00       	call   0x1ad4c
   13b8d:	eb fe                	jmp    0x13b8d
   13b8f:	c7 44 24 04 00 00 00 	movl   $0x0,0x4(%esp)
   13b96:	00 
   13b97:	c7 04 24 f6 03 00 00 	movl   $0x3f6,(%esp)
   13b9e:	e8 d3 6a 00 00       	call   0x1a676
   13ba3:	8b 45 08             	mov    0x8(%ebp),%eax
   13ba6:	0f b6 00             	movzbl (%eax),%eax
   13ba9:	0f b6 c0             	movzbl %al,%eax
   13bac:	89 44 24 04          	mov    %eax,0x4(%esp)
   13bb0:	c7 04 24 f1 01 00 00 	movl   $0x1f1,(%esp)
   13bb7:	e8 ba 6a 00 00       	call   0x1a676
   13bbc:	8b 45 08             	mov    0x8(%ebp),%eax
   13bbf:	0f b6 40 01          	movzbl 0x1(%eax),%eax
   13bc3:	0f b6 c0             	movzbl %al,%eax
   13bc6:	89 44 24 04          	mov    %eax,0x4(%esp)
   13bca:	c7 04 24 f2 01 00 00 	movl   $0x1f2,(%esp)
   13bd1:	e8 a0 6a 00 00       	call   0x1a676
   13bd6:	8b 45 08             	mov    0x8(%ebp),%eax
   13bd9:	0f b6 40 02          	movzbl 0x2(%eax),%eax
   13bdd:	0f b6 c0             	movzbl %al,%eax
   13be0:	89 44 24 04          	mov    %eax,0x4(%esp)
   13be4:	c7 04 24 f3 01 00 00 	movl   $0x1f3,(%esp)
   13beb:	e8 86 6a 00 00       	call   0x1a676
   13bf0:	8b 45 08             	mov    0x8(%ebp),%eax
   13bf3:	0f b6 40 03          	movzbl 0x3(%eax),%eax
   13bf7:	0f b6 c0             	movzbl %al,%eax
   13bfa:	89 44 24 04          	mov    %eax,0x4(%esp)
   13bfe:	c7 04 24 f4 01 00 00 	movl   $0x1f4,(%esp)
   13c05:	e8 6c 6a 00 00       	call   0x1a676
   13c0a:	8b 45 08             	mov    0x8(%ebp),%eax
   13c0d:	0f b6 40 04          	movzbl 0x4(%eax),%eax
   13c11:	0f b6 c0             	movzbl %al,%eax
   13c14:	89 44 24 04          	mov    %eax,0x4(%esp)
   13c18:	c7 04 24 f5 01 00 00 	movl   $0x1f5,(%esp)
   13c1f:	e8 52 6a 00 00       	call   0x1a676
   13c24:	8b 45 08             	mov    0x8(%ebp),%eax
   13c27:	0f b6 40 05          	movzbl 0x5(%eax),%eax
   13c2b:	0f b6 c0             	movzbl %al,%eax
   13c2e:	89 44 24 04          	mov    %eax,0x4(%esp)
   13c32:	c7 04 24 f6 01 00 00 	movl   $0x1f6,(%esp)
   13c39:	e8 38 6a 00 00       	call   0x1a676
   13c3e:	8b 45 08             	mov    0x8(%ebp),%eax
   13c41:	0f b6 40 06          	movzbl 0x6(%eax),%eax
   13c45:	0f b6 c0             	movzbl %al,%eax
   13c48:	89 44 24 04          	mov    %eax,0x4(%esp)
   13c4c:	c7 04 24 f7 01 00 00 	movl   $0x1f7,(%esp)
   13c53:	e8 1e 6a 00 00       	call   0x1a676
   13c58:	c9                   	leave  
   13c59:	c3                   	ret    
   13c5a:	55                   	push   %ebp
   13c5b:	89 e5                	mov    %esp,%ebp
   13c5d:	83 ec 08             	sub    $0x8,%esp
   13c60:	8b 45 08             	mov    0x8(%ebp),%eax
   13c63:	66 89 45 fc          	mov    %ax,0xfffffffc(%ebp)
   13c67:	eb 18                	jmp    0x13c81
   13c69:	0f b7 45 fc          	movzwl 0xfffffffc(%ebp),%eax
   13c6d:	89 04 24             	mov    %eax,(%esp)
   13c70:	e8 2d 6a 00 00       	call   0x1a6a2
   13c75:	89 c2                	mov    %eax,%edx
   13c77:	8b 45 0c             	mov    0xc(%ebp),%eax
   13c7a:	66 89 10             	mov    %dx,(%eax)
   13c7d:	83 45 0c 02          	addl   $0x2,0xc(%ebp)
   13c81:	83 7d 10 00          	cmpl   $0x0,0x10(%ebp)
   13c85:	0f 9f c0             	setg   %al
   13c88:	83 6d 10 01          	subl   $0x1,0x10(%ebp)
   13c8c:	84 c0                	test   %al,%al
   13c8e:	75 d9                	jne    0x13c69
   13c90:	b8 00 00 00 00       	mov    $0x0,%eax
   13c95:	c9                   	leave  
   13c96:	c3                   	ret    
   13c97:	55                   	push   %ebp
   13c98:	89 e5                	mov    %esp,%ebp
   13c9a:	83 ec 18             	sub    $0x18,%esp
   13c9d:	8b 45 08             	mov    0x8(%ebp),%eax
   13ca0:	66 89 45 fc          	mov    %ax,0xfffffffc(%ebp)
   13ca4:	eb 1d                	jmp    0x13cc3
   13ca6:	8b 45 0c             	mov    0xc(%ebp),%eax
   13ca9:	0f b7 00             	movzwl (%eax),%eax
   13cac:	0f b7 d0             	movzwl %ax,%edx
   13caf:	83 45 0c 02          	addl   $0x2,0xc(%ebp)
   13cb3:	0f b7 45 fc          	movzwl 0xfffffffc(%ebp),%eax
   13cb7:	89 54 24 04          	mov    %edx,0x4(%esp)
   13cbb:	89 04 24             	mov    %eax,(%esp)
   13cbe:	e8 cf 69 00 00       	call   0x1a692
   13cc3:	83 7d 10 00          	cmpl   $0x0,0x10(%ebp)
   13cc7:	0f 9f c0             	setg   %al
   13cca:	83 6d 10 01          	subl   $0x1,0x10(%ebp)
   13cce:	84 c0                	test   %al,%al
   13cd0:	75 d4                	jne    0x13ca6
   13cd2:	b8 00 00 00 00       	mov    $0x0,%eax
   13cd7:	c9                   	leave  
   13cd8:	c3                   	ret    
   13cd9:	55                   	push   %ebp
   13cda:	89 e5                	mov    %esp,%ebp
   13cdc:	81 ec 88 00 00 00    	sub    $0x88,%esp
   13ce2:	c7 45 90 0a 00 00 00 	movl   $0xa,0xffffff90(%ebp)
   13ce9:	c7 45 94 14 00 00 00 	movl   $0x14,0xffffff94(%ebp)
   13cf0:	c7 45 98 91 b4 01 00 	movl   $0x1b491,0xffffff98(%ebp)
   13cf7:	c7 45 9c 1b 00 00 00 	movl   $0x1b,0xffffff9c(%ebp)
   13cfe:	c7 45 a0 28 00 00 00 	movl   $0x28,0xffffffa0(%ebp)
   13d05:	c7 45 a4 97 b4 01 00 	movl   $0x1b497,0xffffffa4(%ebp)
   13d0c:	c7 45 ec 00 00 00 00 	movl   $0x0,0xffffffec(%ebp)
   13d13:	e9 ab 00 00 00       	jmp    0x13dc3
   13d18:	8b 55 ec             	mov    0xffffffec(%ebp),%edx
   13d1b:	89 d0                	mov    %edx,%eax
   13d1d:	01 c0                	add    %eax,%eax
   13d1f:	01 d0                	add    %edx,%eax
   13d21:	c1 e0 02             	shl    $0x2,%eax
   13d24:	01 e8                	add    %ebp,%eax
   13d26:	83 e8 70             	sub    $0x70,%eax
   13d29:	8b 00                	mov    (%eax),%eax
   13d2b:	01 c0                	add    %eax,%eax
   13d2d:	03 45 08             	add    0x8(%ebp),%eax
   13d30:	89 45 fc             	mov    %eax,0xfffffffc(%ebp)
   13d33:	c7 45 e8 00 00 00 00 	movl   $0x0,0xffffffe8(%ebp)
   13d3a:	eb 2e                	jmp    0x13d6a
   13d3c:	8b 45 e8             	mov    0xffffffe8(%ebp),%eax
   13d3f:	01 c0                	add    %eax,%eax
   13d41:	8d 50 01             	lea    0x1(%eax),%edx
   13d44:	8b 45 fc             	mov    0xfffffffc(%ebp),%eax
   13d47:	0f b6 00             	movzbl (%eax),%eax
   13d4a:	88 44 15 a8          	mov    %al,0xffffffa8(%ebp,%edx,1)
   13d4e:	83 45 fc 01          	addl   $0x1,0xfffffffc(%ebp)
   13d52:	8b 45 e8             	mov    0xffffffe8(%ebp),%eax
   13d55:	8d 14 00             	lea    (%eax,%eax,1),%edx
   13d58:	8b 45 fc             	mov    0xfffffffc(%ebp),%eax
   13d5b:	0f b6 00             	movzbl (%eax),%eax
   13d5e:	88 44 15 a8          	mov    %al,0xffffffa8(%ebp,%edx,1)
   13d62:	83 45 fc 01          	addl   $0x1,0xfffffffc(%ebp)
   13d66:	83 45 e8 01          	addl   $0x1,0xffffffe8(%ebp)
   13d6a:	8b 55 ec             	mov    0xffffffec(%ebp),%edx
   13d6d:	89 d0                	mov    %edx,%eax
   13d6f:	01 c0                	add    %eax,%eax
   13d71:	01 d0                	add    %edx,%eax
   13d73:	c1 e0 02             	shl    $0x2,%eax
   13d76:	01 e8                	add    %ebp,%eax
   13d78:	83 e8 6c             	sub    $0x6c,%eax
   13d7b:	8b 10                	mov    (%eax),%edx
   13d7d:	89 d0                	mov    %edx,%eax
   13d7f:	c1 e8 1f             	shr    $0x1f,%eax
   13d82:	01 d0                	add    %edx,%eax
   13d84:	d1 f8                	sar    %eax
   13d86:	3b 45 e8             	cmp    0xffffffe8(%ebp),%eax
   13d89:	7f b1                	jg     0x13d3c
   13d8b:	8b 45 e8             	mov    0xffffffe8(%ebp),%eax
   13d8e:	01 c0                	add    %eax,%eax
   13d90:	c6 44 05 a8 00       	movb   $0x0,0xffffffa8(%ebp,%eax,1)
   13d95:	8b 55 ec             	mov    0xffffffec(%ebp),%edx
   13d98:	89 d0                	mov    %edx,%eax
   13d9a:	01 c0                	add    %eax,%eax
   13d9c:	01 d0                	add    %edx,%eax
   13d9e:	c1 e0 02             	shl    $0x2,%eax
   13da1:	01 e8                	add    %ebp,%eax
   13da3:	83 e8 68             	sub    $0x68,%eax
   13da6:	8b 10                	mov    (%eax),%edx
   13da8:	8d 45 a8             	lea    0xffffffa8(%ebp),%eax
   13dab:	89 44 24 08          	mov    %eax,0x8(%esp)
   13daf:	89 54 24 04          	mov    %edx,0x4(%esp)
   13db3:	c7 04 24 a0 b4 01 00 	movl   $0x1b4a0,(%esp)
   13dba:	e8 8d 6f 00 00       	call   0x1ad4c
   13dbf:	83 45 ec 01          	addl   $0x1,0xffffffec(%ebp)
   13dc3:	8b 45 ec             	mov    0xffffffec(%ebp),%eax
   13dc6:	83 f8 01             	cmp    $0x1,%eax
   13dc9:	0f 86 49 ff ff ff    	jbe    0x13d18
   13dcf:	8b 45 08             	mov    0x8(%ebp),%eax
   13dd2:	83 c0 62             	add    $0x62,%eax
   13dd5:	0f b7 00             	movzwl (%eax),%eax
   13dd8:	0f b7 c0             	movzwl %ax,%eax
   13ddb:	89 45 f0             	mov    %eax,0xfffffff0(%ebp)
   13dde:	8b 45 f0             	mov    0xfffffff0(%ebp),%eax
   13de1:	25 00 02 00 00       	and    $0x200,%eax
   13de6:	85 c0                	test   %eax,%eax
   13de8:	74 09                	je     0x13df3
   13dea:	c7 45 88 a8 b4 01 00 	movl   $0x1b4a8,0xffffff88(%ebp)
   13df1:	eb 07                	jmp    0x13dfa
   13df3:	c7 45 88 ac b4 01 00 	movl   $0x1b4ac,0xffffff88(%ebp)
   13dfa:	8b 45 88             	mov    0xffffff88(%ebp),%eax
   13dfd:	89 44 24 04          	mov    %eax,0x4(%esp)
   13e01:	c7 04 24 af b4 01 00 	movl   $0x1b4af,(%esp)
   13e08:	e8 3f 6f 00 00       	call   0x1ad4c
   13e0d:	8b 45 08             	mov    0x8(%ebp),%eax
   13e10:	05 a6 00 00 00       	add    $0xa6,%eax
   13e15:	0f b7 00             	movzwl (%eax),%eax
   13e18:	0f b7 c0             	movzwl %ax,%eax
   13e1b:	89 45 f4             	mov    %eax,0xfffffff4(%ebp)
   13e1e:	8b 45 f4             	mov    0xfffffff4(%ebp),%eax
   13e21:	25 00 04 00 00       	and    $0x400,%eax
   13e26:	85 c0                	test   %eax,%eax
   13e28:	74 09                	je     0x13e33
   13e2a:	c7 45 8c a8 b4 01 00 	movl   $0x1b4a8,0xffffff8c(%ebp)
   13e31:	eb 07                	jmp    0x13e3a
   13e33:	c7 45 8c ac b4 01 00 	movl   $0x1b4ac,0xffffff8c(%ebp)
   13e3a:	8b 4d 8c             	mov    0xffffff8c(%ebp),%ecx
   13e3d:	89 4c 24 04          	mov    %ecx,0x4(%esp)
   13e41:	c7 04 24 c2 b4 01 00 	movl   $0x1b4c2,(%esp)
   13e48:	e8 ff 6e 00 00       	call   0x1ad4c
   13e4d:	8b 45 08             	mov    0x8(%ebp),%eax
   13e50:	83 c0 7a             	add    $0x7a,%eax
   13e53:	0f b7 00             	movzwl (%eax),%eax
   13e56:	0f b7 c0             	movzwl %ax,%eax
   13e59:	89 c2                	mov    %eax,%edx
   13e5b:	c1 e2 10             	shl    $0x10,%edx
   13e5e:	8b 45 08             	mov    0x8(%ebp),%eax
   13e61:	83 c0 78             	add    $0x78,%eax
   13e64:	0f b7 00             	movzwl (%eax),%eax
   13e67:	0f b7 c0             	movzwl %ax,%eax
   13e6a:	8d 04 02             	lea    (%edx,%eax,1),%eax
   13e6d:	89 45 f8             	mov    %eax,0xfffffff8(%ebp)
   13e70:	8b 45 f8             	mov    0xfffffff8(%ebp),%eax
   13e73:	89 c1                	mov    %eax,%ecx
   13e75:	c1 e1 09             	shl    $0x9,%ecx
   13e78:	c7 45 84 83 de 1b 43 	movl   $0x431bde83,0xffffff84(%ebp)
   13e7f:	8b 45 84             	mov    0xffffff84(%ebp),%eax
   13e82:	f7 e9                	imul   %ecx
   13e84:	c1 fa 12             	sar    $0x12,%edx
   13e87:	89 c8                	mov    %ecx,%eax
   13e89:	c1 f8 1f             	sar    $0x1f,%eax
   13e8c:	89 d1                	mov    %edx,%ecx
   13e8e:	29 c1                	sub    %eax,%ecx
   13e90:	89 c8                	mov    %ecx,%eax
   13e92:	89 44 24 04          	mov    %eax,0x4(%esp)
   13e96:	c7 04 24 d7 b4 01 00 	movl   $0x1b4d7,(%esp)
   13e9d:	e8 aa 6e 00 00       	call   0x1ad4c
   13ea2:	c9                   	leave  
   13ea3:	c3                   	ret    
   13ea4:	55                   	push   %ebp
   13ea5:	89 e5                	mov    %esp,%ebp
   13ea7:	53                   	push   %ebx
   13ea8:	83 ec 44             	sub    $0x44,%esp
   13eab:	8b 45 08             	mov    0x8(%ebp),%eax
   13eae:	88 45 c8             	mov    %al,0xffffffc8(%ebp)
   13eb1:	0f b6 45 c8          	movzbl 0xffffffc8(%ebp),%eax
   13eb5:	69 c0 74 05 00 00    	imul   $0x574,%eax,%eax
   13ebb:	05 c0 ff 01 00       	add    $0x1ffc0,%eax
   13ec0:	89 45 e0             	mov    %eax,0xffffffe0(%ebp)
   13ec3:	c6 45 da 01          	movb   $0x1,0xffffffda(%ebp)
   13ec7:	c6 45 db 00          	movb   $0x0,0xffffffdb(%ebp)
   13ecb:	c6 45 dc 00          	movb   $0x0,0xffffffdc(%ebp)
   13ecf:	c6 45 dd 00          	movb   $0x0,0xffffffdd(%ebp)
   13ed3:	0f b6 45 c8          	movzbl 0xffffffc8(%ebp),%eax
   13ed7:	c1 e0 04             	shl    $0x4,%eax
   13eda:	89 c2                	mov    %eax,%edx
   13edc:	b8 e0 ff ff ff       	mov    $0xffffffe0,%eax
   13ee1:	09 d0                	or     %edx,%eax
   13ee3:	88 45 de             	mov    %al,0xffffffde(%ebp)
   13ee6:	c6 45 df 20          	movb   $0x20,0xffffffdf(%ebp)
   13eea:	8d 45 d9             	lea    0xffffffd9(%ebp),%eax
   13eed:	89 04 24             	mov    %eax,(%esp)
   13ef0:	e8 65 fc ff ff       	call   0x13b5a
   13ef5:	e8 13 0e 00 00       	call   0x14d0d
   13efa:	b8 c0 47 04 00       	mov    $0x447c0,%eax
   13eff:	c7 44 24 08 00 01 00 	movl   $0x100,0x8(%esp)
   13f06:	00 
   13f07:	89 44 24 04          	mov    %eax,0x4(%esp)
   13f0b:	c7 04 24 f0 01 00 00 	movl   $0x1f0,(%esp)
   13f12:	e8 43 fd ff ff       	call   0x13c5a
   13f17:	b8 c0 47 04 00       	mov    $0x447c0,%eax
   13f1c:	05 be 01 00 00       	add    $0x1be,%eax
   13f21:	89 45 e4             	mov    %eax,0xffffffe4(%ebp)
   13f24:	c7 45 e8 01 00 00 00 	movl   $0x1,0xffffffe8(%ebp)
   13f2b:	e9 f5 00 00 00       	jmp    0x14025
   13f30:	8b 45 e4             	mov    0xffffffe4(%ebp),%eax
   13f33:	8b 40 0c             	mov    0xc(%eax),%eax
   13f36:	85 c0                	test   %eax,%eax
   13f38:	0f 84 df 00 00 00    	je     0x1401d
   13f3e:	8b 55 e8             	mov    0xffffffe8(%ebp),%edx
   13f41:	8b 45 e4             	mov    0xffffffe4(%ebp),%eax
   13f44:	8b 58 08             	mov    0x8(%eax),%ebx
   13f47:	8b 4d e0             	mov    0xffffffe0(%ebp),%ecx
   13f4a:	89 d0                	mov    %edx,%eax
   13f4c:	c1 e0 02             	shl    $0x2,%eax
   13f4f:	01 d0                	add    %edx,%eax
   13f51:	c1 e0 02             	shl    $0x2,%eax
   13f54:	01 c8                	add    %ecx,%eax
   13f56:	83 c0 14             	add    $0x14,%eax
   13f59:	89 18                	mov    %ebx,(%eax)
   13f5b:	8b 55 e8             	mov    0xffffffe8(%ebp),%edx
   13f5e:	8b 45 e4             	mov    0xffffffe4(%ebp),%eax
   13f61:	8b 58 0c             	mov    0xc(%eax),%ebx
   13f64:	8b 4d e0             	mov    0xffffffe0(%ebp),%ecx
   13f67:	89 d0                	mov    %edx,%eax
   13f69:	c1 e0 02             	shl    $0x2,%eax
   13f6c:	01 d0                	add    %edx,%eax
   13f6e:	c1 e0 02             	shl    $0x2,%eax
   13f71:	01 c8                	add    %ecx,%eax
   13f73:	83 c0 18             	add    $0x18,%eax
   13f76:	89 18                	mov    %ebx,(%eax)
   13f78:	8b 55 e8             	mov    0xffffffe8(%ebp),%edx
   13f7b:	8b 45 e4             	mov    0xffffffe4(%ebp),%eax
   13f7e:	8b 40 08             	mov    0x8(%eax),%eax
   13f81:	89 c3                	mov    %eax,%ebx
   13f83:	c1 e3 09             	shl    $0x9,%ebx
   13f86:	8b 4d e0             	mov    0xffffffe0(%ebp),%ecx
   13f89:	89 d0                	mov    %edx,%eax
   13f8b:	c1 e0 02             	shl    $0x2,%eax
   13f8e:	01 d0                	add    %edx,%eax
   13f90:	c1 e0 02             	shl    $0x2,%eax
   13f93:	01 c8                	add    %ecx,%eax
   13f95:	83 c0 1c             	add    $0x1c,%eax
   13f98:	89 18                	mov    %ebx,(%eax)
   13f9a:	8b 55 e8             	mov    0xffffffe8(%ebp),%edx
   13f9d:	8b 45 e4             	mov    0xffffffe4(%ebp),%eax
   13fa0:	8b 40 0c             	mov    0xc(%eax),%eax
   13fa3:	89 c3                	mov    %eax,%ebx
   13fa5:	c1 e3 09             	shl    $0x9,%ebx
   13fa8:	8b 4d e0             	mov    0xffffffe0(%ebp),%ecx
   13fab:	89 d0                	mov    %edx,%eax
   13fad:	c1 e0 02             	shl    $0x2,%eax
   13fb0:	01 d0                	add    %edx,%eax
   13fb2:	c1 e0 02             	shl    $0x2,%eax
   13fb5:	01 c8                	add    %ecx,%eax
   13fb7:	83 c0 20             	add    $0x20,%eax
   13fba:	89 18                	mov    %ebx,(%eax)
   13fbc:	8b 45 e4             	mov    0xffffffe4(%ebp),%eax
   13fbf:	0f b6 40 04          	movzbl 0x4(%eax),%eax
   13fc3:	3c 05                	cmp    $0x5,%al
   13fc5:	74 2c                	je     0x13ff3
   13fc7:	8b 45 e0             	mov    0xffffffe0(%ebp),%eax
   13fca:	8b 40 04             	mov    0x4(%eax),%eax
   13fcd:	8d 50 01             	lea    0x1(%eax),%edx
   13fd0:	8b 45 e0             	mov    0xffffffe0(%ebp),%eax
   13fd3:	89 50 04             	mov    %edx,0x4(%eax)
   13fd6:	8b 55 e8             	mov    0xffffffe8(%ebp),%edx
   13fd9:	8b 4d e0             	mov    0xffffffe0(%ebp),%ecx
   13fdc:	89 d0                	mov    %edx,%eax
   13fde:	c1 e0 02             	shl    $0x2,%eax
   13fe1:	01 d0                	add    %edx,%eax
   13fe3:	c1 e0 02             	shl    $0x2,%eax
   13fe6:	01 c8                	add    %ecx,%eax
   13fe8:	83 c0 10             	add    $0x10,%eax
   13feb:	c7 00 00 00 00 00    	movl   $0x0,(%eax)
   13ff1:	eb 2a                	jmp    0x1401d
   13ff3:	8b 45 e0             	mov    0xffffffe0(%ebp),%eax
   13ff6:	8b 40 08             	mov    0x8(%eax),%eax
   13ff9:	8d 50 01             	lea    0x1(%eax),%edx
   13ffc:	8b 45 e0             	mov    0xffffffe0(%ebp),%eax
   13fff:	89 50 08             	mov    %edx,0x8(%eax)
   14002:	8b 55 e8             	mov    0xffffffe8(%ebp),%edx
   14005:	8b 4d e0             	mov    0xffffffe0(%ebp),%ecx
   14008:	89 d0                	mov    %edx,%eax
   1400a:	c1 e0 02             	shl    $0x2,%eax
   1400d:	01 d0                	add    %edx,%eax
   1400f:	c1 e0 02             	shl    $0x2,%eax
   14012:	01 c8                	add    %ecx,%eax
   14014:	83 c0 10             	add    $0x10,%eax
   14017:	c7 00 01 00 00 00    	movl   $0x1,(%eax)
   1401d:	83 45 e8 01          	addl   $0x1,0xffffffe8(%ebp)
   14021:	83 45 e4 10          	addl   $0x10,0xffffffe4(%ebp)
   14025:	83 7d e8 04          	cmpl   $0x4,0xffffffe8(%ebp)
   14029:	0f 8e 01 ff ff ff    	jle    0x13f30
   1402f:	c7 45 e8 01 00 00 00 	movl   $0x1,0xffffffe8(%ebp)
   14036:	e9 c4 01 00 00       	jmp    0x141ff
   1403b:	8b 55 e8             	mov    0xffffffe8(%ebp),%edx
   1403e:	8b 4d e0             	mov    0xffffffe0(%ebp),%ecx
   14041:	89 d0                	mov    %edx,%eax
   14043:	c1 e0 02             	shl    $0x2,%eax
   14046:	01 d0                	add    %edx,%eax
   14048:	c1 e0 02             	shl    $0x2,%eax
   1404b:	01 c8                	add    %ecx,%eax
   1404d:	83 c0 10             	add    $0x10,%eax
   14050:	8b 00                	mov    (%eax),%eax
   14052:	83 f8 01             	cmp    $0x1,%eax
   14055:	0f 85 a0 01 00 00    	jne    0x141fb
   1405b:	8b 55 e8             	mov    0xffffffe8(%ebp),%edx
   1405e:	8b 4d e0             	mov    0xffffffe0(%ebp),%ecx
   14061:	89 d0                	mov    %edx,%eax
   14063:	c1 e0 02             	shl    $0x2,%eax
   14066:	01 d0                	add    %edx,%eax
   14068:	c1 e0 02             	shl    $0x2,%eax
   1406b:	01 c8                	add    %ecx,%eax
   1406d:	83 c0 14             	add    $0x14,%eax
   14070:	8b 00                	mov    (%eax),%eax
   14072:	89 45 ec             	mov    %eax,0xffffffec(%ebp)
   14075:	8b 45 ec             	mov    0xffffffec(%ebp),%eax
   14078:	89 45 f0             	mov    %eax,0xfffffff0(%ebp)
   1407b:	c7 45 f4 00 00 00 00 	movl   $0x0,0xfffffff4(%ebp)
   14082:	c6 45 da 01          	movb   $0x1,0xffffffda(%ebp)
   14086:	8b 45 f0             	mov    0xfffffff0(%ebp),%eax
   14089:	89 c2                	mov    %eax,%edx
   1408b:	b8 ff ff ff ff       	mov    $0xffffffff,%eax
   14090:	21 d0                	and    %edx,%eax
   14092:	88 45 db             	mov    %al,0xffffffdb(%ebp)
   14095:	8b 45 f0             	mov    0xfffffff0(%ebp),%eax
   14098:	c1 f8 08             	sar    $0x8,%eax
   1409b:	89 c2                	mov    %eax,%edx
   1409d:	b8 ff ff ff ff       	mov    $0xffffffff,%eax
   140a2:	21 d0                	and    %edx,%eax
   140a4:	88 45 dc             	mov    %al,0xffffffdc(%ebp)
   140a7:	8b 45 f0             	mov    0xfffffff0(%ebp),%eax
   140aa:	c1 f8 10             	sar    $0x10,%eax
   140ad:	89 c2                	mov    %eax,%edx
   140af:	b8 ff ff ff ff       	mov    $0xffffffff,%eax
   140b4:	21 d0                	and    %edx,%eax
   140b6:	88 45 dd             	mov    %al,0xffffffdd(%ebp)
   140b9:	0f b6 45 c8          	movzbl 0xffffffc8(%ebp),%eax
   140bd:	c1 e0 04             	shl    $0x4,%eax
   140c0:	89 c2                	mov    %eax,%edx
   140c2:	83 ca 40             	or     $0x40,%edx
   140c5:	8b 45 f0             	mov    0xfffffff0(%ebp),%eax
   140c8:	c1 f8 18             	sar    $0x18,%eax
   140cb:	83 e0 0f             	and    $0xf,%eax
   140ce:	09 c2                	or     %eax,%edx
   140d0:	b8 a0 ff ff ff       	mov    $0xffffffa0,%eax
   140d5:	09 d0                	or     %edx,%eax
   140d7:	88 45 de             	mov    %al,0xffffffde(%ebp)
   140da:	c6 45 df 20          	movb   $0x20,0xffffffdf(%ebp)
   140de:	8d 45 d9             	lea    0xffffffd9(%ebp),%eax
   140e1:	89 04 24             	mov    %eax,(%esp)
   140e4:	e8 71 fa ff ff       	call   0x13b5a
   140e9:	e8 1f 0c 00 00       	call   0x14d0d
   140ee:	b8 c0 47 04 00       	mov    $0x447c0,%eax
   140f3:	c7 44 24 08 00 01 00 	movl   $0x100,0x8(%esp)
   140fa:	00 
   140fb:	89 44 24 04          	mov    %eax,0x4(%esp)
   140ff:	c7 04 24 f0 01 00 00 	movl   $0x1f0,(%esp)
   14106:	e8 4f fb ff ff       	call   0x13c5a
   1410b:	b8 c0 47 04 00       	mov    $0x447c0,%eax
   14110:	05 be 01 00 00       	add    $0x1be,%eax
   14115:	89 45 e4             	mov    %eax,0xffffffe4(%ebp)
   14118:	8b 45 e4             	mov    0xffffffe4(%ebp),%eax
   1411b:	8b 40 0c             	mov    0xc(%eax),%eax
   1411e:	85 c0                	test   %eax,%eax
   14120:	0f 84 d5 00 00 00    	je     0x141fb
   14126:	8b 45 e8             	mov    0xffffffe8(%ebp),%eax
   14129:	c1 e0 04             	shl    $0x4,%eax
   1412c:	83 e8 10             	sub    $0x10,%eax
   1412f:	03 45 f4             	add    0xfffffff4(%ebp),%eax
   14132:	89 45 f8             	mov    %eax,0xfffffff8(%ebp)
   14135:	8b 55 f8             	mov    0xfffffff8(%ebp),%edx
   14138:	8b 4d e0             	mov    0xffffffe0(%ebp),%ecx
   1413b:	89 d0                	mov    %edx,%eax
   1413d:	c1 e0 02             	shl    $0x2,%eax
   14140:	01 d0                	add    %edx,%eax
   14142:	c1 e0 02             	shl    $0x2,%eax
   14145:	01 c8                	add    %ecx,%eax
   14147:	83 c0 74             	add    $0x74,%eax
   1414a:	c7 00 02 00 00 00    	movl   $0x2,(%eax)
   14150:	8b 55 f8             	mov    0xfffffff8(%ebp),%edx
   14153:	8b 45 e4             	mov    0xffffffe4(%ebp),%eax
   14156:	8b 40 08             	mov    0x8(%eax),%eax
   14159:	89 c3                	mov    %eax,%ebx
   1415b:	03 5d f0             	add    0xfffffff0(%ebp),%ebx
   1415e:	8b 4d e0             	mov    0xffffffe0(%ebp),%ecx
   14161:	89 d0                	mov    %edx,%eax
   14163:	c1 e0 02             	shl    $0x2,%eax
   14166:	01 d0                	add    %edx,%eax
   14168:	c1 e0 02             	shl    $0x2,%eax
   1416b:	01 c8                	add    %ecx,%eax
   1416d:	83 c0 78             	add    $0x78,%eax
   14170:	89 18                	mov    %ebx,(%eax)
   14172:	8b 55 f8             	mov    0xfffffff8(%ebp),%edx
   14175:	8b 45 e4             	mov    0xffffffe4(%ebp),%eax
   14178:	8b 58 0c             	mov    0xc(%eax),%ebx
   1417b:	8b 4d e0             	mov    0xffffffe0(%ebp),%ecx
   1417e:	89 d0                	mov    %edx,%eax
   14180:	c1 e0 02             	shl    $0x2,%eax
   14183:	01 d0                	add    %edx,%eax
   14185:	c1 e0 02             	shl    $0x2,%eax
   14188:	01 c8                	add    %ecx,%eax
   1418a:	83 c0 7c             	add    $0x7c,%eax
   1418d:	89 18                	mov    %ebx,(%eax)
   1418f:	8b 4d f8             	mov    0xfffffff8(%ebp),%ecx
   14192:	8b 45 e4             	mov    0xffffffe4(%ebp),%eax
   14195:	8b 40 08             	mov    0x8(%eax),%eax
   14198:	03 45 f0             	add    0xfffffff0(%ebp),%eax
   1419b:	89 c3                	mov    %eax,%ebx
   1419d:	c1 e3 09             	shl    $0x9,%ebx
   141a0:	8b 55 e0             	mov    0xffffffe0(%ebp),%edx
   141a3:	89 c8                	mov    %ecx,%eax
   141a5:	c1 e0 02             	shl    $0x2,%eax
   141a8:	01 c8                	add    %ecx,%eax
   141aa:	c1 e0 02             	shl    $0x2,%eax
   141ad:	01 d0                	add    %edx,%eax
   141af:	83 e8 80             	sub    $0xffffff80,%eax
   141b2:	89 18                	mov    %ebx,(%eax)
   141b4:	8b 55 f8             	mov    0xfffffff8(%ebp),%edx
   141b7:	8b 45 e4             	mov    0xffffffe4(%ebp),%eax
   141ba:	8b 40 0c             	mov    0xc(%eax),%eax
   141bd:	89 c3                	mov    %eax,%ebx
   141bf:	c1 e3 09             	shl    $0x9,%ebx
   141c2:	8b 4d e0             	mov    0xffffffe0(%ebp),%ecx
   141c5:	89 d0                	mov    %edx,%eax
   141c7:	c1 e0 02             	shl    $0x2,%eax
   141ca:	01 d0                	add    %edx,%eax
   141cc:	c1 e0 02             	shl    $0x2,%eax
   141cf:	01 c8                	add    %ecx,%eax
   141d1:	05 84 00 00 00       	add    $0x84,%eax
   141d6:	89 18                	mov    %ebx,(%eax)
   141d8:	83 45 f4 01          	addl   $0x1,0xfffffff4(%ebp)
   141dc:	83 45 e4 10          	addl   $0x10,0xffffffe4(%ebp)
   141e0:	8b 45 e4             	mov    0xffffffe4(%ebp),%eax
   141e3:	8b 40 0c             	mov    0xc(%eax),%eax
   141e6:	85 c0                	test   %eax,%eax
   141e8:	74 11                	je     0x141fb
   141ea:	8b 45 e4             	mov    0xffffffe4(%ebp),%eax
   141ed:	8b 40 08             	mov    0x8(%eax),%eax
   141f0:	03 45 ec             	add    0xffffffec(%ebp),%eax
   141f3:	89 45 f0             	mov    %eax,0xfffffff0(%ebp)
   141f6:	e9 87 fe ff ff       	jmp    0x14082
   141fb:	83 45 e8 01          	addl   $0x1,0xffffffe8(%ebp)
   141ff:	83 7d e8 04          	cmpl   $0x4,0xffffffe8(%ebp)
   14203:	0f 8e 32 fe ff ff    	jle    0x1403b
   14209:	83 c4 44             	add    $0x44,%esp
   1420c:	5b                   	pop    %ebx
   1420d:	5d                   	pop    %ebp
   1420e:	c3                   	ret    
   1420f:	55                   	push   %ebp
   14210:	89 e5                	mov    %esp,%ebp
   14212:	83 ec 58             	sub    $0x58,%esp
   14215:	8b 45 08             	mov    0x8(%ebp),%eax
   14218:	66 89 45 cc          	mov    %ax,0xffffffcc(%ebp)
   1421c:	0f b7 45 cc          	movzwl 0xffffffcc(%ebp),%eax
   14220:	69 c0 74 05 00 00    	imul   $0x574,%eax,%eax
   14226:	05 c0 ff 01 00       	add    $0x1ffc0,%eax
   1422b:	89 45 d0             	mov    %eax,0xffffffd0(%ebp)
   1422e:	c7 45 d4 00 00 00 00 	movl   $0x0,0xffffffd4(%ebp)
   14235:	e9 e3 00 00 00       	jmp    0x1431d
   1423a:	8b 55 d4             	mov    0xffffffd4(%ebp),%edx
   1423d:	8b 4d d0             	mov    0xffffffd0(%ebp),%ecx
   14240:	89 d0                	mov    %edx,%eax
   14242:	c1 e0 02             	shl    $0x2,%eax
   14245:	01 d0                	add    %edx,%eax
   14247:	c1 e0 02             	shl    $0x2,%eax
   1424a:	01 c8                	add    %ecx,%eax
   1424c:	83 c0 10             	add    $0x10,%eax
   1424f:	8b 00                	mov    (%eax),%eax
   14251:	83 f8 ff             	cmp    $0xffffffff,%eax
   14254:	0f 84 bf 00 00 00    	je     0x14319
   1425a:	0f b7 55 cc          	movzwl 0xffffffcc(%ebp),%edx
   1425e:	89 d0                	mov    %edx,%eax
   14260:	c1 e0 02             	shl    $0x2,%eax
   14263:	01 d0                	add    %edx,%eax
   14265:	03 45 d4             	add    0xffffffd4(%ebp),%eax
   14268:	89 45 d8             	mov    %eax,0xffffffd8(%ebp)
   1426b:	8b 55 d4             	mov    0xffffffd4(%ebp),%edx
   1426e:	8b 4d d0             	mov    0xffffffd0(%ebp),%ecx
   14271:	89 d0                	mov    %edx,%eax
   14273:	c1 e0 02             	shl    $0x2,%eax
   14276:	01 d0                	add    %edx,%eax
   14278:	c1 e0 02             	shl    $0x2,%eax
   1427b:	01 c8                	add    %ecx,%eax
   1427d:	83 c0 10             	add    $0x10,%eax
   14280:	8b 00                	mov    (%eax),%eax
   14282:	85 c0                	test   %eax,%eax
   14284:	75 09                	jne    0x1428f
   14286:	c7 45 c8 e6 b4 01 00 	movl   $0x1b4e6,0xffffffc8(%ebp)
   1428d:	eb 07                	jmp    0x14296
   1428f:	c7 45 c8 f5 b4 01 00 	movl   $0x1b4f5,0xffffffc8(%ebp)
   14296:	8b 45 c8             	mov    0xffffffc8(%ebp),%eax
   14299:	89 45 dc             	mov    %eax,0xffffffdc(%ebp)
   1429c:	8b 55 d4             	mov    0xffffffd4(%ebp),%edx
   1429f:	8b 4d d0             	mov    0xffffffd0(%ebp),%ecx
   142a2:	89 d0                	mov    %edx,%eax
   142a4:	c1 e0 02             	shl    $0x2,%eax
   142a7:	01 d0                	add    %edx,%eax
   142a9:	c1 e0 02             	shl    $0x2,%eax
   142ac:	01 c8                	add    %ecx,%eax
   142ae:	83 c0 14             	add    $0x14,%eax
   142b1:	8b 00                	mov    (%eax),%eax
   142b3:	89 45 e0             	mov    %eax,0xffffffe0(%ebp)
   142b6:	8b 55 d4             	mov    0xffffffd4(%ebp),%edx
   142b9:	8b 4d d0             	mov    0xffffffd0(%ebp),%ecx
   142bc:	89 d0                	mov    %edx,%eax
   142be:	c1 e0 02             	shl    $0x2,%eax
   142c1:	01 d0                	add    %edx,%eax
   142c3:	c1 e0 02             	shl    $0x2,%eax
   142c6:	01 c8                	add    %ecx,%eax
   142c8:	83 c0 1c             	add    $0x1c,%eax
   142cb:	8b 00                	mov    (%eax),%eax
   142cd:	89 45 e4             	mov    %eax,0xffffffe4(%ebp)
   142d0:	8b 55 d4             	mov    0xffffffd4(%ebp),%edx
   142d3:	8b 4d d0             	mov    0xffffffd0(%ebp),%ecx
   142d6:	89 d0                	mov    %edx,%eax
   142d8:	c1 e0 02             	shl    $0x2,%eax
   142db:	01 d0                	add    %edx,%eax
   142dd:	c1 e0 02             	shl    $0x2,%eax
   142e0:	01 c8                	add    %ecx,%eax
   142e2:	83 c0 20             	add    $0x20,%eax
   142e5:	8b 00                	mov    (%eax),%eax
   142e7:	89 45 e8             	mov    %eax,0xffffffe8(%ebp)
   142ea:	8b 45 e8             	mov    0xffffffe8(%ebp),%eax
   142ed:	89 44 24 14          	mov    %eax,0x14(%esp)
   142f1:	8b 45 e4             	mov    0xffffffe4(%ebp),%eax
   142f4:	89 44 24 10          	mov    %eax,0x10(%esp)
   142f8:	8b 45 e0             	mov    0xffffffe0(%ebp),%eax
   142fb:	89 44 24 0c          	mov    %eax,0xc(%esp)
   142ff:	8b 45 dc             	mov    0xffffffdc(%ebp),%eax
   14302:	89 44 24 08          	mov    %eax,0x8(%esp)
   14306:	8b 45 d8             	mov    0xffffffd8(%ebp),%eax
   14309:	89 44 24 04          	mov    %eax,0x4(%esp)
   1430d:	c7 04 24 04 b5 01 00 	movl   $0x1b504,(%esp)
   14314:	e8 33 6a 00 00       	call   0x1ad4c
   14319:	83 45 d4 01          	addl   $0x1,0xffffffd4(%ebp)
   1431d:	83 7d d4 04          	cmpl   $0x4,0xffffffd4(%ebp)
   14321:	0f 8e 13 ff ff ff    	jle    0x1423a
   14327:	c7 45 d4 00 00 00 00 	movl   $0x0,0xffffffd4(%ebp)
   1432e:	e9 ba 00 00 00       	jmp    0x143ed
   14333:	8b 55 d4             	mov    0xffffffd4(%ebp),%edx
   14336:	8b 4d d0             	mov    0xffffffd0(%ebp),%ecx
   14339:	89 d0                	mov    %edx,%eax
   1433b:	c1 e0 02             	shl    $0x2,%eax
   1433e:	01 d0                	add    %edx,%eax
   14340:	c1 e0 02             	shl    $0x2,%eax
   14343:	01 c8                	add    %ecx,%eax
   14345:	83 c0 74             	add    $0x74,%eax
   14348:	8b 00                	mov    (%eax),%eax
   1434a:	83 f8 ff             	cmp    $0xffffffff,%eax
   1434d:	0f 84 96 00 00 00    	je     0x143e9
   14353:	0f b7 45 cc          	movzwl 0xffffffcc(%ebp),%eax
   14357:	c1 e0 06             	shl    $0x6,%eax
   1435a:	03 45 d4             	add    0xffffffd4(%ebp),%eax
   1435d:	83 c0 0a             	add    $0xa,%eax
   14360:	89 45 ec             	mov    %eax,0xffffffec(%ebp)
