
shell:     file format elf32-i386

Disassembly of section .text:

00110000 <.text>:
  110000:	e8 1f 00 00 00       	call   0x110024
  110005:	e8 96 80 00 00       	call   0x1180a0
  11000a:	83 c4 08             	add    $0x8,%esp
  11000d:	50                   	push   %eax
  11000e:	68 20 00 11 00       	push   $0x110020
  110013:	e8 1d 37 00 00       	call   0x113735
  110018:	83 c4 04             	add    $0x4,%esp
  11001b:	e8 eb 30 00 00       	call   0x11310b
  110020:	0a 23                	or     (%ebx),%ah
  110022:	3e 00 55 89          	add    %dl,%ds:0xffffff89(%ebp)
  110026:	e5 83                	in     $0x83,%eax
  110028:	ec                   	in     (%dx),%al
  110029:	18 c7                	sbb    %al,%bh
  11002b:	44                   	inc    %esp
  11002c:	24 04                	and    $0x4,%al
  11002e:	00 00                	add    %al,(%eax)
  110030:	00 00                	add    %al,(%eax)
  110032:	c7 04 24 90 83 11 00 	movl   $0x118390,(%esp)
  110039:	e8 4d 21 00 00       	call   0x11218b
  11003e:	a3 90 ac 11 00       	mov    %eax,0x11ac90
  110043:	c7 44 24 04 00 00 00 	movl   $0x0,0x4(%esp)
  11004a:	00 
  11004b:	c7 04 24 90 83 11 00 	movl   $0x118390,(%esp)
  110052:	e8 34 21 00 00       	call   0x11218b
  110057:	a3 8c ac 11 00       	mov    %eax,0x11ac8c
  11005c:	a1 90 ac 11 00       	mov    0x11ac90,%eax
  110061:	85 c0                	test   %eax,%eax
  110063:	74 24                	je     0x110089
  110065:	c7 44 24 0c 08 00 00 	movl   $0x8,0xc(%esp)
  11006c:	00 
  11006d:	c7 44 24 08 95 83 11 	movl   $0x118395,0x8(%esp)
  110074:	00 
  110075:	c7 44 24 04 95 83 11 	movl   $0x118395,0x4(%esp)
  11007c:	00 
  11007d:	c7 04 24 a1 83 11 00 	movl   $0x1183a1,(%esp)
  110084:	e8 8b 23 00 00       	call   0x112414
  110089:	a1 8c ac 11 00       	mov    0x11ac8c,%eax
  11008e:	83 f8 01             	cmp    $0x1,%eax
  110091:	74 24                	je     0x1100b7
  110093:	c7 44 24 0c 09 00 00 	movl   $0x9,0xc(%esp)
  11009a:	00 
  11009b:	c7 44 24 08 95 83 11 	movl   $0x118395,0x8(%esp)
  1100a2:	00 
  1100a3:	c7 44 24 04 95 83 11 	movl   $0x118395,0x4(%esp)
  1100aa:	00 
  1100ab:	c7 04 24 ac 83 11 00 	movl   $0x1183ac,(%esp)
  1100b2:	e8 5d 23 00 00       	call   0x112414
  1100b7:	c9                   	leave  
  1100b8:	c3                   	ret    
  1100b9:	90                   	nop    
  1100ba:	90                   	nop    
  1100bb:	90                   	nop    
  1100bc:	55                   	push   %ebp
  1100bd:	89 e5                	mov    %esp,%ebp
  1100bf:	56                   	push   %esi
  1100c0:	53                   	push   %ebx
  1100c1:	83 ec 50             	sub    $0x50,%esp
  1100c4:	e8 b6 07 00 00       	call   0x11087f
  1100c9:	eb 00                	jmp    0x1100cb
  1100cb:	8d 45 c8             	lea    0xffffffc8(%ebp),%eax
  1100ce:	89 44 24 08          	mov    %eax,0x8(%esp)
  1100d2:	c7 44 24 04 ff ff ff 	movl   $0xffffffff,0x4(%esp)
  1100d9:	ff 
  1100da:	c7 04 24 01 00 00 00 	movl   $0x1,(%esp)
  1100e1:	e8 2d 49 00 00       	call   0x114a13
  1100e6:	85 c0                	test   %eax,%eax
  1100e8:	74 24                	je     0x11010e
  1100ea:	c7 44 24 0c 1b 00 00 	movl   $0x1b,0xc(%esp)
  1100f1:	00 
  1100f2:	c7 44 24 08 b8 83 11 	movl   $0x1183b8,0x8(%esp)
  1100f9:	00 
  1100fa:	c7 44 24 04 b8 83 11 	movl   $0x1183b8,0x4(%esp)
  110101:	00 
  110102:	c7 04 24 bd 83 11 00 	movl   $0x1183bd,(%esp)
  110109:	e8 06 23 00 00       	call   0x112414
  11010e:	8b 45 d0             	mov    0xffffffd0(%ebp),%eax
  110111:	83 f8 fd             	cmp    $0xfffffffd,%eax
  110114:	74 24                	je     0x11013a
  110116:	c7 44 24 0c 1c 00 00 	movl   $0x1c,0xc(%esp)
  11011d:	00 
  11011e:	c7 44 24 08 b8 83 11 	movl   $0x1183b8,0x8(%esp)
  110125:	00 
  110126:	c7 44 24 04 b8 83 11 	movl   $0x1183b8,0x4(%esp)
  11012d:	00 
  11012e:	c7 04 24 d1 83 11 00 	movl   $0x1183d1,(%esp)
  110135:	e8 da 22 00 00       	call   0x112414
  11013a:	8b 45 c8             	mov    0xffffffc8(%ebp),%eax
  11013d:	89 45 f4             	mov    %eax,0xfffffff4(%ebp)
  110140:	8d 45 c8             	lea    0xffffffc8(%ebp),%eax
  110143:	83 c0 0c             	add    $0xc,%eax
  110146:	89 45 f0             	mov    %eax,0xfffffff0(%ebp)
  110149:	8b 45 f0             	mov    0xfffffff0(%ebp),%eax
  11014c:	8b 00                	mov    (%eax),%eax
  11014e:	89 45 c4             	mov    %eax,0xffffffc4(%ebp)
  110151:	83 7d c4 08          	cmpl   $0x8,0xffffffc4(%ebp)
  110155:	0f 87 e9 01 00 00    	ja     0x110344
  11015b:	8b 55 c4             	mov    0xffffffc4(%ebp),%edx
  11015e:	8b 04 95 08 84 11 00 	mov    0x118408(,%edx,4),%eax
  110165:	ff e0                	jmp    *%eax
  110167:	8b 45 c8             	mov    0xffffffc8(%ebp),%eax
  11016a:	69 c0 28 01 00 00    	imul   $0x128,%eax,%eax
  110170:	8d 90 00 d9 11 00    	lea    0x11d900(%eax),%edx
  110176:	8b 45 f0             	mov    0xfffffff0(%ebp),%eax
  110179:	8b 48 08             	mov    0x8(%eax),%ecx
  11017c:	8b 45 f0             	mov    0xfffffff0(%ebp),%eax
  11017f:	8b 40 04             	mov    0x4(%eax),%eax
  110182:	89 54 24 08          	mov    %edx,0x8(%esp)
  110186:	89 4c 24 04          	mov    %ecx,0x4(%esp)
  11018a:	89 04 24             	mov    %eax,(%esp)
  11018d:	e8 9b 0d 00 00       	call   0x110f2d
  110192:	89 c2                	mov    %eax,%edx
  110194:	8b 45 f0             	mov    0xfffffff0(%ebp),%eax
  110197:	89 50 0c             	mov    %edx,0xc(%eax)
  11019a:	e9 a5 01 00 00       	jmp    0x110344
  11019f:	8b 45 c8             	mov    0xffffffc8(%ebp),%eax
  1101a2:	69 c0 28 01 00 00    	imul   $0x128,%eax,%eax
  1101a8:	8d 90 00 d9 11 00    	lea    0x11d900(%eax),%edx
  1101ae:	8b 45 f0             	mov    0xfffffff0(%ebp),%eax
  1101b1:	8b 48 10             	mov    0x10(%eax),%ecx
  1101b4:	8b 45 f0             	mov    0xfffffff0(%ebp),%eax
  1101b7:	8b 58 18             	mov    0x18(%eax),%ebx
  1101ba:	8b 45 f0             	mov    0xfffffff0(%ebp),%eax
  1101bd:	8b 70 14             	mov    0x14(%eax),%esi
  1101c0:	8b 45 f0             	mov    0xfffffff0(%ebp),%eax
  1101c3:	8b 40 0c             	mov    0xc(%eax),%eax
  1101c6:	89 54 24 10          	mov    %edx,0x10(%esp)
  1101ca:	89 4c 24 0c          	mov    %ecx,0xc(%esp)
  1101ce:	89 5c 24 08          	mov    %ebx,0x8(%esp)
  1101d2:	89 74 24 04          	mov    %esi,0x4(%esp)
  1101d6:	89 04 24             	mov    %eax,(%esp)
  1101d9:	e8 cc 10 00 00       	call   0x1112aa
  1101de:	89 c2                	mov    %eax,%edx
  1101e0:	8b 45 f0             	mov    0xfffffff0(%ebp),%eax
  1101e3:	89 50 10             	mov    %edx,0x10(%eax)
  1101e6:	e9 59 01 00 00       	jmp    0x110344
  1101eb:	8b 45 c8             	mov    0xffffffc8(%ebp),%eax
  1101ee:	69 c0 28 01 00 00    	imul   $0x128,%eax,%eax
  1101f4:	8d 90 00 d9 11 00    	lea    0x11d900(%eax),%edx
  1101fa:	8b 45 f0             	mov    0xfffffff0(%ebp),%eax
  1101fd:	8b 48 10             	mov    0x10(%eax),%ecx
  110200:	8b 45 f0             	mov    0xfffffff0(%ebp),%eax
  110203:	8b 58 18             	mov    0x18(%eax),%ebx
  110206:	8b 45 f0             	mov    0xfffffff0(%ebp),%eax
  110209:	8b 70 14             	mov    0x14(%eax),%esi
  11020c:	8b 45 f0             	mov    0xfffffff0(%ebp),%eax
  11020f:	8b 40 0c             	mov    0xc(%eax),%eax
  110212:	89 54 24 10          	mov    %edx,0x10(%esp)
  110216:	89 4c 24 0c          	mov    %ecx,0xc(%esp)
  11021a:	89 5c 24 08          	mov    %ebx,0x8(%esp)
  11021e:	89 74 24 04          	mov    %esi,0x4(%esp)
  110222:	89 04 24             	mov    %eax,(%esp)
  110225:	e8 77 13 00 00       	call   0x1115a1
  11022a:	89 c2                	mov    %eax,%edx
  11022c:	8b 45 f0             	mov    0xfffffff0(%ebp),%eax
  11022f:	89 50 10             	mov    %edx,0x10(%eax)
  110232:	e9 0d 01 00 00       	jmp    0x110344
  110237:	8b 45 c8             	mov    0xffffffc8(%ebp),%eax
  11023a:	69 c0 28 01 00 00    	imul   $0x128,%eax,%eax
  110240:	8d 90 00 d9 11 00    	lea    0x11d900(%eax),%edx
  110246:	8b 45 f0             	mov    0xfffffff0(%ebp),%eax
  110249:	8b 40 0c             	mov    0xc(%eax),%eax
  11024c:	89 54 24 04          	mov    %edx,0x4(%esp)
  110250:	89 04 24             	mov    %eax,(%esp)
  110253:	e8 0d 16 00 00       	call   0x111865
  110258:	89 c2                	mov    %eax,%edx
  11025a:	8b 45 f0             	mov    0xfffffff0(%ebp),%eax
  11025d:	89 10                	mov    %edx,(%eax)
  11025f:	e9 e0 00 00 00       	jmp    0x110344
  110264:	8b 45 f0             	mov    0xfffffff0(%ebp),%eax
  110267:	8b 58 08             	mov    0x8(%eax),%ebx
  11026a:	8b 45 f0             	mov    0xfffffff0(%ebp),%eax
  11026d:	8b 50 04             	mov    0x4(%eax),%edx
  110270:	8b 45 c8             	mov    0xffffffc8(%ebp),%eax
  110273:	69 c0 28 01 00 00    	imul   $0x128,%eax,%eax
  110279:	05 00 d9 11 00       	add    $0x11d900,%eax
  11027e:	89 54 24 04          	mov    %edx,0x4(%esp)
  110282:	89 04 24             	mov    %eax,(%esp)
  110285:	e8 03 34 00 00       	call   0x11368d
  11028a:	89 5c 24 04          	mov    %ebx,0x4(%esp)
  11028e:	89 04 24             	mov    %eax,(%esp)
  110291:	e8 18 17 00 00       	call   0x1119ae
  110296:	89 c2                	mov    %eax,%edx
  110298:	8b 45 f0             	mov    0xfffffff0(%ebp),%eax
  11029b:	89 10                	mov    %edx,(%eax)
  11029d:	e9 a2 00 00 00       	jmp    0x110344
  1102a2:	8b 45 f0             	mov    0xfffffff0(%ebp),%eax
  1102a5:	8b 40 08             	mov    0x8(%eax),%eax
  1102a8:	89 45 f4             	mov    %eax,0xfffffff4(%ebp)
  1102ab:	83 7d f4 00          	cmpl   $0x0,0xfffffff4(%ebp)
  1102af:	78 0a                	js     0x1102bb
  1102b1:	83 7d f4 20          	cmpl   $0x20,0xfffffff4(%ebp)
  1102b5:	0f 8e 89 00 00 00    	jle    0x110344
  1102bb:	c7 44 24 0c 32 00 00 	movl   $0x32,0xc(%esp)
  1102c2:	00 
  1102c3:	c7 44 24 08 b8 83 11 	movl   $0x1183b8,0x8(%esp)
  1102ca:	00 
  1102cb:	c7 44 24 04 b8 83 11 	movl   $0x1183b8,0x4(%esp)
  1102d2:	00 
  1102d3:	c7 04 24 ea 83 11 00 	movl   $0x1183ea,(%esp)
  1102da:	e8 35 21 00 00       	call   0x112414
  1102df:	eb 63                	jmp    0x110344
  1102e1:	8b 45 f0             	mov    0xfffffff0(%ebp),%eax
  1102e4:	8b 40 08             	mov    0x8(%eax),%eax
  1102e7:	89 04 24             	mov    %eax,(%esp)
  1102ea:	e8 9f 1b 00 00       	call   0x111e8e
  1102ef:	89 c2                	mov    %eax,%edx
  1102f1:	8b 45 f0             	mov    0xfffffff0(%ebp),%eax
  1102f4:	89 10                	mov    %edx,(%eax)
  1102f6:	eb 4c                	jmp    0x110344
  1102f8:	8b 45 f0             	mov    0xfffffff0(%ebp),%eax
  1102fb:	8b 40 08             	mov    0x8(%eax),%eax
  1102fe:	89 04 24             	mov    %eax,(%esp)
  110301:	e8 d7 1c 00 00       	call   0x111fdd
  110306:	eb 3c                	jmp    0x110344
  110308:	8b 45 c8             	mov    0xffffffc8(%ebp),%eax
  11030b:	69 c0 28 01 00 00    	imul   $0x128,%eax,%eax
  110311:	8d 88 00 d9 11 00    	lea    0x11d900(%eax),%ecx
  110317:	8b 45 f0             	mov    0xfffffff0(%ebp),%eax
  11031a:	8b 58 08             	mov    0x8(%eax),%ebx
  11031d:	8b 45 f0             	mov    0xfffffff0(%ebp),%eax
  110320:	8b 50 18             	mov    0x18(%eax),%edx
  110323:	8b 45 f0             	mov    0xfffffff0(%ebp),%eax
  110326:	8b 40 0c             	mov    0xc(%eax),%eax
  110329:	89 4c 24 0c          	mov    %ecx,0xc(%esp)
  11032d:	89 5c 24 08          	mov    %ebx,0x8(%esp)
  110331:	89 54 24 04          	mov    %edx,0x4(%esp)
  110335:	89 04 24             	mov    %eax,(%esp)
  110338:	e8 be 1a 00 00       	call   0x111dfb
  11033d:	89 c2                	mov    %eax,%edx
  11033f:	8b 45 f0             	mov    0xfffffff0(%ebp),%eax
  110342:	89 10                	mov    %edx,(%eax)
  110344:	a1 94 ac 11 00       	mov    0x11ac94,%eax
  110349:	83 f8 01             	cmp    $0x1,%eax
  11034c:	75 0f                	jne    0x11035d
  11034e:	c7 05 94 ac 11 00 00 	movl   $0x0,0x11ac94
  110355:	00 00 00 
  110358:	e9 6e fd ff ff       	jmp    0x1100cb
  11035d:	8d 45 c8             	lea    0xffffffc8(%ebp),%eax
  110360:	89 44 24 08          	mov    %eax,0x8(%esp)
  110364:	8b 45 f4             	mov    0xfffffff4(%ebp),%eax
  110367:	89 44 24 04          	mov    %eax,0x4(%esp)
  11036b:	c7 04 24 00 00 00 00 	movl   $0x0,(%esp)
  110372:	e8 9c 46 00 00       	call   0x114a13
  110377:	e9 4f fd ff ff       	jmp    0x1100cb
  11037c:	55                   	push   %ebp
  11037d:	89 e5                	mov    %esp,%ebp
  11037f:	53                   	push   %ebx
  110380:	81 ec 84 00 00 00    	sub    $0x84,%esp
  110386:	c7 45 8c 01 01 10 10 	movl   $0x10100101,0xffffff8c(%ebp)
  11038d:	c7 45 90 02 00 00 00 	movl   $0x2,0xffffff90(%ebp)
  110394:	c7 45 94 17 00 00 00 	movl   $0x17,0xffffff94(%ebp)
  11039b:	c7 45 98 01 00 00 00 	movl   $0x1,0xffffff98(%ebp)
  1103a2:	c7 45 9c 03 00 00 00 	movl   $0x3,0xffffff9c(%ebp)
  1103a9:	c7 45 a0 a0 0f 00 00 	movl   $0xfa0,0xffffffa0(%ebp)
  1103b0:	c7 45 a4 01 00 00 00 	movl   $0x1,0xffffffa4(%ebp)
  1103b7:	c7 45 a8 04 00 00 00 	movl   $0x4,0xffffffa8(%ebp)
  1103be:	c7 45 ac 20 00 00 00 	movl   $0x20,0xffffffac(%ebp)
  1103c5:	c7 45 b0 10 00 00 00 	movl   $0x10,0xffffffb0(%ebp)
  1103cc:	c7 45 b4 02 00 00 00 	movl   $0x2,0xffffffb4(%ebp)
  1103d3:	c7 45 b8 06 00 00 00 	movl   $0x6,0xffffffb8(%ebp)
  1103da:	c7 45 bc 10 00 00 00 	movl   $0x10,0xffffffbc(%ebp)
  1103e1:	c7 45 c0 00 00 00 00 	movl   $0x0,0xffffffc0(%ebp)
  1103e8:	c7 45 c4 04 00 00 00 	movl   $0x4,0xffffffc4(%ebp)
  1103ef:	c7 45 c8 20 00 00 00 	movl   $0x20,0xffffffc8(%ebp)
  1103f6:	c7 45 cc 01 00 00 00 	movl   $0x1,0xffffffcc(%ebp)
  1103fd:	c7 45 d0 01 00 00 00 	movl   $0x1,0xffffffd0(%ebp)
  110404:	c7 45 d4 04 00 00 00 	movl   $0x4,0xffffffd4(%ebp)
  11040b:	c7 45 d8 08 00 00 00 	movl   $0x8,0xffffffd8(%ebp)
  110412:	c7 44 24 08 01 00 00 	movl   $0x1,0x8(%esp)
  110419:	00 
  11041a:	c7 44 24 04 01 00 00 	movl   $0x1,0x4(%esp)
  110421:	00 
  110422:	c7 04 24 2c 84 11 00 	movl   $0x11842c,(%esp)
  110429:	e8 c6 32 00 00       	call   0x1136f4
  11042e:	c7 44 24 08 01 00 00 	movl   $0x1,0x8(%esp)
  110435:	00 
  110436:	c7 44 24 04 02 00 00 	movl   $0x2,0x4(%esp)
  11043d:	00 
  11043e:	c7 04 24 4c 84 11 00 	movl   $0x11844c,(%esp)
  110445:	e8 aa 32 00 00       	call   0x1136f4
  11044a:	c7 44 24 08 01 00 00 	movl   $0x1,0x8(%esp)
  110451:	00 
  110452:	c7 44 24 04 03 00 00 	movl   $0x3,0x4(%esp)
  110459:	00 
  11045a:	c7 04 24 6c 84 11 00 	movl   $0x11846c,(%esp)
  110461:	e8 8e 32 00 00       	call   0x1136f4
  110466:	c7 44 24 08 02 00 00 	movl   $0x2,0x8(%esp)
  11046d:	00 
  11046e:	c7 44 24 04 04 00 00 	movl   $0x4,0x4(%esp)
  110475:	00 
  110476:	c7 04 24 8c 84 11 00 	movl   $0x11848c,(%esp)
  11047d:	e8 72 32 00 00       	call   0x1136f4
  110482:	c7 44 24 08 a0 0f 00 	movl   $0xfa0,0x8(%esp)
  110489:	00 
  11048a:	c7 44 24 04 06 00 00 	movl   $0x6,0x4(%esp)
  110491:	00 
  110492:	c7 04 24 ac 84 11 00 	movl   $0x1184ac,(%esp)
  110499:	e8 56 32 00 00       	call   0x1136f4
  11049e:	c7 44 24 08 00 02 00 	movl   $0x200,0x8(%esp)
  1104a5:	00 
  1104a6:	c7 44 24 04 11 00 00 	movl   $0x11,0x4(%esp)
  1104ad:	00 
  1104ae:	c7 04 24 00 c8 11 00 	movl   $0x11c800,(%esp)
  1104b5:	e8 d6 2e 00 00       	call   0x113390
  1104ba:	8d 45 8c             	lea    0xffffff8c(%ebp),%eax
  1104bd:	c7 44 24 08 48 00 00 	movl   $0x48,0x8(%esp)
  1104c4:	00 
  1104c5:	89 44 24 04          	mov    %eax,0x4(%esp)
  1104c9:	c7 04 24 00 c8 11 00 	movl   $0x11c800,(%esp)
  1104d0:	e8 eb 2e 00 00       	call   0x1133c0
  1104d5:	c7 44 24 0c 01 00 00 	movl   $0x1,0xc(%esp)
  1104dc:	00 
  1104dd:	c7 44 24 08 00 02 00 	movl   $0x200,0x8(%esp)
  1104e4:	00 
  1104e5:	c7 44 24 04 00 c8 11 	movl   $0x11c800,0x4(%esp)
  1104ec:	00 
  1104ed:	c7 04 24 1a 03 00 00 	movl   $0x31a,(%esp)
  1104f4:	e8 ed 53 00 00       	call   0x1158e6
  1104f9:	c7 45 e0 00 00 00 00 	movl   $0x0,0xffffffe0(%ebp)
  110500:	eb 58                	jmp    0x11055a
  110502:	c7 44 24 08 00 02 00 	movl   $0x200,0x8(%esp)
  110509:	00 
  11050a:	c7 44 24 04 00 00 00 	movl   $0x0,0x4(%esp)
  110511:	00 
  110512:	c7 04 24 00 c8 11 00 	movl   $0x11c800,(%esp)
  110519:	e8 72 2e 00 00       	call   0x113390
  11051e:	83 7d e0 00          	cmpl   $0x0,0xffffffe0(%ebp)
  110522:	75 07                	jne    0x11052b
  110524:	c6 05 00 c8 11 00 1f 	movb   $0x1f,0x11c800
  11052b:	8b 45 e0             	mov    0xffffffe0(%ebp),%eax
  11052e:	c1 e0 09             	shl    $0x9,%eax
  110531:	05 00 04 00 00       	add    $0x400,%eax
  110536:	c7 44 24 0c 01 00 00 	movl   $0x1,0xc(%esp)
  11053d:	00 
  11053e:	89 44 24 08          	mov    %eax,0x8(%esp)
  110542:	c7 44 24 04 00 c8 11 	movl   $0x11c800,0x4(%esp)
  110549:	00 
  11054a:	c7 04 24 1a 03 00 00 	movl   $0x31a,(%esp)
  110551:	e8 90 53 00 00       	call   0x1158e6
  110556:	83 45 e0 01          	addl   $0x1,0xffffffe0(%ebp)
  11055a:	83 7d e0 00          	cmpl   $0x0,0xffffffe0(%ebp)
  11055e:	7e a2                	jle    0x110502
  110560:	c7 44 24 08 00 02 00 	movl   $0x200,0x8(%esp)
  110567:	00 
  110568:	c7 44 24 04 00 00 00 	movl   $0x0,0x4(%esp)
  11056f:	00 
  110570:	c7 04 24 00 c8 11 00 	movl   $0x11c800,(%esp)
  110577:	e8 14 2e 00 00       	call   0x113390
  11057c:	c7 45 e0 00 00 00 00 	movl   $0x0,0xffffffe0(%ebp)
  110583:	c7 45 e4 00 00 00 00 	movl   $0x0,0xffffffe4(%ebp)
  11058a:	eb 23                	jmp    0x1105af
  11058c:	8b 5d e0             	mov    0xffffffe0(%ebp),%ebx
  11058f:	8b 45 e0             	mov    0xffffffe0(%ebp),%eax
  110592:	0f b6 90 00 c8 11 00 	movzbl 0x11c800(%eax),%edx
  110599:	8b 4d e4             	mov    0xffffffe4(%ebp),%ecx
  11059c:	b8 01 00 00 00       	mov    $0x1,%eax
  1105a1:	d3 e0                	shl    %cl,%eax
  1105a3:	09 d0                	or     %edx,%eax
  1105a5:	88 83 00 c8 11 00    	mov    %al,0x11c800(%ebx)
  1105ab:	83 45 e4 01          	addl   $0x1,0xffffffe4(%ebp)
  1105af:	8b 45 e4             	mov    0xffffffe4(%ebp),%eax
  1105b2:	83 f8 01             	cmp    $0x1,%eax
  1105b5:	76 d5                	jbe    0x11058c
  1105b7:	c7 44 24 0c 01 00 00 	movl   $0x1,0xc(%esp)
  1105be:	00 
  1105bf:	c7 44 24 08 00 06 00 	movl   $0x600,0x8(%esp)
  1105c6:	00 
  1105c7:	c7 44 24 04 00 c8 11 	movl   $0x11c800,0x4(%esp)
  1105ce:	00 
  1105cf:	c7 04 24 1a 03 00 00 	movl   $0x31a,(%esp)
  1105d6:	e8 0b 53 00 00       	call   0x1158e6
  1105db:	c7 45 e8 00 00 00 00 	movl   $0x0,0xffffffe8(%ebp)
  1105e2:	c7 45 ec 02 00 00 00 	movl   $0x2,0xffffffec(%ebp)
  1105e9:	c7 45 e0 00 00 00 00 	movl   $0x0,0xffffffe0(%ebp)
  1105f0:	e9 af 00 00 00       	jmp    0x1106a4
  1105f5:	c7 44 24 08 00 02 00 	movl   $0x200,0x8(%esp)
  1105fc:	00 
  1105fd:	c7 44 24 04 00 00 00 	movl   $0x0,0x4(%esp)
  110604:	00 
  110605:	c7 04 24 00 c8 11 00 	movl   $0x11c800,(%esp)
  11060c:	e8 7f 2d 00 00       	call   0x113390
  110611:	c7 45 f8 00 c8 11 00 	movl   $0x11c800,0xfffffff8(%ebp)
  110618:	c7 45 e4 00 00 00 00 	movl   $0x0,0xffffffe4(%ebp)
  11061f:	eb 4e                	jmp    0x11066f
  110621:	83 7d e8 00          	cmpl   $0x0,0xffffffe8(%ebp)
  110625:	7e 0f                	jle    0x110636
  110627:	8b 45 f8             	mov    0xfffffff8(%ebp),%eax
  11062a:	c7 00 ff ff ff ff    	movl   $0xffffffff,(%eax)
  110630:	83 6d e8 01          	subl   $0x1,0xffffffe8(%ebp)
  110634:	eb 31                	jmp    0x110667
  110636:	8b 45 f8             	mov    0xfffffff8(%ebp),%eax
  110639:	c7 00 00 00 00 00    	movl   $0x0,(%eax)
  11063f:	83 7d ec 00          	cmpl   $0x0,0xffffffec(%ebp)
  110643:	7e 22                	jle    0x110667
  110645:	eb 1a                	jmp    0x110661
  110647:	83 6d ec 01          	subl   $0x1,0xffffffec(%ebp)
  11064b:	8b 45 f8             	mov    0xfffffff8(%ebp),%eax
  11064e:	8b 10                	mov    (%eax),%edx
  110650:	8b 4d ec             	mov    0xffffffec(%ebp),%ecx
  110653:	b8 01 00 00 00       	mov    $0x1,%eax
  110658:	d3 e0                	shl    %cl,%eax
  11065a:	09 c2                	or     %eax,%edx
  11065c:	8b 45 f8             	mov    0xfffffff8(%ebp),%eax
  11065f:	89 10                	mov    %edx,(%eax)
  110661:	83 7d ec 00          	cmpl   $0x0,0xffffffec(%ebp)
  110665:	7f e0                	jg     0x110647
  110667:	83 45 e4 01          	addl   $0x1,0xffffffe4(%ebp)
  11066b:	83 45 f8 04          	addl   $0x4,0xfffffff8(%ebp)
  11066f:	83 7d e4 7f          	cmpl   $0x7f,0xffffffe4(%ebp)
  110673:	7e ac                	jle    0x110621
  110675:	8b 45 e0             	mov    0xffffffe0(%ebp),%eax
  110678:	c1 e0 09             	shl    $0x9,%eax
  11067b:	05 00 06 00 00       	add    $0x600,%eax
  110680:	c7 44 24 0c 01 00 00 	movl   $0x1,0xc(%esp)
  110687:	00 
  110688:	89 44 24 08          	mov    %eax,0x8(%esp)
  11068c:	c7 44 24 04 00 c8 11 	movl   $0x11c800,0x4(%esp)
  110693:	00 
  110694:	c7 04 24 1a 03 00 00 	movl   $0x31a,(%esp)
  11069b:	e8 46 52 00 00       	call   0x1158e6
  1106a0:	83 45 e0 01          	addl   $0x1,0xffffffe0(%ebp)
  1106a4:	83 7d e0 00          	cmpl   $0x0,0xffffffe0(%ebp)
  1106a8:	0f 8e 47 ff ff ff    	jle    0x1105f5
  1106ae:	c7 45 f0 00 c8 11 00 	movl   $0x11c800,0xfffffff0(%ebp)
  1106b5:	c7 44 24 08 00 02 00 	movl   $0x200,0x8(%esp)
  1106bc:	00 
  1106bd:	c7 44 24 04 00 00 00 	movl   $0x0,0x4(%esp)
  1106c4:	00 
  1106c5:	c7 04 24 00 c8 11 00 	movl   $0x11c800,(%esp)
  1106cc:	e8 bf 2c 00 00       	call   0x113390
  1106d1:	83 45 f0 20          	addl   $0x20,0xfffffff0(%ebp)
  1106d5:	8b 45 f0             	mov    0xfffffff0(%ebp),%eax
  1106d8:	c7 00 01 00 00 00    	movl   $0x1,(%eax)
  1106de:	8b 45 f0             	mov    0xfffffff0(%ebp),%eax
  1106e1:	c7 40 04 00 02 00 00 	movl   $0x200,0x4(%eax)
  1106e8:	8b 45 f0             	mov    0xfffffff0(%ebp),%eax
  1106eb:	c7 40 08 01 00 00 00 	movl   $0x1,0x8(%eax)
  1106f2:	8b 45 f0             	mov    0xfffffff0(%ebp),%eax
  1106f5:	c7 40 0c 01 00 00 00 	movl   $0x1,0xc(%eax)
  1106fc:	83 45 f0 20          	addl   $0x20,0xfffffff0(%ebp)
  110700:	c7 45 e0 00 00 00 00 	movl   $0x0,0xffffffe0(%ebp)
  110707:	eb 34                	jmp    0x11073d
  110709:	8b 45 f0             	mov    0xfffffff0(%ebp),%eax
  11070c:	c7 00 02 00 00 00    	movl   $0x2,(%eax)
  110712:	8b 45 f0             	mov    0xfffffff0(%ebp),%eax
  110715:	c7 40 04 00 00 00 00 	movl   $0x0,0x4(%eax)
  11071c:	0f b6 45 e0          	movzbl 0xffffffe0(%ebp),%eax
  110720:	80 cc 04             	or     $0x4,%ah
  110723:	89 c2                	mov    %eax,%edx
  110725:	8b 45 f0             	mov    0xfffffff0(%ebp),%eax
  110728:	89 50 08             	mov    %edx,0x8(%eax)
  11072b:	8b 45 f0             	mov    0xfffffff0(%ebp),%eax
  11072e:	c7 40 0c 00 00 00 00 	movl   $0x0,0xc(%eax)
  110735:	83 45 e0 01          	addl   $0x1,0xffffffe0(%ebp)
  110739:	83 45 f0 20          	addl   $0x20,0xfffffff0(%ebp)
  11073d:	83 7d e0 02          	cmpl   $0x2,0xffffffe0(%ebp)
  110741:	7e c6                	jle    0x110709
  110743:	c7 44 24 0c 01 00 00 	movl   $0x1,0xc(%esp)
  11074a:	00 
  11074b:	c7 44 24 08 00 08 00 	movl   $0x800,0x8(%esp)
  110752:	00 
  110753:	c7 44 24 04 00 c8 11 	movl   $0x11c800,0x4(%esp)
  11075a:	00 
  11075b:	c7 04 24 1a 03 00 00 	movl   $0x31a,(%esp)
  110762:	e8 7f 51 00 00       	call   0x1158e6
  110767:	c7 45 e0 00 00 00 00 	movl   $0x0,0xffffffe0(%ebp)
  11076e:	eb 58                	jmp    0x1107c8
  110770:	c7 45 f4 00 c8 11 00 	movl   $0x11c800,0xfffffff4(%ebp)
  110777:	c7 45 e4 00 00 00 00 	movl   $0x0,0xffffffe4(%ebp)
  11077e:	eb 11                	jmp    0x110791
  110780:	8b 45 f4             	mov    0xfffffff4(%ebp),%eax
  110783:	c7 00 00 00 00 00    	movl   $0x0,(%eax)
  110789:	83 45 e4 01          	addl   $0x1,0xffffffe4(%ebp)
  11078d:	83 45 f4 10          	addl   $0x10,0xfffffff4(%ebp)
  110791:	8b 45 e4             	mov    0xffffffe4(%ebp),%eax
  110794:	83 f8 1f             	cmp    $0x1f,%eax
  110797:	76 e7                	jbe    0x110780
  110799:	8b 45 e0             	mov    0xffffffe0(%ebp),%eax
  11079c:	c1 e0 09             	shl    $0x9,%eax
  11079f:	05 00 0e 00 00       	add    $0xe00,%eax
  1107a4:	c7 44 24 0c 01 00 00 	movl   $0x1,0xc(%esp)
  1107ab:	00 
  1107ac:	89 44 24 08          	mov    %eax,0x8(%esp)
  1107b0:	c7 44 24 04 00 c8 11 	movl   $0x11c800,0x4(%esp)
  1107b7:	00 
  1107b8:	c7 04 24 1a 03 00 00 	movl   $0x31a,(%esp)
  1107bf:	e8 22 51 00 00       	call   0x1158e6
  1107c4:	83 45 e0 01          	addl   $0x1,0xffffffe0(%ebp)
  1107c8:	83 7d e0 00          	cmpl   $0x0,0xffffffe0(%ebp)
  1107cc:	74 a2                	je     0x110770
  1107ce:	c7 45 f4 00 c8 11 00 	movl   $0x11c800,0xfffffff4(%ebp)
  1107d5:	83 45 f4 10          	addl   $0x10,0xfffffff4(%ebp)
  1107d9:	8b 45 f4             	mov    0xfffffff4(%ebp),%eax
  1107dc:	c7 00 01 00 00 00    	movl   $0x1,(%eax)
  1107e2:	8b 45 f4             	mov    0xfffffff4(%ebp),%eax
  1107e5:	83 c0 04             	add    $0x4,%eax
  1107e8:	c7 44 24 08 02 00 00 	movl   $0x2,0x8(%esp)
  1107ef:	00 
  1107f0:	c7 44 24 04 cc 84 11 	movl   $0x1184cc,0x4(%esp)
  1107f7:	00 
  1107f8:	89 04 24             	mov    %eax,(%esp)
  1107fb:	e8 c0 2b 00 00       	call   0x1133c0
  110800:	83 45 f4 10          	addl   $0x10,0xfffffff4(%ebp)
  110804:	c7 45 e0 00 00 00 00 	movl   $0x0,0xffffffe0(%ebp)
  11080b:	eb 3f                	jmp    0x11084c
  11080d:	8b 55 e0             	mov    0xffffffe0(%ebp),%edx
  110810:	83 c2 02             	add    $0x2,%edx
  110813:	8b 45 f4             	mov    0xfffffff4(%ebp),%eax
  110816:	89 10                	mov    %edx,(%eax)
  110818:	8b 45 f4             	mov    0xfffffff4(%ebp),%eax
  11081b:	83 c0 04             	add    $0x4,%eax
  11081e:	c7 44 24 08 05 00 00 	movl   $0x5,0x8(%esp)
  110825:	00 
  110826:	c7 44 24 04 ce 84 11 	movl   $0x1184ce,0x4(%esp)
  11082d:	00 
  11082e:	89 04 24             	mov    %eax,(%esp)
  110831:	e8 8a 2b 00 00       	call   0x1133c0
  110836:	8b 45 e0             	mov    0xffffffe0(%ebp),%eax
  110839:	83 c0 30             	add    $0x30,%eax
  11083c:	89 c2                	mov    %eax,%edx
  11083e:	8b 45 f4             	mov    0xfffffff4(%ebp),%eax
  110841:	88 50 07             	mov    %dl,0x7(%eax)
  110844:	83 45 e0 01          	addl   $0x1,0xffffffe0(%ebp)
  110848:	83 45 f4 10          	addl   $0x10,0xfffffff4(%ebp)
  11084c:	83 7d e0 02          	cmpl   $0x2,0xffffffe0(%ebp)
  110850:	7e bb                	jle    0x11080d
  110852:	c7 44 24 0c 01 00 00 	movl   $0x1,0xc(%esp)
  110859:	00 
  11085a:	c7 44 24 08 00 0e 00 	movl   $0xe00,0x8(%esp)
  110861:	00 
  110862:	c7 44 24 04 00 c8 11 	movl   $0x11c800,0x4(%esp)
  110869:	00 
  11086a:	c7 04 24 1a 03 00 00 	movl   $0x31a,(%esp)
  110871:	e8 70 50 00 00       	call   0x1158e6
  110876:	81 c4 84 00 00 00    	add    $0x84,%esp
  11087c:	5b                   	pop    %ebx
  11087d:	5d                   	pop    %ebp
  11087e:	c3                   	ret    
  11087f:	55                   	push   %ebp
  110880:	89 e5                	mov    %esp,%ebp
  110882:	83 ec 28             	sub    $0x28,%esp
  110885:	c7 05 94 ac 11 00 00 	movl   $0x0,0x11ac94
  11088c:	00 00 00 
  11088f:	c7 45 f4 00 d6 11 00 	movl   $0x11d600,0xfffffff4(%ebp)
  110896:	eb 0e                	jmp    0x1108a6
  110898:	8b 45 f4             	mov    0xfffffff4(%ebp),%eax
  11089b:	c7 40 08 00 00 00 00 	movl   $0x0,0x8(%eax)
  1108a2:	83 45 f4 0c          	addl   $0xc,0xfffffff4(%ebp)
  1108a6:	b8 00 d9 11 00       	mov    $0x11d900,%eax
  1108ab:	39 45 f4             	cmp    %eax,0xfffffff4(%ebp)
  1108ae:	72 e8                	jb     0x110898
  1108b0:	c7 45 f8 c0 ac 11 00 	movl   $0x11acc0,0xfffffff8(%ebp)
  1108b7:	eb 0e                	jmp    0x1108c7
  1108b9:	8b 45 f8             	mov    0xfffffff8(%ebp),%eax
  1108bc:	c7 40 24 00 00 00 00 	movl   $0x0,0x24(%eax)
  1108c3:	83 45 f8 2c          	addl   $0x2c,0xfffffff8(%ebp)
  1108c7:	b8 c0 b7 11 00       	mov    $0x11b7c0,%eax
  1108cc:	39 45 f8             	cmp    %eax,0xfffffff8(%ebp)
  1108cf:	72 e8                	jb     0x1108b9
  1108d1:	c7 04 24 1a 03 00 00 	movl   $0x31a,(%esp)
  1108d8:	e8 8c 4e 00 00       	call   0x115769
  1108dd:	c7 44 24 0c 01 00 00 	movl   $0x1,0xc(%esp)
  1108e4:	00 
  1108e5:	c7 44 24 08 00 02 00 	movl   $0x200,0x8(%esp)
  1108ec:	00 
  1108ed:	c7 44 24 04 00 c8 11 	movl   $0x11c800,0x4(%esp)
  1108f4:	00 
  1108f5:	c7 04 24 1a 03 00 00 	movl   $0x31a,(%esp)
  1108fc:	e8 60 4f 00 00       	call   0x115861
  110901:	c7 45 fc 00 c8 11 00 	movl   $0x11c800,0xfffffffc(%ebp)
  110908:	8b 45 fc             	mov    0xfffffffc(%ebp),%eax
  11090b:	8b 00                	mov    (%eax),%eax
  11090d:	3d 01 01 10 10       	cmp    $0x10100101,%eax
  110912:	74 05                	je     0x110919
  110914:	e8 63 fa ff ff       	call   0x11037c
  110919:	c9                   	leave  
  11091a:	c3                   	ret    
  11091b:	55                   	push   %ebp
  11091c:	89 e5                	mov    %esp,%ebp
  11091e:	53                   	push   %ebx
  11091f:	83 ec 44             	sub    $0x44,%esp
  110922:	c7 45 d8 00 00 00 00 	movl   $0x0,0xffffffd8(%ebp)
  110929:	c7 45 dc 00 00 00 00 	movl   $0x0,0xffffffdc(%ebp)
  110930:	c7 45 e0 00 00 00 00 	movl   $0x0,0xffffffe0(%ebp)
  110937:	e9 01 01 00 00       	jmp    0x110a3d
  11093c:	8b 45 e0             	mov    0xffffffe0(%ebp),%eax
  11093f:	c1 e0 09             	shl    $0x9,%eax
  110942:	05 00 04 00 00       	add    $0x400,%eax
  110947:	c7 44 24 0c 01 00 00 	movl   $0x1,0xc(%esp)
  11094e:	00 
  11094f:	89 44 24 08          	mov    %eax,0x8(%esp)
  110953:	c7 44 24 04 00 c8 11 	movl   $0x11c800,0x4(%esp)
  11095a:	00 
  11095b:	c7 04 24 1a 03 00 00 	movl   $0x31a,(%esp)
  110962:	e8 fa 4e 00 00       	call   0x115861
  110967:	c7 45 e4 00 00 00 00 	movl   $0x0,0xffffffe4(%ebp)
  11096e:	e9 b3 00 00 00       	jmp    0x110a26
  110973:	8b 45 e4             	mov    0xffffffe4(%ebp),%eax
  110976:	0f b6 80 00 c8 11 00 	movzbl 0x11c800(%eax),%eax
  11097d:	3c ff                	cmp    $0xff,%al
  11097f:	0f 84 9d 00 00 00    	je     0x110a22
  110985:	c7 45 e8 00 00 00 00 	movl   $0x0,0xffffffe8(%ebp)
  11098c:	e9 81 00 00 00       	jmp    0x110a12
  110991:	8b 45 e4             	mov    0xffffffe4(%ebp),%eax
  110994:	0f b6 80 00 c8 11 00 	movzbl 0x11c800(%eax),%eax
  11099b:	0f be c0             	movsbl %al,%eax
  11099e:	8b 4d e8             	mov    0xffffffe8(%ebp),%ecx
  1109a1:	d3 f8                	sar    %cl,%eax
  1109a3:	83 e0 01             	and    $0x1,%eax
  1109a6:	85 c0                	test   %eax,%eax
  1109a8:	75 64                	jne    0x110a0e
  1109aa:	8b 45 e0             	mov    0xffffffe0(%ebp),%eax
  1109ad:	c1 e0 09             	shl    $0x9,%eax
  1109b0:	03 45 e4             	add    0xffffffe4(%ebp),%eax
  1109b3:	c1 e0 03             	shl    $0x3,%eax
  1109b6:	03 45 e8             	add    0xffffffe8(%ebp),%eax
  1109b9:	89 45 d8             	mov    %eax,0xffffffd8(%ebp)
  1109bc:	83 7d d8 00          	cmpl   $0x0,0xffffffd8(%ebp)
  1109c0:	74 4c                	je     0x110a0e
  1109c2:	8b 5d e4             	mov    0xffffffe4(%ebp),%ebx
  1109c5:	8b 45 e4             	mov    0xffffffe4(%ebp),%eax
  1109c8:	0f b6 90 00 c8 11 00 	movzbl 0x11c800(%eax),%edx
  1109cf:	8b 4d e8             	mov    0xffffffe8(%ebp),%ecx
  1109d2:	b8 01 00 00 00       	mov    $0x1,%eax
  1109d7:	d3 e0                	shl    %cl,%eax
  1109d9:	09 d0                	or     %edx,%eax
  1109db:	88 83 00 c8 11 00    	mov    %al,0x11c800(%ebx)
  1109e1:	8b 45 e0             	mov    0xffffffe0(%ebp),%eax
  1109e4:	c1 e0 09             	shl    $0x9,%eax
  1109e7:	05 00 04 00 00       	add    $0x400,%eax
  1109ec:	c7 44 24 0c 01 00 00 	movl   $0x1,0xc(%esp)
  1109f3:	00 
  1109f4:	89 44 24 08          	mov    %eax,0x8(%esp)
  1109f8:	c7 44 24 04 00 c8 11 	movl   $0x11c800,0x4(%esp)
  1109ff:	00 
  110a00:	c7 04 24 1a 03 00 00 	movl   $0x31a,(%esp)
  110a07:	e8 da 4e 00 00       	call   0x1158e6
  110a0c:	eb 0e                	jmp    0x110a1c
  110a0e:	83 45 e8 01          	addl   $0x1,0xffffffe8(%ebp)
  110a12:	83 7d e8 07          	cmpl   $0x7,0xffffffe8(%ebp)
  110a16:	0f 8e 75 ff ff ff    	jle    0x110991
  110a1c:	83 7d d8 00          	cmpl   $0x0,0xffffffd8(%ebp)
  110a20:	75 11                	jne    0x110a33
  110a22:	83 45 e4 01          	addl   $0x1,0xffffffe4(%ebp)
  110a26:	81 7d e4 ff 01 00 00 	cmpl   $0x1ff,0xffffffe4(%ebp)
  110a2d:	0f 8e 40 ff ff ff    	jle    0x110973
  110a33:	83 7d d8 00          	cmpl   $0x0,0xffffffd8(%ebp)
  110a37:	75 0e                	jne    0x110a47
  110a39:	83 45 e0 01          	addl   $0x1,0xffffffe0(%ebp)
  110a3d:	83 7d e0 00          	cmpl   $0x0,0xffffffe0(%ebp)
  110a41:	0f 8e f5 fe ff ff    	jle    0x11093c
  110a47:	83 7d d8 00          	cmpl   $0x0,0xffffffd8(%ebp)
  110a4b:	75 18                	jne    0x110a65
  110a4d:	c7 04 24 d3 84 11 00 	movl   $0x1184d3,(%esp)
  110a54:	e8 9b 2c 00 00       	call   0x1136f4
  110a59:	c7 45 c8 00 00 00 00 	movl   $0x0,0xffffffc8(%ebp)
  110a60:	e9 bf 04 00 00       	jmp    0x110f24
  110a65:	c7 45 e0 00 00 00 00 	movl   $0x0,0xffffffe0(%ebp)
  110a6c:	e9 d5 02 00 00       	jmp    0x110d46
  110a71:	8b 45 e0             	mov    0xffffffe0(%ebp),%eax
  110a74:	c1 e0 09             	shl    $0x9,%eax
  110a77:	05 00 06 00 00       	add    $0x600,%eax
  110a7c:	c7 44 24 0c 01 00 00 	movl   $0x1,0xc(%esp)
  110a83:	00 
  110a84:	89 44 24 08          	mov    %eax,0x8(%esp)
  110a88:	c7 44 24 04 00 c8 11 	movl   $0x11c800,0x4(%esp)
  110a8f:	00 
  110a90:	c7 04 24 1a 03 00 00 	movl   $0x31a,(%esp)
  110a97:	e8 c5 4d 00 00       	call   0x115861
  110a9c:	c7 45 e4 00 00 00 00 	movl   $0x0,0xffffffe4(%ebp)
  110aa3:	e9 8d 02 00 00       	jmp    0x110d35
  110aa8:	8b 45 e4             	mov    0xffffffe4(%ebp),%eax
  110aab:	0f b6 80 00 c8 11 00 	movzbl 0x11c800(%eax),%eax
  110ab2:	3c ff                	cmp    $0xff,%al
  110ab4:	0f 84 77 02 00 00    	je     0x110d31
  110aba:	c7 45 e8 00 00 00 00 	movl   $0x0,0xffffffe8(%ebp)
  110ac1:	e9 61 02 00 00       	jmp    0x110d27
  110ac6:	8b 45 e4             	mov    0xffffffe4(%ebp),%eax
  110ac9:	0f b6 80 00 c8 11 00 	movzbl 0x11c800(%eax),%eax
  110ad0:	0f be c0             	movsbl %al,%eax
  110ad3:	8b 4d e8             	mov    0xffffffe8(%ebp),%ecx
  110ad6:	d3 f8                	sar    %cl,%eax
  110ad8:	83 e0 01             	and    $0x1,%eax
  110adb:	85 c0                	test   %eax,%eax
  110add:	0f 85 40 02 00 00    	jne    0x110d23
  110ae3:	8b 45 e0             	mov    0xffffffe0(%ebp),%eax
  110ae6:	c1 e0 09             	shl    $0x9,%eax
  110ae9:	03 45 e4             	add    0xffffffe4(%ebp),%eax
  110aec:	c1 e0 03             	shl    $0x3,%eax
  110aef:	03 45 e8             	add    0xffffffe8(%ebp),%eax
  110af2:	89 45 dc             	mov    %eax,0xffffffdc(%ebp)
  110af5:	c7 45 f8 c8 00 00 00 	movl   $0xc8,0xfffffff8(%ebp)
  110afc:	e9 18 02 00 00       	jmp    0x110d19
  110b01:	8b 45 e0             	mov    0xffffffe0(%ebp),%eax
  110b04:	c1 e0 09             	shl    $0x9,%eax
  110b07:	05 00 06 00 00       	add    $0x600,%eax
  110b0c:	c7 44 24 0c 01 00 00 	movl   $0x1,0xc(%esp)
  110b13:	00 
  110b14:	89 44 24 08          	mov    %eax,0x8(%esp)
  110b18:	c7 44 24 04 00 c8 11 	movl   $0x11c800,0x4(%esp)
  110b1f:	00 
  110b20:	c7 04 24 1a 03 00 00 	movl   $0x31a,(%esp)
  110b27:	e8 35 4d 00 00       	call   0x115861
  110b2c:	e9 9f 01 00 00       	jmp    0x110cd0
  110b31:	b8 08 00 00 00       	mov    $0x8,%eax
  110b36:	2b 45 e8             	sub    0xffffffe8(%ebp),%eax
  110b39:	3b 45 f8             	cmp    0xfffffff8(%ebp),%eax
  110b3c:	0f 8c b0 00 00 00    	jl     0x110bf2
  110b42:	eb 6f                	jmp    0x110bb3
  110b44:	8b 45 e4             	mov    0xffffffe4(%ebp),%eax
  110b47:	0f b6 90 00 c8 11 00 	movzbl 0x11c800(%eax),%edx
  110b4e:	8b 4d e8             	mov    0xffffffe8(%ebp),%ecx
  110b51:	b8 01 00 00 00       	mov    $0x1,%eax
  110b56:	d3 e0                	shl    %cl,%eax
  110b58:	21 d0                	and    %edx,%eax
  110b5a:	84 c0                	test   %al,%al
  110b5c:	74 32                	je     0x110b90
  110b5e:	8b 45 e8             	mov    0xffffffe8(%ebp),%eax
  110b61:	89 44 24 0c          	mov    %eax,0xc(%esp)
  110b65:	8b 45 e4             	mov    0xffffffe4(%ebp),%eax
  110b68:	89 44 24 08          	mov    %eax,0x8(%esp)
  110b6c:	8b 45 e0             	mov    0xffffffe0(%ebp),%eax
  110b6f:	89 44 24 04          	mov    %eax,0x4(%esp)
  110b73:	c7 04 24 de 84 11 00 	movl   $0x1184de,(%esp)
  110b7a:	e8 75 2b 00 00       	call   0x1136f4
  110b7f:	c7 04 24 ee 84 11 00 	movl   $0x1184ee,(%esp)
  110b86:	e8 69 2b 00 00       	call   0x1136f4
  110b8b:	e9 93 01 00 00       	jmp    0x110d23
  110b90:	8b 5d e4             	mov    0xffffffe4(%ebp),%ebx
  110b93:	8b 45 e4             	mov    0xffffffe4(%ebp),%eax
  110b96:	0f b6 90 00 c8 11 00 	movzbl 0x11c800(%eax),%edx
  110b9d:	8b 4d e8             	mov    0xffffffe8(%ebp),%ecx
  110ba0:	b8 01 00 00 00       	mov    $0x1,%eax
  110ba5:	d3 e0                	shl    %cl,%eax
  110ba7:	09 d0                	or     %edx,%eax
  110ba9:	88 83 00 c8 11 00    	mov    %al,0x11c800(%ebx)
  110baf:	83 45 e8 01          	addl   $0x1,0xffffffe8(%ebp)
  110bb3:	83 7d f8 00          	cmpl   $0x0,0xfffffff8(%ebp)
  110bb7:	0f 9f c0             	setg   %al
  110bba:	83 6d f8 01          	subl   $0x1,0xfffffff8(%ebp)
  110bbe:	84 c0                	test   %al,%al
  110bc0:	75 82                	jne    0x110b44
  110bc2:	8b 45 e0             	mov    0xffffffe0(%ebp),%eax
  110bc5:	c1 e0 09             	shl    $0x9,%eax
  110bc8:	05 00 06 00 00       	add    $0x600,%eax
  110bcd:	c7 44 24 0c 01 00 00 	movl   $0x1,0xc(%esp)
  110bd4:	00 
  110bd5:	89 44 24 08          	mov    %eax,0x8(%esp)
  110bd9:	c7 44 24 04 00 c8 11 	movl   $0x11c800,0x4(%esp)
  110be0:	00 
  110be1:	c7 04 24 1a 03 00 00 	movl   $0x31a,(%esp)
  110be8:	e8 f9 4c 00 00       	call   0x1158e6
  110bed:	e9 5e 01 00 00       	jmp    0x110d50
  110bf2:	83 7d e8 00          	cmpl   $0x0,0xffffffe8(%ebp)
  110bf6:	0f 85 c3 00 00 00    	jne    0x110cbf
  110bfc:	8b 45 e4             	mov    0xffffffe4(%ebp),%eax
  110bff:	0f b6 80 00 c8 11 00 	movzbl 0x11c800(%eax),%eax
  110c06:	84 c0                	test   %al,%al
  110c08:	74 32                	je     0x110c3c
  110c0a:	8b 45 e8             	mov    0xffffffe8(%ebp),%eax
  110c0d:	89 44 24 0c          	mov    %eax,0xc(%esp)
  110c11:	8b 45 e4             	mov    0xffffffe4(%ebp),%eax
  110c14:	89 44 24 08          	mov    %eax,0x8(%esp)
  110c18:	8b 45 e0             	mov    0xffffffe0(%ebp),%eax
  110c1b:	89 44 24 04          	mov    %eax,0x4(%esp)
  110c1f:	c7 04 24 de 84 11 00 	movl   $0x1184de,(%esp)
  110c26:	e8 c9 2a 00 00       	call   0x1136f4
  110c2b:	c7 04 24 fb 84 11 00 	movl   $0x1184fb,(%esp)
  110c32:	e8 bd 2a 00 00       	call   0x1136f4
  110c37:	e9 e7 00 00 00       	jmp    0x110d23
  110c3c:	8b 45 e4             	mov    0xffffffe4(%ebp),%eax
  110c3f:	c6 80 00 c8 11 00 ff 	movb   $0xff,0x11c800(%eax)
  110c46:	83 6d f8 08          	subl   $0x8,0xfffffff8(%ebp)
  110c4a:	eb 79                	jmp    0x110cc5
  110c4c:	8b 45 e4             	mov    0xffffffe4(%ebp),%eax
  110c4f:	0f b6 90 00 c8 11 00 	movzbl 0x11c800(%eax),%edx
  110c56:	8b 4d e8             	mov    0xffffffe8(%ebp),%ecx
  110c59:	b8 01 00 00 00       	mov    $0x1,%eax
  110c5e:	d3 e0                	shl    %cl,%eax
  110c60:	21 d0                	and    %edx,%eax
  110c62:	84 c0                	test   %al,%al
  110c64:	74 32                	je     0x110c98
  110c66:	8b 45 e8             	mov    0xffffffe8(%ebp),%eax
  110c69:	89 44 24 0c          	mov    %eax,0xc(%esp)
  110c6d:	8b 45 e4             	mov    0xffffffe4(%ebp),%eax
  110c70:	89 44 24 08          	mov    %eax,0x8(%esp)
  110c74:	8b 45 e0             	mov    0xffffffe0(%ebp),%eax
  110c77:	89 44 24 04          	mov    %eax,0x4(%esp)
  110c7b:	c7 04 24 de 84 11 00 	movl   $0x1184de,(%esp)
  110c82:	e8 6d 2a 00 00       	call   0x1136f4
  110c87:	c7 04 24 08 85 11 00 	movl   $0x118508,(%esp)
  110c8e:	e8 61 2a 00 00       	call   0x1136f4
  110c93:	e9 8b 00 00 00       	jmp    0x110d23
  110c98:	8b 5d e4             	mov    0xffffffe4(%ebp),%ebx
  110c9b:	8b 45 e4             	mov    0xffffffe4(%ebp),%eax
  110c9e:	0f b6 90 00 c8 11 00 	movzbl 0x11c800(%eax),%edx
  110ca5:	8b 4d e8             	mov    0xffffffe8(%ebp),%ecx
  110ca8:	b8 01 00 00 00       	mov    $0x1,%eax
  110cad:	d3 e0                	shl    %cl,%eax
  110caf:	09 d0                	or     %edx,%eax
  110cb1:	88 83 00 c8 11 00    	mov    %al,0x11c800(%ebx)
  110cb7:	83 45 e8 01          	addl   $0x1,0xffffffe8(%ebp)
  110cbb:	83 6d f8 01          	subl   $0x1,0xfffffff8(%ebp)
  110cbf:	83 7d e8 07          	cmpl   $0x7,0xffffffe8(%ebp)
  110cc3:	7e 87                	jle    0x110c4c
  110cc5:	83 45 e4 01          	addl   $0x1,0xffffffe4(%ebp)
  110cc9:	c7 45 e8 00 00 00 00 	movl   $0x0,0xffffffe8(%ebp)
  110cd0:	81 7d e4 ff 01 00 00 	cmpl   $0x1ff,0xffffffe4(%ebp)
  110cd7:	7f 0a                	jg     0x110ce3
  110cd9:	83 7d f8 00          	cmpl   $0x0,0xfffffff8(%ebp)
  110cdd:	0f 8f 4e fe ff ff    	jg     0x110b31
  110ce3:	8b 45 e0             	mov    0xffffffe0(%ebp),%eax
  110ce6:	c1 e0 09             	shl    $0x9,%eax
  110ce9:	05 00 06 00 00       	add    $0x600,%eax
  110cee:	c7 44 24 0c 01 00 00 	movl   $0x1,0xc(%esp)
  110cf5:	00 
  110cf6:	89 44 24 08          	mov    %eax,0x8(%esp)
  110cfa:	c7 44 24 04 00 c8 11 	movl   $0x11c800,0x4(%esp)
  110d01:	00 
  110d02:	c7 04 24 1a 03 00 00 	movl   $0x31a,(%esp)
  110d09:	e8 d8 4b 00 00       	call   0x1158e6
  110d0e:	83 45 e0 01          	addl   $0x1,0xffffffe0(%ebp)
  110d12:	c7 45 e4 00 00 00 00 	movl   $0x0,0xffffffe4(%ebp)
  110d19:	83 7d f8 00          	cmpl   $0x0,0xfffffff8(%ebp)
  110d1d:	0f 8f de fd ff ff    	jg     0x110b01
  110d23:	83 45 e8 01          	addl   $0x1,0xffffffe8(%ebp)
  110d27:	83 7d e8 07          	cmpl   $0x7,0xffffffe8(%ebp)
  110d2b:	0f 8e 95 fd ff ff    	jle    0x110ac6
  110d31:	83 45 e4 01          	addl   $0x1,0xffffffe4(%ebp)
  110d35:	81 7d e4 ff 01 00 00 	cmpl   $0x1ff,0xffffffe4(%ebp)
  110d3c:	0f 8e 66 fd ff ff    	jle    0x110aa8
  110d42:	83 45 e0 01          	addl   $0x1,0xffffffe0(%ebp)
  110d46:	83 7d e0 00          	cmpl   $0x0,0xffffffe0(%ebp)
  110d4a:	0f 8e 21 fd ff ff    	jle    0x110a71
  110d50:	83 7d dc 00          	cmpl   $0x0,0xffffffdc(%ebp)
  110d54:	75 18                	jne    0x110d6e
  110d56:	c7 04 24 15 85 11 00 	movl   $0x118515,(%esp)
  110d5d:	e8 92 29 00 00       	call   0x1136f4
  110d62:	c7 45 c8 00 00 00 00 	movl   $0x0,0xffffffc8(%ebp)
  110d69:	e9 b6 01 00 00       	jmp    0x110f24
  110d6e:	8b 45 d8             	mov    0xffffffd8(%ebp),%eax
  110d71:	c1 e0 05             	shl    $0x5,%eax
  110d74:	05 00 08 00 00       	add    $0x800,%eax
  110d79:	25 00 fe ff ff       	and    $0xfffffe00,%eax
  110d7e:	89 45 ec             	mov    %eax,0xffffffec(%ebp)
  110d81:	8b 45 ec             	mov    0xffffffec(%ebp),%eax
  110d84:	c7 44 24 0c 01 00 00 	movl   $0x1,0xc(%esp)
  110d8b:	00 
  110d8c:	89 44 24 08          	mov    %eax,0x8(%esp)
  110d90:	c7 44 24 04 00 c8 11 	movl   $0x11c800,0x4(%esp)
  110d97:	00 
  110d98:	c7 04 24 1a 03 00 00 	movl   $0x31a,(%esp)
  110d9f:	e8 bd 4a 00 00       	call   0x115861
  110da4:	c7 45 f0 00 c8 11 00 	movl   $0x11c800,0xfffffff0(%ebp)
  110dab:	8b 45 d8             	mov    0xffffffd8(%ebp),%eax
  110dae:	83 e0 0f             	and    $0xf,%eax
  110db1:	c1 e0 05             	shl    $0x5,%eax
  110db4:	01 45 f0             	add    %eax,0xfffffff0(%ebp)
  110db7:	8b 45 f0             	mov    0xfffffff0(%ebp),%eax
  110dba:	c7 00 04 00 00 00    	movl   $0x4,(%eax)
  110dc0:	8b 45 f0             	mov    0xfffffff0(%ebp),%eax
  110dc3:	c7 40 04 00 90 01 00 	movl   $0x19000,0x4(%eax)
  110dca:	8b 55 dc             	mov    0xffffffdc(%ebp),%edx
  110dcd:	8b 45 f0             	mov    0xfffffff0(%ebp),%eax
  110dd0:	89 50 08             	mov    %edx,0x8(%eax)
  110dd3:	8b 45 f0             	mov    0xfffffff0(%ebp),%eax
  110dd6:	c7 40 0c c8 00 00 00 	movl   $0xc8,0xc(%eax)
  110ddd:	c7 44 24 0c c8 00 00 	movl   $0xc8,0xc(%esp)
  110de4:	00 
  110de5:	8b 45 dc             	mov    0xffffffdc(%ebp),%eax
  110de8:	89 44 24 08          	mov    %eax,0x8(%esp)
  110dec:	8b 45 08             	mov    0x8(%ebp),%eax
  110def:	89 44 24 04          	mov    %eax,0x4(%esp)
  110df3:	c7 04 24 24 85 11 00 	movl   $0x118524,(%esp)
  110dfa:	e8 f5 28 00 00       	call   0x1136f4
  110dff:	8b 45 ec             	mov    0xffffffec(%ebp),%eax
  110e02:	c7 44 24 0c 01 00 00 	movl   $0x1,0xc(%esp)
  110e09:	00 
  110e0a:	89 44 24 08          	mov    %eax,0x8(%esp)
  110e0e:	c7 44 24 04 00 c8 11 	movl   $0x11c800,0x4(%esp)
  110e15:	00 
  110e16:	c7 04 24 1a 03 00 00 	movl   $0x31a,(%esp)
  110e1d:	e8 c4 4a 00 00       	call   0x1158e6
  110e22:	c7 45 e0 00 00 00 00 	movl   $0x0,0xffffffe0(%ebp)
  110e29:	e9 d9 00 00 00       	jmp    0x110f07
  110e2e:	8b 45 e0             	mov    0xffffffe0(%ebp),%eax
  110e31:	c1 e0 09             	shl    $0x9,%eax
  110e34:	05 00 0e 00 00       	add    $0xe00,%eax
  110e39:	c7 44 24 0c 01 00 00 	movl   $0x1,0xc(%esp)
  110e40:	00 
  110e41:	89 44 24 08          	mov    %eax,0x8(%esp)
  110e45:	c7 44 24 04 00 c8 11 	movl   $0x11c800,0x4(%esp)
  110e4c:	00 
  110e4d:	c7 04 24 1a 03 00 00 	movl   $0x31a,(%esp)
  110e54:	e8 08 4a 00 00       	call   0x115861
  110e59:	c7 45 f4 00 c8 11 00 	movl   $0x11c800,0xfffffff4(%ebp)
  110e60:	e9 88 00 00 00       	jmp    0x110eed
  110e65:	8b 45 f4             	mov    0xfffffff4(%ebp),%eax
  110e68:	8b 00                	mov    (%eax),%eax
  110e6a:	85 c0                	test   %eax,%eax
  110e6c:	75 7b                	jne    0x110ee9
  110e6e:	83 7d e0 00          	cmpl   $0x0,0xffffffe0(%ebp)
  110e72:	75 0a                	jne    0x110e7e
  110e74:	b8 00 c8 11 00       	mov    $0x11c800,%eax
  110e79:	39 45 f4             	cmp    %eax,0xfffffff4(%ebp)
  110e7c:	74 6b                	je     0x110ee9
  110e7e:	8b 55 f4             	mov    0xfffffff4(%ebp),%edx
  110e81:	8b 45 d8             	mov    0xffffffd8(%ebp),%eax
  110e84:	89 02                	mov    %eax,(%edx)
  110e86:	8b 55 f4             	mov    0xfffffff4(%ebp),%edx
  110e89:	83 c2 04             	add    $0x4,%edx
  110e8c:	c7 44 24 08 0c 00 00 	movl   $0xc,0x8(%esp)
  110e93:	00 
  110e94:	8b 45 08             	mov    0x8(%ebp),%eax
  110e97:	89 44 24 04          	mov    %eax,0x4(%esp)
  110e9b:	89 14 24             	mov    %edx,(%esp)
  110e9e:	e8 1d 25 00 00       	call   0x1133c0
  110ea3:	8b 45 e0             	mov    0xffffffe0(%ebp),%eax
  110ea6:	c1 e0 09             	shl    $0x9,%eax
  110ea9:	05 00 0e 00 00       	add    $0xe00,%eax
  110eae:	c7 44 24 0c 01 00 00 	movl   $0x1,0xc(%esp)
  110eb5:	00 
  110eb6:	89 44 24 08          	mov    %eax,0x8(%esp)
  110eba:	c7 44 24 04 00 c8 11 	movl   $0x11c800,0x4(%esp)
  110ec1:	00 
  110ec2:	c7 04 24 1a 03 00 00 	movl   $0x31a,(%esp)
  110ec9:	e8 18 4a 00 00       	call   0x1158e6
  110ece:	8b 45 08             	mov    0x8(%ebp),%eax
  110ed1:	89 44 24 04          	mov    %eax,0x4(%esp)
  110ed5:	c7 04 24 4c 85 11 00 	movl   $0x11854c,(%esp)
  110edc:	e8 13 28 00 00       	call   0x1136f4
  110ee1:	8b 45 d8             	mov    0xffffffd8(%ebp),%eax
  110ee4:	89 45 c8             	mov    %eax,0xffffffc8(%ebp)
  110ee7:	eb 3b                	jmp    0x110f24
  110ee9:	83 45 f4 10          	addl   $0x10,0xfffffff4(%ebp)
  110eed:	8b 45 f4             	mov    0xfffffff4(%ebp),%eax
  110ef0:	ba 00 c8 11 00       	mov    $0x11c800,%edx
  110ef5:	81 c2 00 02 00 00    	add    $0x200,%edx
  110efb:	39 d0                	cmp    %edx,%eax
  110efd:	0f 8c 62 ff ff ff    	jl     0x110e65
  110f03:	83 45 e0 01          	addl   $0x1,0xffffffe0(%ebp)
  110f07:	83 7d e0 00          	cmpl   $0x0,0xffffffe0(%ebp)
  110f0b:	0f 84 1d ff ff ff    	je     0x110e2e
  110f11:	c7 04 24 65 85 11 00 	movl   $0x118565,(%esp)
  110f18:	e8 d7 27 00 00       	call   0x1136f4
  110f1d:	c7 45 c8 00 00 00 00 	movl   $0x0,0xffffffc8(%ebp)
  110f24:	8b 45 c8             	mov    0xffffffc8(%ebp),%eax
  110f27:	83 c4 44             	add    $0x44,%esp
  110f2a:	5b                   	pop    %ebx
  110f2b:	5d                   	pop    %ebp
  110f2c:	c3                   	ret    
  110f2d:	55                   	push   %ebp
  110f2e:	89 e5                	mov    %esp,%ebp
  110f30:	83 ec 68             	sub    $0x68,%esp
  110f33:	8b 45 08             	mov    0x8(%ebp),%eax
  110f36:	89 44 24 04          	mov    %eax,0x4(%esp)
  110f3a:	8b 45 10             	mov    0x10(%ebp),%eax
  110f3d:	89 04 24             	mov    %eax,(%esp)
  110f40:	e8 48 27 00 00       	call   0x11368d
  110f45:	89 45 08             	mov    %eax,0x8(%ebp)
  110f48:	c7 45 f8 00 00 00 00 	movl   $0x0,0xfffffff8(%ebp)
  110f4f:	c7 45 e8 00 00 00 00 	movl   $0x0,0xffffffe8(%ebp)
  110f56:	eb 78                	jmp    0x110fd0
  110f58:	8b 45 f8             	mov    0xfffffff8(%ebp),%eax
  110f5b:	c1 e0 09             	shl    $0x9,%eax
  110f5e:	05 00 0e 00 00       	add    $0xe00,%eax
  110f63:	c7 44 24 0c 01 00 00 	movl   $0x1,0xc(%esp)
  110f6a:	00 
  110f6b:	89 44 24 08          	mov    %eax,0x8(%esp)
  110f6f:	c7 44 24 04 00 c8 11 	movl   $0x11c800,0x4(%esp)
  110f76:	00 
  110f77:	c7 04 24 1a 03 00 00 	movl   $0x31a,(%esp)
  110f7e:	e8 de 48 00 00       	call   0x115861
  110f83:	c7 45 fc 00 00 00 00 	movl   $0x0,0xfffffffc(%ebp)
  110f8a:	c7 45 f4 00 c8 11 00 	movl   $0x11c800,0xfffffff4(%ebp)
  110f91:	eb 2b                	jmp    0x110fbe
  110f93:	8b 45 f4             	mov    0xfffffff4(%ebp),%eax
  110f96:	83 c0 04             	add    $0x4,%eax
  110f99:	8b 55 08             	mov    0x8(%ebp),%edx
  110f9c:	89 54 24 04          	mov    %edx,0x4(%esp)
  110fa0:	89 04 24             	mov    %eax,(%esp)
  110fa3:	e8 a7 23 00 00       	call   0x11334f
  110fa8:	85 c0                	test   %eax,%eax
  110faa:	75 0a                	jne    0x110fb6
  110fac:	8b 45 f4             	mov    0xfffffff4(%ebp),%eax
  110faf:	8b 00                	mov    (%eax),%eax
  110fb1:	89 45 e8             	mov    %eax,0xffffffe8(%ebp)
  110fb4:	eb 10                	jmp    0x110fc6
  110fb6:	83 45 fc 01          	addl   $0x1,0xfffffffc(%ebp)
  110fba:	83 45 f4 10          	addl   $0x10,0xfffffff4(%ebp)
  110fbe:	8b 45 fc             	mov    0xfffffffc(%ebp),%eax
  110fc1:	83 f8 1f             	cmp    $0x1f,%eax
  110fc4:	76 cd                	jbe    0x110f93
  110fc6:	83 7d e8 00          	cmpl   $0x0,0xffffffe8(%ebp)
  110fca:	75 0a                	jne    0x110fd6
  110fcc:	83 45 f8 01          	addl   $0x1,0xfffffff8(%ebp)
  110fd0:	83 7d f8 00          	cmpl   $0x0,0xfffffff8(%ebp)
  110fd4:	74 82                	je     0x110f58
  110fd6:	83 7d e8 00          	cmpl   $0x0,0xffffffe8(%ebp)
  110fda:	75 45                	jne    0x111021
  110fdc:	83 7d 0c 01          	cmpl   $0x1,0xc(%ebp)
  110fe0:	75 33                	jne    0x111015
  110fe2:	8b 45 08             	mov    0x8(%ebp),%eax
  110fe5:	89 04 24             	mov    %eax,(%esp)
  110fe8:	e8 2e f9 ff ff       	call   0x11091b
  110fed:	89 45 e8             	mov    %eax,0xffffffe8(%ebp)
  110ff0:	83 7d e8 00          	cmpl   $0x0,0xffffffe8(%ebp)
  110ff4:	75 2b                	jne    0x111021
  110ff6:	8b 45 08             	mov    0x8(%ebp),%eax
  110ff9:	89 44 24 04          	mov    %eax,0x4(%esp)
  110ffd:	c7 04 24 76 85 11 00 	movl   $0x118576,(%esp)
  111004:	e8 eb 26 00 00       	call   0x1136f4
  111009:	c7 45 ac ff ff ff ff 	movl   $0xffffffff,0xffffffac(%ebp)
  111010:	e9 90 02 00 00       	jmp    0x1112a5
  111015:	c7 45 ac ff ff ff ff 	movl   $0xffffffff,0xffffffac(%ebp)
  11101c:	e9 84 02 00 00       	jmp    0x1112a5
  111021:	c7 45 f0 c0 ac 11 00 	movl   $0x11acc0,0xfffffff0(%ebp)
  111028:	eb 19                	jmp    0x111043
  11102a:	8b 45 f0             	mov    0xfffffff0(%ebp),%eax
  11102d:	8b 40 24             	mov    0x24(%eax),%eax
  111030:	85 c0                	test   %eax,%eax
  111032:	74 0b                	je     0x11103f
  111034:	8b 45 f0             	mov    0xfffffff0(%ebp),%eax
  111037:	8b 40 28             	mov    0x28(%eax),%eax
  11103a:	3b 45 e8             	cmp    0xffffffe8(%ebp),%eax
  11103d:	74 0e                	je     0x11104d
  11103f:	83 45 f0 2c          	addl   $0x2c,0xfffffff0(%ebp)
  111043:	b8 c0 b7 11 00       	mov    $0x11b7c0,%eax
  111048:	39 45 f0             	cmp    %eax,0xfffffff0(%ebp)
  11104b:	72 dd                	jb     0x11102a
  11104d:	b8 c0 b7 11 00       	mov    $0x11b7c0,%eax
  111052:	39 45 f0             	cmp    %eax,0xfffffff0(%ebp)
  111055:	72 4a                	jb     0x1110a1
  111057:	c7 45 f0 c0 ac 11 00 	movl   $0x11acc0,0xfffffff0(%ebp)
  11105e:	eb 0e                	jmp    0x11106e
  111060:	8b 45 f0             	mov    0xfffffff0(%ebp),%eax
  111063:	8b 40 24             	mov    0x24(%eax),%eax
  111066:	85 c0                	test   %eax,%eax
  111068:	74 0e                	je     0x111078
  11106a:	83 45 f0 2c          	addl   $0x2c,0xfffffff0(%ebp)
  11106e:	b8 c0 b7 11 00       	mov    $0x11b7c0,%eax
  111073:	39 45 f0             	cmp    %eax,0xfffffff0(%ebp)
  111076:	72 e8                	jb     0x111060
  111078:	b8 c0 b7 11 00       	mov    $0x11b7c0,%eax
  11107d:	39 45 f0             	cmp    %eax,0xfffffff0(%ebp)
  111080:	72 1f                	jb     0x1110a1
  111082:	8b 45 08             	mov    0x8(%ebp),%eax
  111085:	89 44 24 04          	mov    %eax,0x4(%esp)
  111089:	c7 04 24 8d 85 11 00 	movl   $0x11858d,(%esp)
  111090:	e8 5f 26 00 00       	call   0x1136f4
  111095:	c7 45 ac ff ff ff ff 	movl   $0xffffffff,0xffffffac(%ebp)
  11109c:	e9 04 02 00 00       	jmp    0x1112a5
  1110a1:	c7 45 ec 00 d6 11 00 	movl   $0x11d600,0xffffffec(%ebp)
  1110a8:	eb 0e                	jmp    0x1110b8
  1110aa:	8b 45 ec             	mov    0xffffffec(%ebp),%eax
  1110ad:	8b 40 08             	mov    0x8(%eax),%eax
  1110b0:	85 c0                	test   %eax,%eax
  1110b2:	74 0e                	je     0x1110c2
  1110b4:	83 45 ec 0c          	addl   $0xc,0xffffffec(%ebp)
  1110b8:	b8 00 d9 11 00       	mov    $0x11d900,%eax
  1110bd:	39 45 ec             	cmp    %eax,0xffffffec(%ebp)
  1110c0:	72 e8                	jb     0x1110aa
  1110c2:	b8 00 d9 11 00       	mov    $0x11d900,%eax
  1110c7:	39 45 ec             	cmp    %eax,0xffffffec(%ebp)
  1110ca:	72 1f                	jb     0x1110eb
  1110cc:	8b 45 08             	mov    0x8(%ebp),%eax
  1110cf:	89 44 24 04          	mov    %eax,0x4(%esp)
  1110d3:	c7 04 24 a4 85 11 00 	movl   $0x1185a4,(%esp)
  1110da:	e8 15 26 00 00       	call   0x1136f4
  1110df:	c7 45 ac ff ff ff ff 	movl   $0xffffffff,0xffffffac(%ebp)
  1110e6:	e9 ba 01 00 00       	jmp    0x1112a5
  1110eb:	c7 45 f8 00 00 00 00 	movl   $0x0,0xfffffff8(%ebp)
  1110f2:	eb 15                	jmp    0x111109
  1110f4:	8b 45 f8             	mov    0xfffffff8(%ebp),%eax
  1110f7:	8b 55 10             	mov    0x10(%ebp),%edx
  1110fa:	8b 84 82 80 00 00 00 	mov    0x80(%edx,%eax,4),%eax
  111101:	85 c0                	test   %eax,%eax
  111103:	74 0a                	je     0x11110f
  111105:	83 45 f8 01          	addl   $0x1,0xfffffff8(%ebp)
  111109:	83 7d f8 1f          	cmpl   $0x1f,0xfffffff8(%ebp)
  11110d:	7e e5                	jle    0x1110f4
  11110f:	83 7d f8 1f          	cmpl   $0x1f,0xfffffff8(%ebp)
  111113:	7e 1f                	jle    0x111134
  111115:	8b 45 08             	mov    0x8(%ebp),%eax
  111118:	89 44 24 04          	mov    %eax,0x4(%esp)
  11111c:	c7 04 24 ba 85 11 00 	movl   $0x1185ba,(%esp)
  111123:	e8 cc 25 00 00       	call   0x1136f4
  111128:	c7 45 ac ff ff ff ff 	movl   $0xffffffff,0xffffffac(%ebp)
  11112f:	e9 71 01 00 00       	jmp    0x1112a5
  111134:	8b 4d f8             	mov    0xfffffff8(%ebp),%ecx
  111137:	8b 55 10             	mov    0x10(%ebp),%edx
  11113a:	8b 45 ec             	mov    0xffffffec(%ebp),%eax
  11113d:	89 84 8a 80 00 00 00 	mov    %eax,0x80(%edx,%ecx,4)
  111144:	8b 45 ec             	mov    0xffffffec(%ebp),%eax
  111147:	c7 00 01 00 00 00    	movl   $0x1,(%eax)
  11114d:	8b 45 ec             	mov    0xffffffec(%ebp),%eax
  111150:	c7 40 04 00 00 00 00 	movl   $0x0,0x4(%eax)
  111157:	8b 55 ec             	mov    0xffffffec(%ebp),%edx
  11115a:	8b 45 f0             	mov    0xfffffff0(%ebp),%eax
  11115d:	89 42 08             	mov    %eax,0x8(%edx)
  111160:	8b 45 f0             	mov    0xfffffff0(%ebp),%eax
  111163:	8b 40 24             	mov    0x24(%eax),%eax
  111166:	8d 50 01             	lea    0x1(%eax),%edx
  111169:	8b 45 f0             	mov    0xfffffff0(%ebp),%eax
  11116c:	89 50 24             	mov    %edx,0x24(%eax)
  11116f:	8b 45 f0             	mov    0xfffffff0(%ebp),%eax
  111172:	8b 40 24             	mov    0x24(%eax),%eax
  111175:	83 f8 01             	cmp    $0x1,%eax
  111178:	0f 85 82 00 00 00    	jne    0x111200
  11117e:	8b 45 e8             	mov    0xffffffe8(%ebp),%eax
  111181:	c1 e8 04             	shr    $0x4,%eax
  111184:	c1 e0 09             	shl    $0x9,%eax
  111187:	05 00 08 00 00       	add    $0x800,%eax
  11118c:	c7 44 24 0c 01 00 00 	movl   $0x1,0xc(%esp)
  111193:	00 
  111194:	89 44 24 08          	mov    %eax,0x8(%esp)
  111198:	c7 44 24 04 00 c8 11 	movl   $0x11c800,0x4(%esp)
  11119f:	00 
  1111a0:	c7 04 24 1a 03 00 00 	movl   $0x31a,(%esp)
  1111a7:	e8 b5 46 00 00       	call   0x115861
  1111ac:	c7 45 e4 00 c8 11 00 	movl   $0x11c800,0xffffffe4(%ebp)
  1111b3:	8b 45 e8             	mov    0xffffffe8(%ebp),%eax
  1111b6:	83 e0 0f             	and    $0xf,%eax
  1111b9:	c1 e0 05             	shl    $0x5,%eax
  1111bc:	01 45 e4             	add    %eax,0xffffffe4(%ebp)
  1111bf:	8b 45 e4             	mov    0xffffffe4(%ebp),%eax
  1111c2:	8b 10                	mov    (%eax),%edx
  1111c4:	8b 45 f0             	mov    0xfffffff0(%ebp),%eax
  1111c7:	89 10                	mov    %edx,(%eax)
  1111c9:	8b 45 e4             	mov    0xffffffe4(%ebp),%eax
  1111cc:	8b 50 04             	mov    0x4(%eax),%edx
  1111cf:	8b 45 f0             	mov    0xfffffff0(%ebp),%eax
  1111d2:	89 50 04             	mov    %edx,0x4(%eax)
  1111d5:	8b 45 e4             	mov    0xffffffe4(%ebp),%eax
  1111d8:	8b 50 08             	mov    0x8(%eax),%edx
  1111db:	8b 45 f0             	mov    0xfffffff0(%ebp),%eax
  1111de:	89 50 08             	mov    %edx,0x8(%eax)
  1111e1:	8b 45 e4             	mov    0xffffffe4(%ebp),%eax
  1111e4:	8b 50 0c             	mov    0xc(%eax),%edx
  1111e7:	8b 45 f0             	mov    0xfffffff0(%ebp),%eax
  1111ea:	89 50 0c             	mov    %edx,0xc(%eax)
  1111ed:	8b 45 f0             	mov    0xfffffff0(%ebp),%eax
  1111f0:	c7 40 20 1a 03 00 00 	movl   $0x31a,0x20(%eax)
  1111f7:	8b 55 f0             	mov    0xfffffff0(%ebp),%edx
  1111fa:	8b 45 e8             	mov    0xffffffe8(%ebp),%eax
  1111fd:	89 42 28             	mov    %eax,0x28(%edx)
  111200:	8b 45 f0             	mov    0xfffffff0(%ebp),%eax
  111203:	8b 00                	mov    (%eax),%eax
  111205:	83 f8 02             	cmp    $0x2,%eax
  111208:	0f 85 91 00 00 00    	jne    0x11129f
  11120e:	8b 45 f0             	mov    0xfffffff0(%ebp),%eax
  111211:	8b 40 08             	mov    0x8(%eax),%eax
  111214:	89 c2                	mov    %eax,%edx
  111216:	8b 45 f0             	mov    0xfffffff0(%ebp),%eax
  111219:	89 50 20             	mov    %edx,0x20(%eax)
  11121c:	c7 45 c4 fe ff ff ff 	movl   $0xfffffffe,0xffffffc4(%ebp)
  111223:	c7 45 c8 00 00 00 00 	movl   $0x0,0xffffffc8(%ebp)
  11122a:	8b 45 f0             	mov    0xfffffff0(%ebp),%eax
  11122d:	8b 40 20             	mov    0x20(%eax),%eax
  111230:	25 ff 00 00 00       	and    $0xff,%eax
  111235:	89 45 cc             	mov    %eax,0xffffffcc(%ebp)
  111238:	e8 d5 20 00 00       	call   0x113312
  11123d:	a1 6c ff 11 00       	mov    0x11ff6c,%eax
  111242:	85 c0                	test   %eax,%eax
  111244:	75 54                	jne    0x11129a
  111246:	8b 45 f0             	mov    0xfffffff0(%ebp),%eax
  111249:	8b 40 20             	mov    0x20(%eax),%eax
  11124c:	c1 f8 08             	sar    $0x8,%eax
  11124f:	25 ff 00 00 00       	and    $0xff,%eax
  111254:	8b 14 85 40 a7 11 00 	mov    0x11a740(,%eax,4),%edx
  11125b:	8d 45 bc             	lea    0xffffffbc(%ebp),%eax
  11125e:	89 44 24 08          	mov    %eax,0x8(%esp)
  111262:	89 54 24 04          	mov    %edx,0x4(%esp)
  111266:	c7 04 24 02 00 00 00 	movl   $0x2,(%esp)
  11126d:	e8 a1 37 00 00       	call   0x114a13
  111272:	85 c0                	test   %eax,%eax
  111274:	74 24                	je     0x11129a
  111276:	c7 44 24 0c f1 01 00 	movl   $0x1f1,0xc(%esp)
  11127d:	00 
  11127e:	c7 44 24 08 b8 83 11 	movl   $0x1183b8,0x8(%esp)
  111285:	00 
  111286:	c7 44 24 04 b8 83 11 	movl   $0x1183b8,0x4(%esp)
  11128d:	00 
  11128e:	c7 04 24 cc 85 11 00 	movl   $0x1185cc,(%esp)
  111295:	e8 7a 11 00 00       	call   0x112414
  11129a:	e8 69 20 00 00       	call   0x113308
  11129f:	8b 45 f8             	mov    0xfffffff8(%ebp),%eax
  1112a2:	89 45 ac             	mov    %eax,0xffffffac(%ebp)
  1112a5:	8b 45 ac             	mov    0xffffffac(%ebp),%eax
  1112a8:	c9                   	leave  
  1112a9:	c3                   	ret    
  1112aa:	55                   	push   %ebp
  1112ab:	89 e5                	mov    %esp,%ebp
  1112ad:	83 ec 58             	sub    $0x58,%esp
  1112b0:	8b 45 0c             	mov    0xc(%ebp),%eax
  1112b3:	89 44 24 04          	mov    %eax,0x4(%esp)
  1112b7:	8b 45 18             	mov    0x18(%ebp),%eax
  1112ba:	89 04 24             	mov    %eax,(%esp)
  1112bd:	e8 cb 23 00 00       	call   0x11368d
  1112c2:	89 45 0c             	mov    %eax,0xc(%ebp)
  1112c5:	8b 55 08             	mov    0x8(%ebp),%edx
  1112c8:	8b 45 18             	mov    0x18(%ebp),%eax
  1112cb:	8b 84 90 80 00 00 00 	mov    0x80(%eax,%edx,4),%eax
  1112d2:	89 45 e8             	mov    %eax,0xffffffe8(%ebp)
  1112d5:	8b 45 e8             	mov    0xffffffe8(%ebp),%eax
  1112d8:	8b 40 08             	mov    0x8(%eax),%eax
  1112db:	89 45 ec             	mov    %eax,0xffffffec(%ebp)
  1112de:	8b 45 ec             	mov    0xffffffec(%ebp),%eax
  1112e1:	8b 00                	mov    (%eax),%eax
  1112e3:	83 f8 02             	cmp    $0x2,%eax
  1112e6:	0f 85 8f 00 00 00    	jne    0x11137b
  1112ec:	c7 45 c8 fe ff ff ff 	movl   $0xfffffffe,0xffffffc8(%ebp)
  1112f3:	c7 45 cc 03 00 00 00 	movl   $0x3,0xffffffcc(%ebp)
  1112fa:	8b 45 ec             	mov    0xffffffec(%ebp),%eax
  1112fd:	8b 40 20             	mov    0x20(%eax),%eax
  111300:	25 ff 00 00 00       	and    $0xff,%eax
  111305:	89 45 d0             	mov    %eax,0xffffffd0(%ebp)
  111308:	8b 45 0c             	mov    0xc(%ebp),%eax
  11130b:	89 45 dc             	mov    %eax,0xffffffdc(%ebp)
  11130e:	8b 45 14             	mov    0x14(%ebp),%eax
  111311:	89 45 e0             	mov    %eax,0xffffffe0(%ebp)
  111314:	e8 f9 1f 00 00       	call   0x113312
  111319:	a1 6c ff 11 00       	mov    0x11ff6c,%eax
  11131e:	85 c0                	test   %eax,%eax
  111320:	75 48                	jne    0x11136a
  111322:	8b 45 ec             	mov    0xffffffec(%ebp),%eax
  111325:	8b 40 20             	mov    0x20(%eax),%eax
  111328:	c1 f8 08             	sar    $0x8,%eax
  11132b:	25 ff 00 00 00       	and    $0xff,%eax
  111330:	8b 14 85 40 a7 11 00 	mov    0x11a740(,%eax,4),%edx
  111337:	8d 45 c0             	lea    0xffffffc0(%ebp),%eax
  11133a:	89 44 24 08          	mov    %eax,0x8(%esp)
  11133e:	89 54 24 04          	mov    %edx,0x4(%esp)
  111342:	c7 04 24 02 00 00 00 	movl   $0x2,(%esp)
  111349:	e8 c5 36 00 00       	call   0x114a13
  11134e:	83 f8 ff             	cmp    $0xffffffff,%eax
  111351:	75 07                	jne    0x11135a
  111353:	c7 45 e0 ff ff ff ff 	movl   $0xffffffff,0xffffffe0(%ebp)
  11135a:	e8 a9 1f 00 00       	call   0x113308
  11135f:	8b 45 e0             	mov    0xffffffe0(%ebp),%eax
  111362:	89 45 bc             	mov    %eax,0xffffffbc(%ebp)
  111365:	e9 32 02 00 00       	jmp    0x11159c
  11136a:	e8 99 1f 00 00       	call   0x113308
  11136f:	c7 45 bc ff ff ff ff 	movl   $0xffffffff,0xffffffbc(%ebp)
  111376:	e9 21 02 00 00       	jmp    0x11159c
  11137b:	8b 45 ec             	mov    0xffffffec(%ebp),%eax
  11137e:	8b 40 08             	mov    0x8(%eax),%eax
  111381:	89 45 f0             	mov    %eax,0xfffffff0(%ebp)
  111384:	8b 45 e8             	mov    0xffffffe8(%ebp),%eax
  111387:	8b 40 04             	mov    0x4(%eax),%eax
  11138a:	01 45 10             	add    %eax,0x10(%ebp)
  11138d:	83 7d 10 00          	cmpl   $0x0,0x10(%ebp)
  111391:	78 09                	js     0x11139c
  111393:	81 7d 10 ff 8f 01 00 	cmpl   $0x18fff,0x10(%ebp)
  11139a:	7e 18                	jle    0x1113b4
  11139c:	c7 04 24 03 86 11 00 	movl   $0x118603,(%esp)
  1113a3:	e8 4c 23 00 00       	call   0x1136f4
  1113a8:	c7 45 bc 00 00 00 00 	movl   $0x0,0xffffffbc(%ebp)
  1113af:	e9 e8 01 00 00       	jmp    0x11159c
  1113b4:	8b 55 e8             	mov    0xffffffe8(%ebp),%edx
  1113b7:	8b 45 10             	mov    0x10(%ebp),%eax
  1113ba:	89 42 04             	mov    %eax,0x4(%edx)
  1113bd:	8b 55 10             	mov    0x10(%ebp),%edx
  1113c0:	89 d0                	mov    %edx,%eax
  1113c2:	c1 f8 1f             	sar    $0x1f,%eax
  1113c5:	c1 e8 17             	shr    $0x17,%eax
  1113c8:	01 d0                	add    %edx,%eax
  1113ca:	c1 f8 09             	sar    $0x9,%eax
  1113cd:	89 c2                	mov    %eax,%edx
  1113cf:	8b 45 f0             	mov    0xfffffff0(%ebp),%eax
  1113d2:	8d 04 02             	lea    (%edx,%eax,1),%eax
  1113d5:	83 c0 06             	add    $0x6,%eax
  1113d8:	89 45 f0             	mov    %eax,0xfffffff0(%ebp)
  1113db:	8b 55 10             	mov    0x10(%ebp),%edx
  1113de:	89 d0                	mov    %edx,%eax
  1113e0:	c1 f8 1f             	sar    $0x1f,%eax
  1113e3:	89 c1                	mov    %eax,%ecx
  1113e5:	c1 e9 17             	shr    $0x17,%ecx
  1113e8:	8d 04 0a             	lea    (%edx,%ecx,1),%eax
  1113eb:	25 ff 01 00 00       	and    $0x1ff,%eax
  1113f0:	29 c8                	sub    %ecx,%eax
  1113f2:	89 45 10             	mov    %eax,0x10(%ebp)
  1113f5:	c7 45 f4 00 00 00 00 	movl   $0x0,0xfffffff4(%ebp)
  1113fc:	c7 45 f8 00 00 00 00 	movl   $0x0,0xfffffff8(%ebp)
  111403:	c7 45 fc 00 00 00 00 	movl   $0x0,0xfffffffc(%ebp)
  11140a:	e9 7c 01 00 00       	jmp    0x11158b
  11140f:	8b 4d f0             	mov    0xfffffff0(%ebp),%ecx
  111412:	8b 45 ec             	mov    0xffffffec(%ebp),%eax
  111415:	8b 50 08             	mov    0x8(%eax),%edx
  111418:	8b 45 ec             	mov    0xffffffec(%ebp),%eax
  11141b:	8b 40 0c             	mov    0xc(%eax),%eax
  11141e:	8d 04 02             	lea    (%edx,%eax,1),%eax
  111421:	83 c0 06             	add    $0x6,%eax
  111424:	39 c1                	cmp    %eax,%ecx
  111426:	72 35                	jb     0x11145d
  111428:	8b 45 ec             	mov    0xffffffec(%ebp),%eax
  11142b:	8b 50 0c             	mov    0xc(%eax),%edx
  11142e:	8b 45 ec             	mov    0xffffffec(%ebp),%eax
  111431:	8b 40 08             	mov    0x8(%eax),%eax
  111434:	83 c0 06             	add    $0x6,%eax
  111437:	89 54 24 0c          	mov    %edx,0xc(%esp)
  11143b:	89 44 24 08          	mov    %eax,0x8(%esp)
  11143f:	8b 45 f0             	mov    0xfffffff0(%ebp),%eax
  111442:	89 44 24 04          	mov    %eax,0x4(%esp)
  111446:	c7 04 24 1c 86 11 00 	movl   $0x11861c,(%esp)
  11144d:	e8 a2 22 00 00       	call   0x1136f4
  111452:	8b 45 fc             	mov    0xfffffffc(%ebp),%eax
  111455:	89 45 bc             	mov    %eax,0xffffffbc(%ebp)
  111458:	e9 3f 01 00 00       	jmp    0x11159c
  11145d:	b8 00 02 00 00       	mov    $0x200,%eax
  111462:	2b 45 10             	sub    0x10(%ebp),%eax
  111465:	89 45 f8             	mov    %eax,0xfffffff8(%ebp)
  111468:	8b 45 f8             	mov    0xfffffff8(%ebp),%eax
  11146b:	3b 45 14             	cmp    0x14(%ebp),%eax
  11146e:	0f 8c 9f 00 00 00    	jl     0x111513
  111474:	81 7d 14 00 02 00 00 	cmpl   $0x200,0x14(%ebp)
  11147b:	74 26                	je     0x1114a3
  11147d:	8b 45 f0             	mov    0xfffffff0(%ebp),%eax
  111480:	c1 e0 09             	shl    $0x9,%eax
  111483:	c7 44 24 0c 01 00 00 	movl   $0x1,0xc(%esp)
  11148a:	00 
  11148b:	89 44 24 08          	mov    %eax,0x8(%esp)
  11148f:	c7 44 24 04 00 c8 11 	movl   $0x11c800,0x4(%esp)
  111496:	00 
  111497:	c7 04 24 1a 03 00 00 	movl   $0x31a,(%esp)
  11149e:	e8 be 43 00 00       	call   0x115861
  1114a3:	8b 45 f4             	mov    0xfffffff4(%ebp),%eax
  1114a6:	03 45 0c             	add    0xc(%ebp),%eax
  1114a9:	89 c1                	mov    %eax,%ecx
  1114ab:	8b 45 10             	mov    0x10(%ebp),%eax
  1114ae:	8d 90 00 c8 11 00    	lea    0x11c800(%eax),%edx
  1114b4:	8b 45 14             	mov    0x14(%ebp),%eax
  1114b7:	89 44 24 08          	mov    %eax,0x8(%esp)
  1114bb:	89 4c 24 04          	mov    %ecx,0x4(%esp)
  1114bf:	89 14 24             	mov    %edx,(%esp)
  1114c2:	e8 f9 1e 00 00       	call   0x1133c0
  1114c7:	8b 45 f0             	mov    0xfffffff0(%ebp),%eax
  1114ca:	c1 e0 09             	shl    $0x9,%eax
  1114cd:	83 45 f0 01          	addl   $0x1,0xfffffff0(%ebp)
  1114d1:	c7 44 24 0c 01 00 00 	movl   $0x1,0xc(%esp)
  1114d8:	00 
  1114d9:	89 44 24 08          	mov    %eax,0x8(%esp)
  1114dd:	c7 44 24 04 00 c8 11 	movl   $0x11c800,0x4(%esp)
  1114e4:	00 
  1114e5:	c7 04 24 1a 03 00 00 	movl   $0x31a,(%esp)
  1114ec:	e8 f5 43 00 00       	call   0x1158e6
  1114f1:	8b 45 14             	mov    0x14(%ebp),%eax
  1114f4:	01 45 fc             	add    %eax,0xfffffffc(%ebp)
  1114f7:	8b 45 e8             	mov    0xffffffe8(%ebp),%eax
  1114fa:	8b 40 04             	mov    0x4(%eax),%eax
  1114fd:	89 c2                	mov    %eax,%edx
  1114ff:	03 55 14             	add    0x14(%ebp),%edx
  111502:	8b 45 e8             	mov    0xffffffe8(%ebp),%eax
  111505:	89 50 04             	mov    %edx,0x4(%eax)
  111508:	8b 45 fc             	mov    0xfffffffc(%ebp),%eax
  11150b:	89 45 bc             	mov    %eax,0xffffffbc(%ebp)
  11150e:	e9 89 00 00 00       	jmp    0x11159c
  111513:	8b 45 f4             	mov    0xfffffff4(%ebp),%eax
  111516:	03 45 0c             	add    0xc(%ebp),%eax
  111519:	89 c1                	mov    %eax,%ecx
  11151b:	8b 45 10             	mov    0x10(%ebp),%eax
  11151e:	8d 90 00 c8 11 00    	lea    0x11c800(%eax),%edx
  111524:	8b 45 f8             	mov    0xfffffff8(%ebp),%eax
  111527:	89 44 24 08          	mov    %eax,0x8(%esp)
  11152b:	89 4c 24 04          	mov    %ecx,0x4(%esp)
  11152f:	89 14 24             	mov    %edx,(%esp)
  111532:	e8 89 1e 00 00       	call   0x1133c0
  111537:	8b 45 f0             	mov    0xfffffff0(%ebp),%eax
  11153a:	c1 e0 09             	shl    $0x9,%eax
  11153d:	83 45 f0 01          	addl   $0x1,0xfffffff0(%ebp)
  111541:	c7 44 24 0c 01 00 00 	movl   $0x1,0xc(%esp)
  111548:	00 
  111549:	89 44 24 08          	mov    %eax,0x8(%esp)
  11154d:	c7 44 24 04 00 c8 11 	movl   $0x11c800,0x4(%esp)
  111554:	00 
  111555:	c7 04 24 1a 03 00 00 	movl   $0x31a,(%esp)
  11155c:	e8 85 43 00 00       	call   0x1158e6
  111561:	8b 45 e8             	mov    0xffffffe8(%ebp),%eax
  111564:	8b 40 04             	mov    0x4(%eax),%eax
  111567:	89 c2                	mov    %eax,%edx
  111569:	03 55 f8             	add    0xfffffff8(%ebp),%edx
  11156c:	8b 45 e8             	mov    0xffffffe8(%ebp),%eax
  11156f:	89 50 04             	mov    %edx,0x4(%eax)
  111572:	c7 45 10 00 00 00 00 	movl   $0x0,0x10(%ebp)
  111579:	8b 45 f8             	mov    0xfffffff8(%ebp),%eax
  11157c:	01 45 f4             	add    %eax,0xfffffff4(%ebp)
  11157f:	8b 45 f8             	mov    0xfffffff8(%ebp),%eax
  111582:	29 45 14             	sub    %eax,0x14(%ebp)
  111585:	8b 45 f8             	mov    0xfffffff8(%ebp),%eax
  111588:	01 45 fc             	add    %eax,0xfffffffc(%ebp)
  11158b:	83 7d 14 00          	cmpl   $0x0,0x14(%ebp)
  11158f:	0f 8f 7a fe ff ff    	jg     0x11140f
  111595:	c7 45 bc 00 00 00 00 	movl   $0x0,0xffffffbc(%ebp)
  11159c:	8b 45 bc             	mov    0xffffffbc(%ebp),%eax
  11159f:	c9                   	leave  
  1115a0:	c3                   	ret    
  1115a1:	55                   	push   %ebp
  1115a2:	89 e5                	mov    %esp,%ebp
  1115a4:	83 ec 58             	sub    $0x58,%esp
  1115a7:	8b 45 0c             	mov    0xc(%ebp),%eax
  1115aa:	89 44 24 04          	mov    %eax,0x4(%esp)
  1115ae:	8b 45 18             	mov    0x18(%ebp),%eax
  1115b1:	89 04 24             	mov    %eax,(%esp)
  1115b4:	e8 d4 20 00 00       	call   0x11368d
  1115b9:	89 45 0c             	mov    %eax,0xc(%ebp)
  1115bc:	8b 55 08             	mov    0x8(%ebp),%edx
  1115bf:	8b 45 18             	mov    0x18(%ebp),%eax
  1115c2:	8b 84 90 80 00 00 00 	mov    0x80(%eax,%edx,4),%eax
  1115c9:	89 45 e8             	mov    %eax,0xffffffe8(%ebp)
  1115cc:	8b 45 e8             	mov    0xffffffe8(%ebp),%eax
  1115cf:	8b 40 08             	mov    0x8(%eax),%eax
  1115d2:	89 45 ec             	mov    %eax,0xffffffec(%ebp)
  1115d5:	8b 45 ec             	mov    0xffffffec(%ebp),%eax
  1115d8:	8b 00                	mov    (%eax),%eax
  1115da:	83 f8 02             	cmp    $0x2,%eax
  1115dd:	0f 85 b3 00 00 00    	jne    0x111696
  1115e3:	c7 45 c8 fe ff ff ff 	movl   $0xfffffffe,0xffffffc8(%ebp)
  1115ea:	c7 45 cc 02 00 00 00 	movl   $0x2,0xffffffcc(%ebp)
  1115f1:	8b 45 ec             	mov    0xffffffec(%ebp),%eax
  1115f4:	8b 40 20             	mov    0x20(%eax),%eax
  1115f7:	25 ff 00 00 00       	and    $0xff,%eax
  1115fc:	89 45 d0             	mov    %eax,0xffffffd0(%ebp)
  1115ff:	c7 45 d4 03 00 00 00 	movl   $0x3,0xffffffd4(%ebp)
  111606:	8b 55 18             	mov    0x18(%ebp),%edx
  111609:	b8 00 d9 11 00       	mov    $0x11d900,%eax
  11160e:	89 d1                	mov    %edx,%ecx
  111610:	29 c1                	sub    %eax,%ecx
  111612:	89 c8                	mov    %ecx,%eax
  111614:	c1 f8 03             	sar    $0x3,%eax
  111617:	69 c0 ad 1b 4c 91    	imul   $0x914c1bad,%eax,%eax
  11161d:	89 45 d8             	mov    %eax,0xffffffd8(%ebp)
  111620:	8b 45 0c             	mov    0xc(%ebp),%eax
  111623:	89 45 dc             	mov    %eax,0xffffffdc(%ebp)
  111626:	8b 45 14             	mov    0x14(%ebp),%eax
  111629:	89 45 e0             	mov    %eax,0xffffffe0(%ebp)
  11162c:	e8 e1 1c 00 00       	call   0x113312
  111631:	a1 6c ff 11 00       	mov    0x11ff6c,%eax
  111636:	85 c0                	test   %eax,%eax
  111638:	75 4b                	jne    0x111685
  11163a:	8b 45 ec             	mov    0xffffffec(%ebp),%eax
  11163d:	8b 40 20             	mov    0x20(%eax),%eax
  111640:	c1 f8 08             	sar    $0x8,%eax
  111643:	25 ff 00 00 00       	and    $0xff,%eax
  111648:	8b 14 85 40 a7 11 00 	mov    0x11a740(,%eax,4),%edx
  11164f:	8d 45 c0             	lea    0xffffffc0(%ebp),%eax
  111652:	89 44 24 08          	mov    %eax,0x8(%esp)
  111656:	89 54 24 04          	mov    %edx,0x4(%esp)
  11165a:	c7 04 24 00 00 00 00 	movl   $0x0,(%esp)
  111661:	e8 ad 33 00 00       	call   0x114a13
  111666:	85 c0                	test   %eax,%eax
  111668:	75 1b                	jne    0x111685
  11166a:	c7 05 94 ac 11 00 01 	movl   $0x1,0x11ac94
  111671:	00 00 00 
  111674:	e8 8f 1c 00 00       	call   0x113308
  111679:	c7 45 bc 00 00 00 00 	movl   $0x0,0xffffffbc(%ebp)
  111680:	e9 db 01 00 00       	jmp    0x111860
  111685:	e8 7e 1c 00 00       	call   0x113308
  11168a:	c7 45 bc ff ff ff ff 	movl   $0xffffffff,0xffffffbc(%ebp)
  111691:	e9 ca 01 00 00       	jmp    0x111860
  111696:	8b 45 ec             	mov    0xffffffec(%ebp),%eax
  111699:	8b 40 08             	mov    0x8(%eax),%eax
  11169c:	89 45 f0             	mov    %eax,0xfffffff0(%ebp)
  11169f:	8b 45 e8             	mov    0xffffffe8(%ebp),%eax
  1116a2:	8b 40 04             	mov    0x4(%eax),%eax
  1116a5:	01 45 10             	add    %eax,0x10(%ebp)
  1116a8:	83 7d 10 00          	cmpl   $0x0,0x10(%ebp)
  1116ac:	78 09                	js     0x1116b7
  1116ae:	81 7d 10 ff 8f 01 00 	cmpl   $0x18fff,0x10(%ebp)
  1116b5:	7e 24                	jle    0x1116db
  1116b7:	c7 44 24 0c 81 02 00 	movl   $0x281,0xc(%esp)
  1116be:	00 
  1116bf:	c7 44 24 08 b8 83 11 	movl   $0x1183b8,0x8(%esp)
  1116c6:	00 
  1116c7:	c7 44 24 04 b8 83 11 	movl   $0x1183b8,0x4(%esp)
  1116ce:	00 
  1116cf:	c7 04 24 54 86 11 00 	movl   $0x118654,(%esp)
  1116d6:	e8 39 0d 00 00       	call   0x112414
  1116db:	8b 55 e8             	mov    0xffffffe8(%ebp),%edx
  1116de:	8b 45 10             	mov    0x10(%ebp),%eax
  1116e1:	89 42 04             	mov    %eax,0x4(%edx)
  1116e4:	8b 55 10             	mov    0x10(%ebp),%edx
  1116e7:	89 d0                	mov    %edx,%eax
  1116e9:	c1 f8 1f             	sar    $0x1f,%eax
  1116ec:	c1 e8 17             	shr    $0x17,%eax
  1116ef:	01 d0                	add    %edx,%eax
  1116f1:	c1 f8 09             	sar    $0x9,%eax
  1116f4:	89 c2                	mov    %eax,%edx
  1116f6:	8b 45 f0             	mov    0xfffffff0(%ebp),%eax
  1116f9:	8d 04 02             	lea    (%edx,%eax,1),%eax
  1116fc:	83 c0 06             	add    $0x6,%eax
  1116ff:	89 45 f0             	mov    %eax,0xfffffff0(%ebp)
  111702:	8b 55 10             	mov    0x10(%ebp),%edx
  111705:	89 d0                	mov    %edx,%eax
  111707:	c1 f8 1f             	sar    $0x1f,%eax
  11170a:	89 c1                	mov    %eax,%ecx
  11170c:	c1 e9 17             	shr    $0x17,%ecx
  11170f:	8d 04 0a             	lea    (%edx,%ecx,1),%eax
  111712:	25 ff 01 00 00       	and    $0x1ff,%eax
  111717:	29 c8                	sub    %ecx,%eax
  111719:	89 45 10             	mov    %eax,0x10(%ebp)
  11171c:	c7 45 f4 00 00 00 00 	movl   $0x0,0xfffffff4(%ebp)
  111723:	c7 45 f8 00 00 00 00 	movl   $0x0,0xfffffff8(%ebp)
  11172a:	c7 45 fc 00 00 00 00 	movl   $0x0,0xfffffffc(%ebp)
  111731:	e9 19 01 00 00       	jmp    0x11184f
  111736:	8b 4d f0             	mov    0xfffffff0(%ebp),%ecx
  111739:	8b 45 ec             	mov    0xffffffec(%ebp),%eax
  11173c:	8b 50 08             	mov    0x8(%eax),%edx
  11173f:	8b 45 ec             	mov    0xffffffec(%ebp),%eax
  111742:	8b 40 0c             	mov    0xc(%eax),%eax
  111745:	8d 04 02             	lea    (%edx,%eax,1),%eax
  111748:	83 c0 06             	add    $0x6,%eax
  11174b:	39 c1                	cmp    %eax,%ecx
  11174d:	72 32                	jb     0x111781
  11174f:	8b 45 ec             	mov    0xffffffec(%ebp),%eax
  111752:	8b 50 0c             	mov    0xc(%eax),%edx
  111755:	8b 45 ec             	mov    0xffffffec(%ebp),%eax
  111758:	8b 40 08             	mov    0x8(%eax),%eax
  11175b:	89 54 24 0c          	mov    %edx,0xc(%esp)
  11175f:	89 44 24 08          	mov    %eax,0x8(%esp)
  111763:	8b 45 f0             	mov    0xfffffff0(%ebp),%eax
  111766:	89 44 24 04          	mov    %eax,0x4(%esp)
  11176a:	c7 04 24 7c 86 11 00 	movl   $0x11867c,(%esp)
  111771:	e8 7e 1f 00 00       	call   0x1136f4
  111776:	8b 45 fc             	mov    0xfffffffc(%ebp),%eax
  111779:	89 45 bc             	mov    %eax,0xffffffbc(%ebp)
  11177c:	e9 df 00 00 00       	jmp    0x111860
  111781:	8b 45 f0             	mov    0xfffffff0(%ebp),%eax
  111784:	c1 e0 09             	shl    $0x9,%eax
  111787:	83 45 f0 01          	addl   $0x1,0xfffffff0(%ebp)
  11178b:	c7 44 24 0c 01 00 00 	movl   $0x1,0xc(%esp)
  111792:	00 
  111793:	89 44 24 08          	mov    %eax,0x8(%esp)
  111797:	c7 44 24 04 00 c8 11 	movl   $0x11c800,0x4(%esp)
  11179e:	00 
  11179f:	c7 04 24 1a 03 00 00 	movl   $0x31a,(%esp)
  1117a6:	e8 b6 40 00 00       	call   0x115861
  1117ab:	b8 00 02 00 00       	mov    $0x200,%eax
  1117b0:	2b 45 10             	sub    0x10(%ebp),%eax
  1117b3:	89 45 f8             	mov    %eax,0xfffffff8(%ebp)
  1117b6:	8b 45 f8             	mov    0xfffffff8(%ebp),%eax
  1117b9:	3b 45 14             	cmp    0x14(%ebp),%eax
  1117bc:	7c 43                	jl     0x111801
  1117be:	8b 45 10             	mov    0x10(%ebp),%eax
  1117c1:	8d 88 00 c8 11 00    	lea    0x11c800(%eax),%ecx
  1117c7:	8b 45 f4             	mov    0xfffffff4(%ebp),%eax
  1117ca:	03 45 0c             	add    0xc(%ebp),%eax
  1117cd:	89 c2                	mov    %eax,%edx
  1117cf:	8b 45 14             	mov    0x14(%ebp),%eax
  1117d2:	89 44 24 08          	mov    %eax,0x8(%esp)
  1117d6:	89 4c 24 04          	mov    %ecx,0x4(%esp)
  1117da:	89 14 24             	mov    %edx,(%esp)
  1117dd:	e8 de 1b 00 00       	call   0x1133c0
  1117e2:	8b 45 e8             	mov    0xffffffe8(%ebp),%eax
  1117e5:	8b 40 04             	mov    0x4(%eax),%eax
  1117e8:	89 c2                	mov    %eax,%edx
  1117ea:	03 55 14             	add    0x14(%ebp),%edx
  1117ed:	8b 45 e8             	mov    0xffffffe8(%ebp),%eax
  1117f0:	89 50 04             	mov    %edx,0x4(%eax)
  1117f3:	8b 45 14             	mov    0x14(%ebp),%eax
  1117f6:	01 45 fc             	add    %eax,0xfffffffc(%ebp)
  1117f9:	8b 4d fc             	mov    0xfffffffc(%ebp),%ecx
  1117fc:	89 4d bc             	mov    %ecx,0xffffffbc(%ebp)
  1117ff:	eb 5f                	jmp    0x111860
  111801:	8b 45 10             	mov    0x10(%ebp),%eax
  111804:	8d 88 00 c8 11 00    	lea    0x11c800(%eax),%ecx
  11180a:	8b 45 f4             	mov    0xfffffff4(%ebp),%eax
  11180d:	03 45 0c             	add    0xc(%ebp),%eax
  111810:	89 c2                	mov    %eax,%edx
  111812:	8b 45 f8             	mov    0xfffffff8(%ebp),%eax
  111815:	89 44 24 08          	mov    %eax,0x8(%esp)
  111819:	89 4c 24 04          	mov    %ecx,0x4(%esp)
  11181d:	89 14 24             	mov    %edx,(%esp)
  111820:	e8 9b 1b 00 00       	call   0x1133c0
  111825:	8b 45 e8             	mov    0xffffffe8(%ebp),%eax
  111828:	8b 40 04             	mov    0x4(%eax),%eax
  11182b:	89 c2                	mov    %eax,%edx
  11182d:	03 55 f8             	add    0xfffffff8(%ebp),%edx
  111830:	8b 45 e8             	mov    0xffffffe8(%ebp),%eax
  111833:	89 50 04             	mov    %edx,0x4(%eax)
  111836:	c7 45 10 00 00 00 00 	movl   $0x0,0x10(%ebp)
  11183d:	8b 45 f8             	mov    0xfffffff8(%ebp),%eax
  111840:	01 45 f4             	add    %eax,0xfffffff4(%ebp)
  111843:	8b 45 f8             	mov    0xfffffff8(%ebp),%eax
  111846:	29 45 14             	sub    %eax,0x14(%ebp)
  111849:	8b 45 f8             	mov    0xfffffff8(%ebp),%eax
  11184c:	01 45 fc             	add    %eax,0xfffffffc(%ebp)
  11184f:	83 7d 14 00          	cmpl   $0x0,0x14(%ebp)
  111853:	0f 8f dd fe ff ff    	jg     0x111736
  111859:	c7 45 bc 00 00 00 00 	movl   $0x0,0xffffffbc(%ebp)
  111860:	8b 45 bc             	mov    0xffffffbc(%ebp),%eax
  111863:	c9                   	leave  
  111864:	c3                   	ret    
  111865:	55                   	push   %ebp
  111866:	89 e5                	mov    %esp,%ebp
  111868:	83 ec 48             	sub    $0x48,%esp
  11186b:	8b 55 08             	mov    0x8(%ebp),%edx
  11186e:	8b 45 0c             	mov    0xc(%ebp),%eax
  111871:	8b 84 90 80 00 00 00 	mov    0x80(%eax,%edx,4),%eax
  111878:	8b 40 08             	mov    0x8(%eax),%eax
  11187b:	8b 40 24             	mov    0x24(%eax),%eax
  11187e:	85 c0                	test   %eax,%eax
  111880:	7f 1f                	jg     0x1118a1
  111882:	8b 45 08             	mov    0x8(%ebp),%eax
  111885:	89 44 24 04          	mov    %eax,0x4(%esp)
  111889:	c7 04 24 b4 86 11 00 	movl   $0x1186b4,(%esp)
  111890:	e8 5f 1e 00 00       	call   0x1136f4
  111895:	c7 45 cc ff ff ff ff 	movl   $0xffffffff,0xffffffcc(%ebp)
  11189c:	e9 08 01 00 00       	jmp    0x1119a9
  1118a1:	8b 55 08             	mov    0x8(%ebp),%edx
  1118a4:	8b 45 0c             	mov    0xc(%ebp),%eax
  1118a7:	8b 84 90 80 00 00 00 	mov    0x80(%eax,%edx,4),%eax
  1118ae:	8b 40 08             	mov    0x8(%eax),%eax
  1118b1:	8b 50 24             	mov    0x24(%eax),%edx
  1118b4:	83 ea 01             	sub    $0x1,%edx
  1118b7:	89 50 24             	mov    %edx,0x24(%eax)
  1118ba:	8b 40 24             	mov    0x24(%eax),%eax
  1118bd:	85 c0                	test   %eax,%eax
  1118bf:	0f 85 b8 00 00 00    	jne    0x11197d
  1118c5:	8b 55 08             	mov    0x8(%ebp),%edx
  1118c8:	8b 45 0c             	mov    0xc(%ebp),%eax
  1118cb:	8b 84 90 80 00 00 00 	mov    0x80(%eax,%edx,4),%eax
  1118d2:	8b 40 08             	mov    0x8(%eax),%eax
  1118d5:	8b 00                	mov    (%eax),%eax
  1118d7:	83 f8 02             	cmp    $0x2,%eax
  1118da:	0f 85 9d 00 00 00    	jne    0x11197d
  1118e0:	c7 45 e0 fe ff ff ff 	movl   $0xfffffffe,0xffffffe0(%ebp)
  1118e7:	c7 45 e4 01 00 00 00 	movl   $0x1,0xffffffe4(%ebp)
  1118ee:	8b 55 08             	mov    0x8(%ebp),%edx
  1118f1:	8b 45 0c             	mov    0xc(%ebp),%eax
  1118f4:	8b 84 90 80 00 00 00 	mov    0x80(%eax,%edx,4),%eax
  1118fb:	8b 40 08             	mov    0x8(%eax),%eax
  1118fe:	8b 40 20             	mov    0x20(%eax),%eax
  111901:	25 ff 00 00 00       	and    $0xff,%eax
  111906:	89 45 e8             	mov    %eax,0xffffffe8(%ebp)
  111909:	e8 04 1a 00 00       	call   0x113312
  11190e:	a1 6c ff 11 00       	mov    0x11ff6c,%eax
  111913:	85 c0                	test   %eax,%eax
  111915:	75 61                	jne    0x111978
  111917:	8b 55 08             	mov    0x8(%ebp),%edx
  11191a:	8b 45 0c             	mov    0xc(%ebp),%eax
  11191d:	8b 84 90 80 00 00 00 	mov    0x80(%eax,%edx,4),%eax
  111924:	8b 40 08             	mov    0x8(%eax),%eax
  111927:	8b 40 20             	mov    0x20(%eax),%eax
  11192a:	c1 f8 08             	sar    $0x8,%eax
  11192d:	25 ff 00 00 00       	and    $0xff,%eax
  111932:	8b 14 85 40 a7 11 00 	mov    0x11a740(,%eax,4),%edx
  111939:	8d 45 d8             	lea    0xffffffd8(%ebp),%eax
  11193c:	89 44 24 08          	mov    %eax,0x8(%esp)
  111940:	89 54 24 04          	mov    %edx,0x4(%esp)
  111944:	c7 04 24 02 00 00 00 	movl   $0x2,(%esp)
  11194b:	e8 c3 30 00 00       	call   0x114a13
  111950:	85 c0                	test   %eax,%eax
  111952:	74 24                	je     0x111978
  111954:	c7 44 24 0c bf 02 00 	movl   $0x2bf,0xc(%esp)
  11195b:	00 
  11195c:	c7 44 24 08 b8 83 11 	movl   $0x1183b8,0x8(%esp)
  111963:	00 
  111964:	c7 44 24 04 b8 83 11 	movl   $0x1183b8,0x4(%esp)
  11196b:	00 
  11196c:	c7 04 24 e0 86 11 00 	movl   $0x1186e0,(%esp)
  111973:	e8 9c 0a 00 00       	call   0x112414
  111978:	e8 8b 19 00 00       	call   0x113308
  11197d:	8b 55 08             	mov    0x8(%ebp),%edx
  111980:	8b 45 0c             	mov    0xc(%ebp),%eax
  111983:	8b 84 90 80 00 00 00 	mov    0x80(%eax,%edx,4),%eax
  11198a:	c7 40 08 00 00 00 00 	movl   $0x0,0x8(%eax)
  111991:	8b 55 08             	mov    0x8(%ebp),%edx
  111994:	8b 45 0c             	mov    0xc(%ebp),%eax
  111997:	c7 84 90 80 00 00 00 	movl   $0x0,0x80(%eax,%edx,4)
  11199e:	00 00 00 00 
  1119a2:	c7 45 cc 00 00 00 00 	movl   $0x0,0xffffffcc(%ebp)
  1119a9:	8b 45 cc             	mov    0xffffffcc(%ebp),%eax
  1119ac:	c9                   	leave  
  1119ad:	c3                   	ret    
  1119ae:	55                   	push   %ebp
  1119af:	89 e5                	mov    %esp,%ebp
  1119b1:	56                   	push   %esi
  1119b2:	53                   	push   %ebx
  1119b3:	83 ec 50             	sub    $0x50,%esp
  1119b6:	c7 45 dc 00 00 00 00 	movl   $0x0,0xffffffdc(%ebp)
  1119bd:	c7 45 d0 00 00 00 00 	movl   $0x0,0xffffffd0(%ebp)
  1119c4:	e9 89 00 00 00       	jmp    0x111a52
  1119c9:	8b 45 dc             	mov    0xffffffdc(%ebp),%eax
  1119cc:	c1 e0 09             	shl    $0x9,%eax
  1119cf:	05 00 0e 00 00       	add    $0xe00,%eax
  1119d4:	c7 44 24 0c 01 00 00 	movl   $0x1,0xc(%esp)
  1119db:	00 
  1119dc:	89 44 24 08          	mov    %eax,0x8(%esp)
  1119e0:	c7 44 24 04 00 c8 11 	movl   $0x11c800,0x4(%esp)
  1119e7:	00 
  1119e8:	c7 04 24 1a 03 00 00 	movl   $0x31a,(%esp)
  1119ef:	e8 6d 3e 00 00       	call   0x115861
  1119f4:	c7 45 e0 00 00 00 00 	movl   $0x0,0xffffffe0(%ebp)
  1119fb:	c7 45 d8 00 c8 11 00 	movl   $0x11c800,0xffffffd8(%ebp)
  111a02:	eb 3c                	jmp    0x111a40
  111a04:	8b 45 d8             	mov    0xffffffd8(%ebp),%eax
  111a07:	83 c0 04             	add    $0x4,%eax
  111a0a:	8b 55 08             	mov    0x8(%ebp),%edx
  111a0d:	89 54 24 04          	mov    %edx,0x4(%esp)
  111a11:	89 04 24             	mov    %eax,(%esp)
  111a14:	e8 36 19 00 00       	call   0x11334f
  111a19:	85 c0                	test   %eax,%eax
  111a1b:	75 1b                	jne    0x111a38
  111a1d:	8b 45 d8             	mov    0xffffffd8(%ebp),%eax
  111a20:	8b 00                	mov    (%eax),%eax
  111a22:	89 45 d0             	mov    %eax,0xffffffd0(%ebp)
  111a25:	8b 45 dc             	mov    0xffffffdc(%ebp),%eax
  111a28:	89 c2                	mov    %eax,%edx
  111a2a:	c1 e2 05             	shl    $0x5,%edx
  111a2d:	8b 45 e0             	mov    0xffffffe0(%ebp),%eax
  111a30:	8d 04 02             	lea    (%edx,%eax,1),%eax
  111a33:	89 45 e8             	mov    %eax,0xffffffe8(%ebp)
  111a36:	eb 10                	jmp    0x111a48
  111a38:	83 45 e0 01          	addl   $0x1,0xffffffe0(%ebp)
  111a3c:	83 45 d8 10          	addl   $0x10,0xffffffd8(%ebp)
  111a40:	8b 45 e0             	mov    0xffffffe0(%ebp),%eax
  111a43:	83 f8 1f             	cmp    $0x1f,%eax
  111a46:	76 bc                	jbe    0x111a04
  111a48:	83 7d d0 00          	cmpl   $0x0,0xffffffd0(%ebp)
  111a4c:	75 0e                	jne    0x111a5c
  111a4e:	83 45 dc 01          	addl   $0x1,0xffffffdc(%ebp)
  111a52:	83 7d dc 00          	cmpl   $0x0,0xffffffdc(%ebp)
  111a56:	0f 84 6d ff ff ff    	je     0x1119c9
  111a5c:	83 7d d0 00          	cmpl   $0x0,0xffffffd0(%ebp)
  111a60:	75 1f                	jne    0x111a81
  111a62:	8b 45 08             	mov    0x8(%ebp),%eax
  111a65:	89 44 24 04          	mov    %eax,0x4(%esp)
  111a69:	c7 04 24 2c 87 11 00 	movl   $0x11872c,(%esp)
  111a70:	e8 7f 1c 00 00       	call   0x1136f4
  111a75:	c7 45 c4 ff ff ff ff 	movl   $0xffffffff,0xffffffc4(%ebp)
  111a7c:	e9 70 03 00 00       	jmp    0x111df1
  111a81:	83 7d d0 04          	cmpl   $0x4,0xffffffd0(%ebp)
  111a85:	7f 1f                	jg     0x111aa6
  111a87:	8b 45 08             	mov    0x8(%ebp),%eax
  111a8a:	89 44 24 04          	mov    %eax,0x4(%esp)
  111a8e:	c7 04 24 53 87 11 00 	movl   $0x118753,(%esp)
  111a95:	e8 5a 1c 00 00       	call   0x1136f4
  111a9a:	c7 45 c4 ff ff ff ff 	movl   $0xffffffff,0xffffffc4(%ebp)
  111aa1:	e9 4b 03 00 00       	jmp    0x111df1
  111aa6:	c7 45 d4 c0 ac 11 00 	movl   $0x11acc0,0xffffffd4(%ebp)
  111aad:	eb 38                	jmp    0x111ae7
  111aaf:	8b 45 d4             	mov    0xffffffd4(%ebp),%eax
  111ab2:	8b 40 28             	mov    0x28(%eax),%eax
  111ab5:	3b 45 d0             	cmp    0xffffffd0(%ebp),%eax
  111ab8:	75 29                	jne    0x111ae3
  111aba:	8b 45 d4             	mov    0xffffffd4(%ebp),%eax
  111abd:	8b 40 24             	mov    0x24(%eax),%eax
  111ac0:	85 c0                	test   %eax,%eax
  111ac2:	74 1f                	je     0x111ae3
  111ac4:	8b 45 08             	mov    0x8(%ebp),%eax
  111ac7:	89 44 24 04          	mov    %eax,0x4(%esp)
  111acb:	c7 04 24 71 87 11 00 	movl   $0x118771,(%esp)
  111ad2:	e8 1d 1c 00 00       	call   0x1136f4
  111ad7:	c7 45 c4 ff ff ff ff 	movl   $0xffffffff,0xffffffc4(%ebp)
  111ade:	e9 0e 03 00 00       	jmp    0x111df1
  111ae3:	83 45 d4 2c          	addl   $0x2c,0xffffffd4(%ebp)
  111ae7:	b8 c0 b7 11 00       	mov    $0x11b7c0,%eax
  111aec:	39 45 d4             	cmp    %eax,0xffffffd4(%ebp)
  111aef:	72 be                	jb     0x111aaf
  111af1:	8b 55 d0             	mov    0xffffffd0(%ebp),%edx
  111af4:	89 d0                	mov    %edx,%eax
  111af6:	c1 f8 1f             	sar    $0x1f,%eax
  111af9:	c1 e8 14             	shr    $0x14,%eax
  111afc:	01 d0                	add    %edx,%eax
  111afe:	c1 f8 0c             	sar    $0xc,%eax
  111b01:	83 c0 02             	add    $0x2,%eax
  111b04:	89 45 ec             	mov    %eax,0xffffffec(%ebp)
  111b07:	8b 45 ec             	mov    0xffffffec(%ebp),%eax
  111b0a:	c1 e0 09             	shl    $0x9,%eax
  111b0d:	c7 44 24 0c 01 00 00 	movl   $0x1,0xc(%esp)
  111b14:	00 
  111b15:	89 44 24 08          	mov    %eax,0x8(%esp)
  111b19:	c7 44 24 04 00 c8 11 	movl   $0x11c800,0x4(%esp)
  111b20:	00 
  111b21:	c7 04 24 1a 03 00 00 	movl   $0x31a,(%esp)
  111b28:	e8 34 3d 00 00       	call   0x115861
  111b2d:	8b 55 d0             	mov    0xffffffd0(%ebp),%edx
  111b30:	89 d0                	mov    %edx,%eax
  111b32:	c1 f8 1f             	sar    $0x1f,%eax
  111b35:	c1 e8 1d             	shr    $0x1d,%eax
  111b38:	01 d0                	add    %edx,%eax
  111b3a:	c1 f8 03             	sar    $0x3,%eax
  111b3d:	89 c2                	mov    %eax,%edx
  111b3f:	89 d0                	mov    %edx,%eax
  111b41:	c1 f8 1f             	sar    $0x1f,%eax
  111b44:	89 c1                	mov    %eax,%ecx
  111b46:	c1 e9 17             	shr    $0x17,%ecx
  111b49:	8d 04 0a             	lea    (%edx,%ecx,1),%eax
  111b4c:	25 ff 01 00 00       	and    $0x1ff,%eax
  111b51:	29 c8                	sub    %ecx,%eax
  111b53:	89 c3                	mov    %eax,%ebx
  111b55:	0f b6 b0 00 c8 11 00 	movzbl 0x11c800(%eax),%esi
  111b5c:	8b 55 d0             	mov    0xffffffd0(%ebp),%edx
  111b5f:	89 d0                	mov    %edx,%eax
  111b61:	c1 f8 1f             	sar    $0x1f,%eax
  111b64:	89 c1                	mov    %eax,%ecx
  111b66:	c1 e9 1d             	shr    $0x1d,%ecx
  111b69:	8d 04 0a             	lea    (%edx,%ecx,1),%eax
  111b6c:	83 e0 07             	and    $0x7,%eax
  111b6f:	29 c8                	sub    %ecx,%eax
  111b71:	89 c1                	mov    %eax,%ecx
  111b73:	b8 01 00 00 00       	mov    $0x1,%eax
  111b78:	d3 e0                	shl    %cl,%eax
  111b7a:	f7 d0                	not    %eax
  111b7c:	21 f0                	and    %esi,%eax
  111b7e:	88 83 00 c8 11 00    	mov    %al,0x11c800(%ebx)
  111b84:	8b 45 ec             	mov    0xffffffec(%ebp),%eax
  111b87:	c1 e0 09             	shl    $0x9,%eax
  111b8a:	c7 44 24 0c 01 00 00 	movl   $0x1,0xc(%esp)
  111b91:	00 
  111b92:	89 44 24 08          	mov    %eax,0x8(%esp)
  111b96:	c7 44 24 04 00 c8 11 	movl   $0x11c800,0x4(%esp)
  111b9d:	00 
  111b9e:	c7 04 24 1a 03 00 00 	movl   $0x31a,(%esp)
  111ba5:	e8 3c 3d 00 00       	call   0x1158e6
  111baa:	8b 45 d0             	mov    0xffffffd0(%ebp),%eax
  111bad:	c1 e8 04             	shr    $0x4,%eax
  111bb0:	83 c0 04             	add    $0x4,%eax
  111bb3:	89 45 ec             	mov    %eax,0xffffffec(%ebp)
  111bb6:	8b 45 ec             	mov    0xffffffec(%ebp),%eax
  111bb9:	c1 e0 09             	shl    $0x9,%eax
  111bbc:	c7 44 24 0c 01 00 00 	movl   $0x1,0xc(%esp)
  111bc3:	00 
  111bc4:	89 44 24 08          	mov    %eax,0x8(%esp)
  111bc8:	c7 44 24 04 00 c8 11 	movl   $0x11c800,0x4(%esp)
  111bcf:	00 
  111bd0:	c7 04 24 1a 03 00 00 	movl   $0x31a,(%esp)
  111bd7:	e8 85 3c 00 00       	call   0x115861
  111bdc:	c7 45 cc 00 c8 11 00 	movl   $0x11c800,0xffffffcc(%ebp)
  111be3:	8b 45 d0             	mov    0xffffffd0(%ebp),%eax
  111be6:	83 e0 0f             	and    $0xf,%eax
  111be9:	c1 e0 05             	shl    $0x5,%eax
  111bec:	01 45 cc             	add    %eax,0xffffffcc(%ebp)
  111bef:	8b 45 cc             	mov    0xffffffcc(%ebp),%eax
  111bf2:	8b 40 08             	mov    0x8(%eax),%eax
  111bf5:	89 45 f0             	mov    %eax,0xfffffff0(%ebp)
  111bf8:	8b 45 cc             	mov    0xffffffcc(%ebp),%eax
  111bfb:	8b 40 0c             	mov    0xc(%eax),%eax
  111bfe:	89 45 f4             	mov    %eax,0xfffffff4(%ebp)
  111c01:	8b 55 f0             	mov    0xfffffff0(%ebp),%edx
  111c04:	89 d0                	mov    %edx,%eax
  111c06:	c1 f8 1f             	sar    $0x1f,%eax
  111c09:	c1 e8 14             	shr    $0x14,%eax
  111c0c:	01 d0                	add    %edx,%eax
  111c0e:	c1 f8 0c             	sar    $0xc,%eax
  111c11:	89 45 dc             	mov    %eax,0xffffffdc(%ebp)
  111c14:	8b 55 f0             	mov    0xfffffff0(%ebp),%edx
  111c17:	89 d0                	mov    %edx,%eax
  111c19:	c1 f8 1f             	sar    $0x1f,%eax
  111c1c:	c1 e8 1d             	shr    $0x1d,%eax
  111c1f:	01 d0                	add    %edx,%eax
  111c21:	c1 f8 03             	sar    $0x3,%eax
  111c24:	89 c2                	mov    %eax,%edx
  111c26:	89 d0                	mov    %edx,%eax
  111c28:	c1 f8 1f             	sar    $0x1f,%eax
  111c2b:	89 c1                	mov    %eax,%ecx
  111c2d:	c1 e9 17             	shr    $0x17,%ecx
  111c30:	8d 04 0a             	lea    (%edx,%ecx,1),%eax
  111c33:	25 ff 01 00 00       	and    $0x1ff,%eax
  111c38:	29 c8                	sub    %ecx,%eax
  111c3a:	89 45 e0             	mov    %eax,0xffffffe0(%ebp)
  111c3d:	8b 55 f0             	mov    0xfffffff0(%ebp),%edx
  111c40:	89 d0                	mov    %edx,%eax
  111c42:	c1 f8 1f             	sar    $0x1f,%eax
  111c45:	89 c1                	mov    %eax,%ecx
  111c47:	c1 e9 1d             	shr    $0x1d,%ecx
  111c4a:	8d 04 0a             	lea    (%edx,%ecx,1),%eax
  111c4d:	83 e0 07             	and    $0x7,%eax
  111c50:	29 c8                	sub    %ecx,%eax
  111c52:	89 45 e4             	mov    %eax,0xffffffe4(%ebp)
  111c55:	e9 0e 01 00 00       	jmp    0x111d68
  111c5a:	8b 45 dc             	mov    0xffffffdc(%ebp),%eax
  111c5d:	c1 e0 09             	shl    $0x9,%eax
  111c60:	05 00 06 00 00       	add    $0x600,%eax
  111c65:	c7 44 24 0c 01 00 00 	movl   $0x1,0xc(%esp)
  111c6c:	00 
  111c6d:	89 44 24 08          	mov    %eax,0x8(%esp)
  111c71:	c7 44 24 04 00 c8 11 	movl   $0x11c800,0x4(%esp)
  111c78:	00 
  111c79:	c7 04 24 1a 03 00 00 	movl   $0x31a,(%esp)
  111c80:	e8 dc 3b 00 00       	call   0x115861
  111c85:	e9 95 00 00 00       	jmp    0x111d1f
  111c8a:	b8 08 00 00 00       	mov    $0x8,%eax
  111c8f:	2b 45 e4             	sub    0xffffffe4(%ebp),%eax
  111c92:	3b 45 f4             	cmp    0xfffffff4(%ebp),%eax
  111c95:	7c 38                	jl     0x111ccf
  111c97:	eb 25                	jmp    0x111cbe
  111c99:	8b 55 e0             	mov    0xffffffe0(%ebp),%edx
  111c9c:	8b 45 e0             	mov    0xffffffe0(%ebp),%eax
  111c9f:	0f b6 98 00 c8 11 00 	movzbl 0x11c800(%eax),%ebx
  111ca6:	8b 4d e4             	mov    0xffffffe4(%ebp),%ecx
  111ca9:	b8 01 00 00 00       	mov    $0x1,%eax
  111cae:	d3 e0                	shl    %cl,%eax
  111cb0:	f7 d0                	not    %eax
  111cb2:	21 d8                	and    %ebx,%eax
  111cb4:	88 82 00 c8 11 00    	mov    %al,0x11c800(%edx)
  111cba:	83 45 e4 01          	addl   $0x1,0xffffffe4(%ebp)
  111cbe:	83 7d f4 00          	cmpl   $0x0,0xfffffff4(%ebp)
  111cc2:	0f 9f c0             	setg   %al
  111cc5:	83 6d f4 01          	subl   $0x1,0xfffffff4(%ebp)
  111cc9:	84 c0                	test   %al,%al
  111ccb:	75 cc                	jne    0x111c99
  111ccd:	eb 63                	jmp    0x111d32
  111ccf:	83 7d e4 00          	cmpl   $0x0,0xffffffe4(%ebp)
  111cd3:	75 39                	jne    0x111d0e
  111cd5:	8b 45 e0             	mov    0xffffffe0(%ebp),%eax
  111cd8:	c6 80 00 c8 11 00 00 	movb   $0x0,0x11c800(%eax)
  111cdf:	83 6d f4 08          	subl   $0x8,0xfffffff4(%ebp)
  111ce3:	eb 2f                	jmp    0x111d14
  111ce5:	8b 55 e0             	mov    0xffffffe0(%ebp),%edx
  111ce8:	8b 45 e0             	mov    0xffffffe0(%ebp),%eax
  111ceb:	0f b6 98 00 c8 11 00 	movzbl 0x11c800(%eax),%ebx
  111cf2:	8b 4d e4             	mov    0xffffffe4(%ebp),%ecx
  111cf5:	b8 01 00 00 00       	mov    $0x1,%eax
  111cfa:	d3 e0                	shl    %cl,%eax
  111cfc:	f7 d0                	not    %eax
  111cfe:	21 d8                	and    %ebx,%eax
  111d00:	88 82 00 c8 11 00    	mov    %al,0x11c800(%edx)
  111d06:	83 45 e4 01          	addl   $0x1,0xffffffe4(%ebp)
  111d0a:	83 6d f4 01          	subl   $0x1,0xfffffff4(%ebp)
  111d0e:	83 7d e4 07          	cmpl   $0x7,0xffffffe4(%ebp)
  111d12:	7e d1                	jle    0x111ce5
  111d14:	83 45 e0 01          	addl   $0x1,0xffffffe0(%ebp)
  111d18:	c7 45 e4 00 00 00 00 	movl   $0x0,0xffffffe4(%ebp)
  111d1f:	81 7d e0 ff 01 00 00 	cmpl   $0x1ff,0xffffffe0(%ebp)
  111d26:	7f 0a                	jg     0x111d32
  111d28:	83 7d f4 00          	cmpl   $0x0,0xfffffff4(%ebp)
  111d2c:	0f 8f 58 ff ff ff    	jg     0x111c8a
  111d32:	8b 45 dc             	mov    0xffffffdc(%ebp),%eax
  111d35:	c1 e0 09             	shl    $0x9,%eax
  111d38:	05 00 06 00 00       	add    $0x600,%eax
  111d3d:	c7 44 24 0c 01 00 00 	movl   $0x1,0xc(%esp)
  111d44:	00 
  111d45:	89 44 24 08          	mov    %eax,0x8(%esp)
  111d49:	c7 44 24 04 00 c8 11 	movl   $0x11c800,0x4(%esp)
  111d50:	00 
  111d51:	c7 04 24 1a 03 00 00 	movl   $0x31a,(%esp)
  111d58:	e8 89 3b 00 00       	call   0x1158e6
  111d5d:	83 45 dc 01          	addl   $0x1,0xffffffdc(%ebp)
  111d61:	c7 45 e0 00 00 00 00 	movl   $0x0,0xffffffe0(%ebp)
  111d68:	83 7d f4 00          	cmpl   $0x0,0xfffffff4(%ebp)
  111d6c:	0f 8f e8 fe ff ff    	jg     0x111c5a
  111d72:	8b 45 e8             	mov    0xffffffe8(%ebp),%eax
  111d75:	c1 e8 05             	shr    $0x5,%eax
  111d78:	c1 e0 09             	shl    $0x9,%eax
  111d7b:	05 00 0e 00 00       	add    $0xe00,%eax
  111d80:	c7 44 24 0c 01 00 00 	movl   $0x1,0xc(%esp)
  111d87:	00 
  111d88:	89 44 24 08          	mov    %eax,0x8(%esp)
  111d8c:	c7 44 24 04 00 c8 11 	movl   $0x11c800,0x4(%esp)
  111d93:	00 
  111d94:	c7 04 24 1a 03 00 00 	movl   $0x31a,(%esp)
  111d9b:	e8 c1 3a 00 00       	call   0x115861
  111da0:	c7 45 d8 00 c8 11 00 	movl   $0x11c800,0xffffffd8(%ebp)
  111da7:	8b 45 e8             	mov    0xffffffe8(%ebp),%eax
  111daa:	83 e0 1f             	and    $0x1f,%eax
  111dad:	c1 e0 04             	shl    $0x4,%eax
  111db0:	01 45 d8             	add    %eax,0xffffffd8(%ebp)
  111db3:	8b 45 d8             	mov    0xffffffd8(%ebp),%eax
  111db6:	c7 00 00 00 00 00    	movl   $0x0,(%eax)
  111dbc:	8b 45 e8             	mov    0xffffffe8(%ebp),%eax
  111dbf:	c1 e8 05             	shr    $0x5,%eax
  111dc2:	c1 e0 09             	shl    $0x9,%eax
  111dc5:	05 00 0e 00 00       	add    $0xe00,%eax
  111dca:	c7 44 24 0c 01 00 00 	movl   $0x1,0xc(%esp)
  111dd1:	00 
  111dd2:	89 44 24 08          	mov    %eax,0x8(%esp)
  111dd6:	c7 44 24 04 00 c8 11 	movl   $0x11c800,0x4(%esp)
  111ddd:	00 
  111dde:	c7 04 24 1a 03 00 00 	movl   $0x31a,(%esp)
  111de5:	e8 fc 3a 00 00       	call   0x1158e6
  111dea:	c7 45 c4 00 00 00 00 	movl   $0x0,0xffffffc4(%ebp)
  111df1:	8b 45 c4             	mov    0xffffffc4(%ebp),%eax
  111df4:	83 c4 50             	add    $0x50,%esp
  111df7:	5b                   	pop    %ebx
  111df8:	5e                   	pop    %esi
  111df9:	5d                   	pop    %ebp
  111dfa:	c3                   	ret    
  111dfb:	55                   	push   %ebp
  111dfc:	89 e5                	mov    %esp,%ebp
  111dfe:	83 ec 18             	sub    $0x18,%esp
  111e01:	8b 45 08             	mov    0x8(%ebp),%eax
  111e04:	8b 55 14             	mov    0x14(%ebp),%edx
  111e07:	8b 84 82 80 00 00 00 	mov    0x80(%edx,%eax,4),%eax
  111e0e:	85 c0                	test   %eax,%eax
  111e10:	75 24                	jne    0x111e36
  111e12:	c7 44 24 0c 45 03 00 	movl   $0x345,0xc(%esp)
  111e19:	00 
  111e1a:	c7 44 24 08 b8 83 11 	movl   $0x1183b8,0x8(%esp)
  111e21:	00 
  111e22:	c7 44 24 04 b8 83 11 	movl   $0x1183b8,0x4(%esp)
  111e29:	00 
  111e2a:	c7 04 24 8f 87 11 00 	movl   $0x11878f,(%esp)
  111e31:	e8 de 05 00 00       	call   0x112414
  111e36:	8b 55 08             	mov    0x8(%ebp),%edx
  111e39:	8b 45 14             	mov    0x14(%ebp),%eax
  111e3c:	8b 84 90 80 00 00 00 	mov    0x80(%eax,%edx,4),%eax
  111e43:	8b 40 08             	mov    0x8(%eax),%eax
  111e46:	8b 50 04             	mov    0x4(%eax),%edx
  111e49:	8b 45 0c             	mov    0xc(%ebp),%eax
  111e4c:	39 c2                	cmp    %eax,%edx
  111e4e:	77 24                	ja     0x111e74
  111e50:	c7 44 24 0c 46 03 00 	movl   $0x346,0xc(%esp)
  111e57:	00 
  111e58:	c7 44 24 08 b8 83 11 	movl   $0x1183b8,0x8(%esp)
  111e5f:	00 
  111e60:	c7 44 24 04 b8 83 11 	movl   $0x1183b8,0x4(%esp)
  111e67:	00 
  111e68:	c7 04 24 a4 87 11 00 	movl   $0x1187a4,(%esp)
  111e6f:	e8 a0 05 00 00       	call   0x112414
  111e74:	8b 55 08             	mov    0x8(%ebp),%edx
  111e77:	8b 45 14             	mov    0x14(%ebp),%eax
  111e7a:	8b 94 90 80 00 00 00 	mov    0x80(%eax,%edx,4),%edx
  111e81:	8b 45 0c             	mov    0xc(%ebp),%eax
  111e84:	89 42 04             	mov    %eax,0x4(%edx)
  111e87:	b8 00 00 00 00       	mov    $0x0,%eax
  111e8c:	c9                   	leave  
  111e8d:	c3                   	ret    
  111e8e:	55                   	push   %ebp
  111e8f:	89 e5                	mov    %esp,%ebp
  111e91:	53                   	push   %ebx
  111e92:	83 ec 14             	sub    $0x14,%esp
  111e95:	8b 45 08             	mov    0x8(%ebp),%eax
  111e98:	69 c0 28 01 00 00    	imul   $0x128,%eax,%eax
  111e9e:	05 00 d9 11 00       	add    $0x11d900,%eax
  111ea3:	89 45 f0             	mov    %eax,0xfffffff0(%ebp)
  111ea6:	c7 45 f4 00 00 00 00 	movl   $0x0,0xfffffff4(%ebp)
  111ead:	c7 45 f8 00 00 00 00 	movl   $0x0,0xfffffff8(%ebp)
  111eb4:	e9 0a 01 00 00       	jmp    0x111fc3
  111eb9:	8b 45 f4             	mov    0xfffffff4(%ebp),%eax
  111ebc:	8b 55 f0             	mov    0xfffffff0(%ebp),%edx
  111ebf:	8b 84 82 80 00 00 00 	mov    0x80(%edx,%eax,4),%eax
  111ec6:	85 c0                	test   %eax,%eax
  111ec8:	0f 84 f1 00 00 00    	je     0x111fbf
  111ece:	eb 1a                	jmp    0x111eea
  111ed0:	8b 55 f8             	mov    0xfffffff8(%ebp),%edx
  111ed3:	89 d0                	mov    %edx,%eax
  111ed5:	01 c0                	add    %eax,%eax
  111ed7:	01 d0                	add    %edx,%eax
  111ed9:	c1 e0 02             	shl    $0x2,%eax
  111edc:	8b 80 08 d6 11 00    	mov    0x11d608(%eax),%eax
  111ee2:	85 c0                	test   %eax,%eax
  111ee4:	74 0a                	je     0x111ef0
  111ee6:	83 45 f8 01          	addl   $0x1,0xfffffff8(%ebp)
  111eea:	83 7d f8 3f          	cmpl   $0x3f,0xfffffff8(%ebp)
  111eee:	7e e0                	jle    0x111ed0
  111ef0:	83 7d f8 3f          	cmpl   $0x3f,0xfffffff8(%ebp)
  111ef4:	7e 56                	jle    0x111f4c
  111ef6:	eb 3e                	jmp    0x111f36
  111ef8:	8b 45 f4             	mov    0xfffffff4(%ebp),%eax
  111efb:	8b 55 f0             	mov    0xfffffff0(%ebp),%edx
  111efe:	8b 84 82 80 00 00 00 	mov    0x80(%edx,%eax,4),%eax
  111f05:	85 c0                	test   %eax,%eax
  111f07:	74 2d                	je     0x111f36
  111f09:	8b 55 f4             	mov    0xfffffff4(%ebp),%edx
  111f0c:	8b 45 f0             	mov    0xfffffff0(%ebp),%eax
  111f0f:	8b 84 90 80 00 00 00 	mov    0x80(%eax,%edx,4),%eax
  111f16:	8b 50 08             	mov    0x8(%eax),%edx
  111f19:	8b 42 24             	mov    0x24(%edx),%eax
  111f1c:	83 e8 01             	sub    $0x1,%eax
  111f1f:	89 42 24             	mov    %eax,0x24(%edx)
  111f22:	8b 55 f4             	mov    0xfffffff4(%ebp),%edx
  111f25:	8b 45 f0             	mov    0xfffffff0(%ebp),%eax
  111f28:	8b 84 90 80 00 00 00 	mov    0x80(%eax,%edx,4),%eax
  111f2f:	c7 40 08 00 00 00 00 	movl   $0x0,0x8(%eax)
  111f36:	83 6d f4 01          	subl   $0x1,0xfffffff4(%ebp)
  111f3a:	83 7d f4 00          	cmpl   $0x0,0xfffffff4(%ebp)
  111f3e:	79 b8                	jns    0x111ef8
  111f40:	c7 45 e8 ff ff ff ff 	movl   $0xffffffff,0xffffffe8(%ebp)
  111f47:	e9 88 00 00 00       	jmp    0x111fd4
  111f4c:	8b 5d f8             	mov    0xfffffff8(%ebp),%ebx
  111f4f:	8b 55 f4             	mov    0xfffffff4(%ebp),%edx
  111f52:	8b 45 f0             	mov    0xfffffff0(%ebp),%eax
  111f55:	8b 8c 90 80 00 00 00 	mov    0x80(%eax,%edx,4),%ecx
  111f5c:	89 d8                	mov    %ebx,%eax
  111f5e:	01 c0                	add    %eax,%eax
  111f60:	01 d8                	add    %ebx,%eax
  111f62:	8d 14 85 00 00 00 00 	lea    0x0(,%eax,4),%edx
  111f69:	8b 01                	mov    (%ecx),%eax
  111f6b:	89 82 00 d6 11 00    	mov    %eax,0x11d600(%edx)
  111f71:	8b 41 04             	mov    0x4(%ecx),%eax
  111f74:	89 82 04 d6 11 00    	mov    %eax,0x11d604(%edx)
  111f7a:	8b 41 08             	mov    0x8(%ecx),%eax
  111f7d:	89 82 08 d6 11 00    	mov    %eax,0x11d608(%edx)
  111f83:	8b 4d f4             	mov    0xfffffff4(%ebp),%ecx
  111f86:	8b 55 f8             	mov    0xfffffff8(%ebp),%edx
  111f89:	89 d0                	mov    %edx,%eax
  111f8b:	01 c0                	add    %eax,%eax
  111f8d:	01 d0                	add    %edx,%eax
  111f8f:	c1 e0 02             	shl    $0x2,%eax
  111f92:	8d 90 00 d6 11 00    	lea    0x11d600(%eax),%edx
  111f98:	8b 45 f0             	mov    0xfffffff0(%ebp),%eax
  111f9b:	89 94 88 80 00 00 00 	mov    %edx,0x80(%eax,%ecx,4)
  111fa2:	8b 55 f4             	mov    0xfffffff4(%ebp),%edx
  111fa5:	8b 45 f0             	mov    0xfffffff0(%ebp),%eax
  111fa8:	8b 84 90 80 00 00 00 	mov    0x80(%eax,%edx,4),%eax
  111faf:	8b 50 08             	mov    0x8(%eax),%edx
  111fb2:	8b 42 24             	mov    0x24(%edx),%eax
  111fb5:	83 c0 01             	add    $0x1,%eax
  111fb8:	89 42 24             	mov    %eax,0x24(%edx)
  111fbb:	83 45 f8 01          	addl   $0x1,0xfffffff8(%ebp)
  111fbf:	83 45 f4 01          	addl   $0x1,0xfffffff4(%ebp)
  111fc3:	83 7d f4 1f          	cmpl   $0x1f,0xfffffff4(%ebp)
  111fc7:	0f 8e ec fe ff ff    	jle    0x111eb9
  111fcd:	c7 45 e8 00 00 00 00 	movl   $0x0,0xffffffe8(%ebp)
  111fd4:	8b 45 e8             	mov    0xffffffe8(%ebp),%eax
  111fd7:	83 c4 14             	add    $0x14,%esp
  111fda:	5b                   	pop    %ebx
  111fdb:	5d                   	pop    %ebp
  111fdc:	c3                   	ret    
  111fdd:	55                   	push   %ebp
  111fde:	89 e5                	mov    %esp,%ebp
  111fe0:	83 ec 48             	sub    $0x48,%esp
  111fe3:	8b 45 08             	mov    0x8(%ebp),%eax
  111fe6:	69 c0 28 01 00 00    	imul   $0x128,%eax,%eax
  111fec:	05 00 d9 11 00       	add    $0x11d900,%eax
  111ff1:	89 45 f8             	mov    %eax,0xfffffff8(%ebp)
  111ff4:	c7 45 fc 00 00 00 00 	movl   $0x0,0xfffffffc(%ebp)
  111ffb:	e9 44 01 00 00       	jmp    0x112144
  112000:	8b 45 fc             	mov    0xfffffffc(%ebp),%eax
  112003:	8b 55 f8             	mov    0xfffffff8(%ebp),%edx
  112006:	8b 84 82 80 00 00 00 	mov    0x80(%edx,%eax,4),%eax
  11200d:	85 c0                	test   %eax,%eax
  11200f:	0f 84 2b 01 00 00    	je     0x112140
  112015:	8b 55 fc             	mov    0xfffffffc(%ebp),%edx
  112018:	8b 45 f8             	mov    0xfffffff8(%ebp),%eax
  11201b:	8b 84 90 80 00 00 00 	mov    0x80(%eax,%edx,4),%eax
  112022:	8b 40 08             	mov    0x8(%eax),%eax
  112025:	8b 40 24             	mov    0x24(%eax),%eax
  112028:	85 c0                	test   %eax,%eax
  11202a:	7f 24                	jg     0x112050
  11202c:	c7 44 24 0c 7f 03 00 	movl   $0x37f,0xc(%esp)
  112033:	00 
  112034:	c7 44 24 08 b8 83 11 	movl   $0x1183b8,0x8(%esp)
  11203b:	00 
  11203c:	c7 44 24 04 b8 83 11 	movl   $0x1183b8,0x4(%esp)
  112043:	00 
  112044:	c7 04 24 d0 87 11 00 	movl   $0x1187d0,(%esp)
  11204b:	e8 c4 03 00 00       	call   0x112414
  112050:	8b 55 fc             	mov    0xfffffffc(%ebp),%edx
  112053:	8b 45 f8             	mov    0xfffffff8(%ebp),%eax
  112056:	8b 84 90 80 00 00 00 	mov    0x80(%eax,%edx,4),%eax
  11205d:	8b 40 08             	mov    0x8(%eax),%eax
  112060:	8b 50 24             	mov    0x24(%eax),%edx
  112063:	83 ea 01             	sub    $0x1,%edx
  112066:	89 50 24             	mov    %edx,0x24(%eax)
  112069:	8b 40 24             	mov    0x24(%eax),%eax
  11206c:	85 c0                	test   %eax,%eax
  11206e:	0f 85 b8 00 00 00    	jne    0x11212c
  112074:	8b 55 fc             	mov    0xfffffffc(%ebp),%edx
  112077:	8b 45 f8             	mov    0xfffffff8(%ebp),%eax
  11207a:	8b 84 90 80 00 00 00 	mov    0x80(%eax,%edx,4),%eax
  112081:	8b 40 08             	mov    0x8(%eax),%eax
  112084:	8b 00                	mov    (%eax),%eax
  112086:	83 f8 02             	cmp    $0x2,%eax
  112089:	0f 85 9d 00 00 00    	jne    0x11212c
  11208f:	c7 45 d8 fe ff ff ff 	movl   $0xfffffffe,0xffffffd8(%ebp)
  112096:	c7 45 dc 01 00 00 00 	movl   $0x1,0xffffffdc(%ebp)
  11209d:	8b 55 fc             	mov    0xfffffffc(%ebp),%edx
  1120a0:	8b 45 f8             	mov    0xfffffff8(%ebp),%eax
  1120a3:	8b 84 90 80 00 00 00 	mov    0x80(%eax,%edx,4),%eax
  1120aa:	8b 40 08             	mov    0x8(%eax),%eax
  1120ad:	8b 40 20             	mov    0x20(%eax),%eax
  1120b0:	25 ff 00 00 00       	and    $0xff,%eax
  1120b5:	89 45 e0             	mov    %eax,0xffffffe0(%ebp)
  1120b8:	e8 55 12 00 00       	call   0x113312
  1120bd:	a1 6c ff 11 00       	mov    0x11ff6c,%eax
  1120c2:	85 c0                	test   %eax,%eax
  1120c4:	75 61                	jne    0x112127
  1120c6:	8b 55 fc             	mov    0xfffffffc(%ebp),%edx
  1120c9:	8b 45 f8             	mov    0xfffffff8(%ebp),%eax
  1120cc:	8b 84 90 80 00 00 00 	mov    0x80(%eax,%edx,4),%eax
  1120d3:	8b 40 08             	mov    0x8(%eax),%eax
  1120d6:	8b 40 20             	mov    0x20(%eax),%eax
  1120d9:	c1 f8 08             	sar    $0x8,%eax
  1120dc:	25 ff 00 00 00       	and    $0xff,%eax
  1120e1:	8b 14 85 40 a7 11 00 	mov    0x11a740(,%eax,4),%edx
  1120e8:	8d 45 d0             	lea    0xffffffd0(%ebp),%eax
  1120eb:	89 44 24 08          	mov    %eax,0x8(%esp)
  1120ef:	89 54 24 04          	mov    %edx,0x4(%esp)
  1120f3:	c7 04 24 02 00 00 00 	movl   $0x2,(%esp)
  1120fa:	e8 14 29 00 00       	call   0x114a13
  1120ff:	85 c0                	test   %eax,%eax
  112101:	74 24                	je     0x112127
  112103:	c7 44 24 0c 8b 03 00 	movl   $0x38b,0xc(%esp)
  11210a:	00 
  11210b:	c7 44 24 08 b8 83 11 	movl   $0x1183b8,0x8(%esp)
  112112:	00 
  112113:	c7 44 24 04 b8 83 11 	movl   $0x1183b8,0x4(%esp)
  11211a:	00 
  11211b:	c7 04 24 e0 86 11 00 	movl   $0x1186e0,(%esp)
  112122:	e8 ed 02 00 00       	call   0x112414
  112127:	e8 dc 11 00 00       	call   0x113308
  11212c:	8b 45 fc             	mov    0xfffffffc(%ebp),%eax
  11212f:	8b 55 f8             	mov    0xfffffff8(%ebp),%edx
  112132:	8b 84 82 80 00 00 00 	mov    0x80(%edx,%eax,4),%eax
  112139:	c7 40 08 00 00 00 00 	movl   $0x0,0x8(%eax)
  112140:	83 45 fc 01          	addl   $0x1,0xfffffffc(%ebp)
  112144:	83 7d fc 1f          	cmpl   $0x1f,0xfffffffc(%ebp)
  112148:	0f 8e b2 fe ff ff    	jle    0x112000
  11214e:	c9                   	leave  
  11214f:	c3                   	ret    
  112150:	55                   	push   %ebp
  112151:	89 e5                	mov    %esp,%ebp
  112153:	83 ec 18             	sub    $0x18,%esp
  112156:	8b 45 08             	mov    0x8(%ebp),%eax
  112159:	89 04 24             	mov    %eax,(%esp)
  11215c:	e8 c3 11 00 00       	call   0x113324
  112161:	89 45 fc             	mov    %eax,0xfffffffc(%ebp)
  112164:	eb 17                	jmp    0x11217d
  112166:	8b 45 fc             	mov    0xfffffffc(%ebp),%eax
  112169:	03 45 08             	add    0x8(%ebp),%eax
  11216c:	0f b6 00             	movzbl (%eax),%eax
  11216f:	3c 2f                	cmp    $0x2f,%al
  112171:	75 06                	jne    0x112179
  112173:	83 45 fc 01          	addl   $0x1,0xfffffffc(%ebp)
  112177:	eb 0a                	jmp    0x112183
  112179:	83 6d fc 01          	subl   $0x1,0xfffffffc(%ebp)
  11217d:	83 7d fc 00          	cmpl   $0x0,0xfffffffc(%ebp)
  112181:	7f e3                	jg     0x112166
  112183:	8b 45 fc             	mov    0xfffffffc(%ebp),%eax
  112186:	03 45 08             	add    0x8(%ebp),%eax
  112189:	c9                   	leave  
  11218a:	c3                   	ret    
  11218b:	55                   	push   %ebp
  11218c:	89 e5                	mov    %esp,%ebp
  11218e:	83 ec 48             	sub    $0x48,%esp
  112191:	c7 45 e0 fd ff ff ff 	movl   $0xfffffffd,0xffffffe0(%ebp)
  112198:	c7 45 e4 00 00 00 00 	movl   $0x0,0xffffffe4(%ebp)
  11219f:	8b 45 08             	mov    0x8(%ebp),%eax
  1121a2:	89 45 e8             	mov    %eax,0xffffffe8(%ebp)
  1121a5:	8b 45 0c             	mov    0xc(%ebp),%eax
  1121a8:	89 45 ec             	mov    %eax,0xffffffec(%ebp)
  1121ab:	8d 45 d8             	lea    0xffffffd8(%ebp),%eax
  1121ae:	89 44 24 08          	mov    %eax,0x8(%esp)
  1121b2:	c7 44 24 04 03 00 00 	movl   $0x3,0x4(%esp)
  1121b9:	00 
  1121ba:	c7 04 24 02 00 00 00 	movl   $0x2,(%esp)
  1121c1:	e8 4d 28 00 00       	call   0x114a13
  1121c6:	85 c0                	test   %eax,%eax
  1121c8:	74 24                	je     0x1121ee
  1121ca:	c7 44 24 0c b8 03 00 	movl   $0x3b8,0xc(%esp)
  1121d1:	00 
  1121d2:	c7 44 24 08 b8 83 11 	movl   $0x1183b8,0x8(%esp)
  1121d9:	00 
  1121da:	c7 44 24 04 b8 83 11 	movl   $0x1183b8,0x4(%esp)
  1121e1:	00 
  1121e2:	c7 04 24 f8 87 11 00 	movl   $0x1187f8,(%esp)
  1121e9:	e8 26 02 00 00       	call   0x112414
  1121ee:	8b 45 f0             	mov    0xfffffff0(%ebp),%eax
  1121f1:	c9                   	leave  
  1121f2:	c3                   	ret    
  1121f3:	55                   	push   %ebp
  1121f4:	89 e5                	mov    %esp,%ebp
  1121f6:	83 ec 48             	sub    $0x48,%esp
  1121f9:	c7 45 e0 fd ff ff ff 	movl   $0xfffffffd,0xffffffe0(%ebp)
  112200:	c7 45 e4 02 00 00 00 	movl   $0x2,0xffffffe4(%ebp)
  112207:	8b 45 08             	mov    0x8(%ebp),%eax
  11220a:	89 45 f0             	mov    %eax,0xfffffff0(%ebp)
  11220d:	8b 45 0c             	mov    0xc(%ebp),%eax
  112210:	89 45 f8             	mov    %eax,0xfffffff8(%ebp)
  112213:	8b 45 10             	mov    0x10(%ebp),%eax
  112216:	89 45 fc             	mov    %eax,0xfffffffc(%ebp)
  112219:	8b 45 14             	mov    0x14(%ebp),%eax
  11221c:	89 45 f4             	mov    %eax,0xfffffff4(%ebp)
  11221f:	8d 45 d8             	lea    0xffffffd8(%ebp),%eax
  112222:	89 44 24 08          	mov    %eax,0x8(%esp)
  112226:	c7 44 24 04 03 00 00 	movl   $0x3,0x4(%esp)
  11222d:	00 
  11222e:	c7 04 24 02 00 00 00 	movl   $0x2,(%esp)
  112235:	e8 d9 27 00 00       	call   0x114a13
  11223a:	85 c0                	test   %eax,%eax
  11223c:	74 24                	je     0x112262
  11223e:	c7 44 24 0c ce 03 00 	movl   $0x3ce,0xc(%esp)
  112245:	00 
  112246:	c7 44 24 08 b8 83 11 	movl   $0x1183b8,0x8(%esp)
  11224d:	00 
  11224e:	c7 44 24 04 b8 83 11 	movl   $0x1183b8,0x4(%esp)
  112255:	00 
  112256:	c7 04 24 f8 87 11 00 	movl   $0x1187f8,(%esp)
  11225d:	e8 b2 01 00 00       	call   0x112414
  112262:	8b 45 f4             	mov    0xfffffff4(%ebp),%eax
  112265:	c9                   	leave  
  112266:	c3                   	ret    
  112267:	55                   	push   %ebp
  112268:	89 e5                	mov    %esp,%ebp
  11226a:	83 ec 48             	sub    $0x48,%esp
  11226d:	c7 45 e0 fd ff ff ff 	movl   $0xfffffffd,0xffffffe0(%ebp)
  112274:	c7 45 e4 03 00 00 00 	movl   $0x3,0xffffffe4(%ebp)
  11227b:	8b 45 08             	mov    0x8(%ebp),%eax
  11227e:	89 45 f0             	mov    %eax,0xfffffff0(%ebp)
  112281:	8b 45 0c             	mov    0xc(%ebp),%eax
  112284:	89 45 f8             	mov    %eax,0xfffffff8(%ebp)
  112287:	8b 45 10             	mov    0x10(%ebp),%eax
  11228a:	89 45 fc             	mov    %eax,0xfffffffc(%ebp)
  11228d:	8b 45 14             	mov    0x14(%ebp),%eax
  112290:	89 45 f4             	mov    %eax,0xfffffff4(%ebp)
  112293:	8d 45 d8             	lea    0xffffffd8(%ebp),%eax
  112296:	89 44 24 08          	mov    %eax,0x8(%esp)
  11229a:	c7 44 24 04 03 00 00 	movl   $0x3,0x4(%esp)
  1122a1:	00 
  1122a2:	c7 04 24 02 00 00 00 	movl   $0x2,(%esp)
  1122a9:	e8 65 27 00 00       	call   0x114a13
  1122ae:	85 c0                	test   %eax,%eax
  1122b0:	74 24                	je     0x1122d6
  1122b2:	c7 44 24 0c e5 03 00 	movl   $0x3e5,0xc(%esp)
  1122b9:	00 
  1122ba:	c7 44 24 08 b8 83 11 	movl   $0x1183b8,0x8(%esp)
  1122c1:	00 
  1122c2:	c7 44 24 04 b8 83 11 	movl   $0x1183b8,0x4(%esp)
  1122c9:	00 
  1122ca:	c7 04 24 f8 87 11 00 	movl   $0x1187f8,(%esp)
  1122d1:	e8 3e 01 00 00       	call   0x112414
  1122d6:	8b 45 f4             	mov    0xfffffff4(%ebp),%eax
  1122d9:	c9                   	leave  
  1122da:	c3                   	ret    
  1122db:	55                   	push   %ebp
  1122dc:	89 e5                	mov    %esp,%ebp
  1122de:	83 ec 48             	sub    $0x48,%esp
  1122e1:	c7 45 e0 fd ff ff ff 	movl   $0xfffffffd,0xffffffe0(%ebp)
  1122e8:	c7 45 e4 01 00 00 00 	movl   $0x1,0xffffffe4(%ebp)
  1122ef:	8b 45 08             	mov    0x8(%ebp),%eax
  1122f2:	89 45 f0             	mov    %eax,0xfffffff0(%ebp)
  1122f5:	8d 45 d8             	lea    0xffffffd8(%ebp),%eax
  1122f8:	89 44 24 08          	mov    %eax,0x8(%esp)
  1122fc:	c7 44 24 04 03 00 00 	movl   $0x3,0x4(%esp)
  112303:	00 
  112304:	c7 04 24 02 00 00 00 	movl   $0x2,(%esp)
  11230b:	e8 03 27 00 00       	call   0x114a13
  112310:	85 c0                	test   %eax,%eax
  112312:	74 24                	je     0x112338
  112314:	c7 44 24 0c f5 03 00 	movl   $0x3f5,0xc(%esp)
  11231b:	00 
  11231c:	c7 44 24 08 b8 83 11 	movl   $0x1183b8,0x8(%esp)
  112323:	00 
  112324:	c7 44 24 04 b8 83 11 	movl   $0x1183b8,0x4(%esp)
  11232b:	00 
  11232c:	c7 04 24 f8 87 11 00 	movl   $0x1187f8,(%esp)
  112333:	e8 dc 00 00 00       	call   0x112414
  112338:	8b 45 e4             	mov    0xffffffe4(%ebp),%eax
  11233b:	c9                   	leave  
  11233c:	c3                   	ret    
  11233d:	55                   	push   %ebp
  11233e:	89 e5                	mov    %esp,%ebp
  112340:	83 ec 48             	sub    $0x48,%esp
  112343:	c7 45 e0 fd ff ff ff 	movl   $0xfffffffd,0xffffffe0(%ebp)
  11234a:	c7 45 e4 04 00 00 00 	movl   $0x4,0xffffffe4(%ebp)
  112351:	8b 45 08             	mov    0x8(%ebp),%eax
  112354:	89 45 e8             	mov    %eax,0xffffffe8(%ebp)
  112357:	8b 45 0c             	mov    0xc(%ebp),%eax
  11235a:	89 45 ec             	mov    %eax,0xffffffec(%ebp)
  11235d:	8d 45 d8             	lea    0xffffffd8(%ebp),%eax
  112360:	89 44 24 08          	mov    %eax,0x8(%esp)
  112364:	c7 44 24 04 03 00 00 	movl   $0x3,0x4(%esp)
  11236b:	00 
  11236c:	c7 04 24 02 00 00 00 	movl   $0x2,(%esp)
  112373:	e8 9b 26 00 00       	call   0x114a13
  112378:	85 c0                	test   %eax,%eax
  11237a:	74 24                	je     0x1123a0
  11237c:	c7 44 24 0c 07 04 00 	movl   $0x407,0xc(%esp)
  112383:	00 
  112384:	c7 44 24 08 b8 83 11 	movl   $0x1183b8,0x8(%esp)
  11238b:	00 
  11238c:	c7 44 24 04 b8 83 11 	movl   $0x1183b8,0x4(%esp)
  112393:	00 
  112394:	c7 04 24 f8 87 11 00 	movl   $0x1187f8,(%esp)
  11239b:	e8 74 00 00 00       	call   0x112414
  1123a0:	8b 45 e4             	mov    0xffffffe4(%ebp),%eax
  1123a3:	c9                   	leave  
  1123a4:	c3                   	ret    
  1123a5:	55                   	push   %ebp
  1123a6:	89 e5                	mov    %esp,%ebp
  1123a8:	83 ec 48             	sub    $0x48,%esp
  1123ab:	c7 45 e0 fd ff ff ff 	movl   $0xfffffffd,0xffffffe0(%ebp)
  1123b2:	c7 45 e4 08 00 00 00 	movl   $0x8,0xffffffe4(%ebp)
  1123b9:	8b 45 08             	mov    0x8(%ebp),%eax
  1123bc:	89 45 f0             	mov    %eax,0xfffffff0(%ebp)
  1123bf:	8b 45 0c             	mov    0xc(%ebp),%eax
  1123c2:	89 45 fc             	mov    %eax,0xfffffffc(%ebp)
  1123c5:	8b 45 10             	mov    0x10(%ebp),%eax
  1123c8:	89 45 ec             	mov    %eax,0xffffffec(%ebp)
  1123cb:	8d 45 d8             	lea    0xffffffd8(%ebp),%eax
  1123ce:	89 44 24 08          	mov    %eax,0x8(%esp)
  1123d2:	c7 44 24 04 03 00 00 	movl   $0x3,0x4(%esp)
  1123d9:	00 
  1123da:	c7 04 24 02 00 00 00 	movl   $0x2,(%esp)
  1123e1:	e8 2d 26 00 00       	call   0x114a13
  1123e6:	85 c0                	test   %eax,%eax
  1123e8:	74 24                	je     0x11240e
  1123ea:	c7 44 24 0c 1b 04 00 	movl   $0x41b,0xc(%esp)
  1123f1:	00 
  1123f2:	c7 44 24 08 b8 83 11 	movl   $0x1183b8,0x8(%esp)
  1123f9:	00 
  1123fa:	c7 44 24 04 b8 83 11 	movl   $0x1183b8,0x4(%esp)
  112401:	00 
  112402:	c7 04 24 f8 87 11 00 	movl   $0x1187f8,(%esp)
  112409:	e8 06 00 00 00       	call   0x112414
  11240e:	8b 45 e4             	mov    0xffffffe4(%ebp),%eax
  112411:	c9                   	leave  
  112412:	c3                   	ret    
  112413:	90                   	nop    
  112414:	55                   	push   %ebp
  112415:	89 e5                	mov    %esp,%ebp
  112417:	83 ec 18             	sub    $0x18,%esp
  11241a:	8b 45 14             	mov    0x14(%ebp),%eax
  11241d:	89 44 24 0c          	mov    %eax,0xc(%esp)
  112421:	8b 45 0c             	mov    0xc(%ebp),%eax
  112424:	89 44 24 08          	mov    %eax,0x8(%esp)
  112428:	8b 45 08             	mov    0x8(%ebp),%eax
  11242b:	89 44 24 04          	mov    %eax,0x4(%esp)
  11242f:	c7 04 24 20 88 11 00 	movl   $0x118820,(%esp)
  112436:	e8 b9 12 00 00       	call   0x1136f4
  11243b:	e8 d2 0e 00 00       	call   0x113312
  112440:	eb fe                	jmp    0x112440
  112442:	90                   	nop    
  112443:	90                   	nop    
  112444:	55                   	push   %ebp
  112445:	89 e5                	mov    %esp,%ebp
  112447:	83 ec 48             	sub    $0x48,%esp
  11244a:	e8 e7 01 00 00       	call   0x112636
  11244f:	eb 00                	jmp    0x112451
  112451:	8d 45 d4             	lea    0xffffffd4(%ebp),%eax
  112454:	89 44 24 08          	mov    %eax,0x8(%esp)
  112458:	c7 44 24 04 ff ff ff 	movl   $0xffffffff,0x4(%esp)
  11245f:	ff 
  112460:	c7 04 24 01 00 00 00 	movl   $0x1,(%esp)
  112467:	e8 a7 25 00 00       	call   0x114a13
  11246c:	85 c0                	test   %eax,%eax
  11246e:	74 24                	je     0x112494
  112470:	c7 44 24 0c 16 00 00 	movl   $0x16,0xc(%esp)
  112477:	00 
  112478:	c7 44 24 08 44 88 11 	movl   $0x118844,0x8(%esp)
  11247f:	00 
  112480:	c7 44 24 04 44 88 11 	movl   $0x118844,0x4(%esp)
  112487:	00 
  112488:	c7 04 24 49 88 11 00 	movl   $0x118849,(%esp)
  11248f:	e8 80 ff ff ff       	call   0x112414
  112494:	8b 45 dc             	mov    0xffffffdc(%ebp),%eax
  112497:	83 f8 fb             	cmp    $0xfffffffb,%eax
  11249a:	74 24                	je     0x1124c0
  11249c:	c7 44 24 0c 17 00 00 	movl   $0x17,0xc(%esp)
  1124a3:	00 
  1124a4:	c7 44 24 08 44 88 11 	movl   $0x118844,0x8(%esp)
  1124ab:	00 
  1124ac:	c7 44 24 04 44 88 11 	movl   $0x118844,0x4(%esp)
  1124b3:	00 
  1124b4:	c7 04 24 5d 88 11 00 	movl   $0x11885d,(%esp)
  1124bb:	e8 54 ff ff ff       	call   0x112414
  1124c0:	8d 45 d4             	lea    0xffffffd4(%ebp),%eax
  1124c3:	83 c0 0c             	add    $0xc,%eax
  1124c6:	89 45 fc             	mov    %eax,0xfffffffc(%ebp)
  1124c9:	8b 45 d4             	mov    0xffffffd4(%ebp),%eax
  1124cc:	69 c0 28 01 00 00    	imul   $0x128,%eax,%eax
  1124d2:	8b 80 64 d9 11 00    	mov    0x11d964(%eax),%eax
  1124d8:	83 f8 02             	cmp    $0x2,%eax
  1124db:	75 ec                	jne    0x1124c9
  1124dd:	8b 45 d4             	mov    0xffffffd4(%ebp),%eax
  1124e0:	69 c0 28 01 00 00    	imul   $0x128,%eax,%eax
  1124e6:	8b 80 64 d9 11 00    	mov    0x11d964(%eax),%eax
  1124ec:	83 f8 02             	cmp    $0x2,%eax
  1124ef:	74 24                	je     0x112515
  1124f1:	c7 44 24 0c 1a 00 00 	movl   $0x1a,0xc(%esp)
  1124f8:	00 
  1124f9:	c7 44 24 08 44 88 11 	movl   $0x118844,0x8(%esp)
  112500:	00 
  112501:	c7 44 24 04 44 88 11 	movl   $0x118844,0x4(%esp)
  112508:	00 
  112509:	c7 04 24 78 88 11 00 	movl   $0x118878,(%esp)
  112510:	e8 ff fe ff ff       	call   0x112414
  112515:	8b 45 d4             	mov    0xffffffd4(%ebp),%eax
  112518:	69 c0 28 01 00 00    	imul   $0x128,%eax,%eax
  11251e:	8b 80 74 d9 11 00    	mov    0x11d974(%eax),%eax
  112524:	83 f8 05             	cmp    $0x5,%eax
  112527:	74 24                	je     0x11254d
  112529:	c7 44 24 0c 1b 00 00 	movl   $0x1b,0xc(%esp)
  112530:	00 
  112531:	c7 44 24 08 44 88 11 	movl   $0x118844,0x8(%esp)
  112538:	00 
  112539:	c7 44 24 04 44 88 11 	movl   $0x118844,0x4(%esp)
  112540:	00 
  112541:	c7 04 24 a4 88 11 00 	movl   $0x1188a4,(%esp)
  112548:	e8 c7 fe ff ff       	call   0x112414
  11254d:	8b 45 fc             	mov    0xfffffffc(%ebp),%eax
  112550:	8b 00                	mov    (%eax),%eax
  112552:	89 45 cc             	mov    %eax,0xffffffcc(%ebp)
  112555:	83 7d cc 02          	cmpl   $0x2,0xffffffcc(%ebp)
  112559:	74 30                	je     0x11258b
  11255b:	83 7d cc 02          	cmpl   $0x2,0xffffffcc(%ebp)
  11255f:	7f 08                	jg     0x112569
  112561:	83 7d cc 01          	cmpl   $0x1,0xffffffcc(%ebp)
  112565:	74 10                	je     0x112577
  112567:	eb 69                	jmp    0x1125d2
  112569:	83 7d cc 03          	cmpl   $0x3,0xffffffcc(%ebp)
  11256d:	74 33                	je     0x1125a2
  11256f:	83 7d cc 04          	cmpl   $0x4,0xffffffcc(%ebp)
  112573:	74 4b                	je     0x1125c0
  112575:	eb 5b                	jmp    0x1125d2
  112577:	8b 45 d4             	mov    0xffffffd4(%ebp),%eax
  11257a:	89 04 24             	mov    %eax,(%esp)
  11257d:	e8 e7 00 00 00       	call   0x112669
  112582:	89 c2                	mov    %eax,%edx
  112584:	8b 45 fc             	mov    0xfffffffc(%ebp),%eax
  112587:	89 10                	mov    %edx,(%eax)
  112589:	eb 47                	jmp    0x1125d2
  11258b:	8b 45 fc             	mov    0xfffffffc(%ebp),%eax
  11258e:	8b 40 08             	mov    0x8(%eax),%eax
  112591:	8b 55 d4             	mov    0xffffffd4(%ebp),%edx
  112594:	89 44 24 04          	mov    %eax,0x4(%esp)
  112598:	89 14 24             	mov    %edx,(%esp)
  11259b:	e8 16 04 00 00       	call   0x1129b6
  1125a0:	eb 30                	jmp    0x1125d2
  1125a2:	8b 45 fc             	mov    0xfffffffc(%ebp),%eax
  1125a5:	8b 40 04             	mov    0x4(%eax),%eax
  1125a8:	8b 55 d4             	mov    0xffffffd4(%ebp),%edx
  1125ab:	89 44 24 04          	mov    %eax,0x4(%esp)
  1125af:	89 14 24             	mov    %edx,(%esp)
  1125b2:	e8 ec 05 00 00       	call   0x112ba3
  1125b7:	89 c2                	mov    %eax,%edx
  1125b9:	8b 45 fc             	mov    0xfffffffc(%ebp),%eax
  1125bc:	89 10                	mov    %edx,(%eax)
  1125be:	eb 12                	jmp    0x1125d2
  1125c0:	8d 45 d4             	lea    0xffffffd4(%ebp),%eax
  1125c3:	89 04 24             	mov    %eax,(%esp)
  1125c6:	e8 4a 09 00 00       	call   0x112f15
  1125cb:	89 c2                	mov    %eax,%edx
  1125cd:	8b 45 fc             	mov    0xfffffffc(%ebp),%eax
  1125d0:	89 10                	mov    %edx,(%eax)
  1125d2:	a1 94 ac 11 00       	mov    0x11ac94,%eax
  1125d7:	83 f8 01             	cmp    $0x1,%eax
  1125da:	75 0f                	jne    0x1125eb
  1125dc:	c7 05 94 ac 11 00 00 	movl   $0x0,0x11ac94
  1125e3:	00 00 00 
  1125e6:	e9 66 fe ff ff       	jmp    0x112451
  1125eb:	8b 45 d4             	mov    0xffffffd4(%ebp),%eax
  1125ee:	8d 55 d4             	lea    0xffffffd4(%ebp),%edx
  1125f1:	89 54 24 08          	mov    %edx,0x8(%esp)
  1125f5:	89 44 24 04          	mov    %eax,0x4(%esp)
  1125f9:	c7 04 24 00 00 00 00 	movl   $0x0,(%esp)
  112600:	e8 0e 24 00 00       	call   0x114a13
  112605:	85 c0                	test   %eax,%eax
  112607:	0f 84 44 fe ff ff    	je     0x112451
  11260d:	c7 44 24 0c 2f 00 00 	movl   $0x2f,0xc(%esp)
  112614:	00 
  112615:	c7 44 24 08 44 88 11 	movl   $0x118844,0x8(%esp)
  11261c:	00 
  11261d:	c7 44 24 04 44 88 11 	movl   $0x118844,0x4(%esp)
  112624:	00 
  112625:	c7 04 24 d3 88 11 00 	movl   $0x1188d3,(%esp)
  11262c:	e8 e3 fd ff ff       	call   0x112414
  112631:	e9 1b fe ff ff       	jmp    0x112451
  112636:	55                   	push   %ebp
  112637:	89 e5                	mov    %esp,%ebp
  112639:	c7 05 94 ac 11 00 00 	movl   $0x0,0x11ac94
  112640:	00 00 00 
  112643:	5d                   	pop    %ebp
  112644:	c3                   	ret    
  112645:	55                   	push   %ebp
  112646:	89 e5                	mov    %esp,%ebp
  112648:	5d                   	pop    %ebp
  112649:	c3                   	ret    
  11264a:	55                   	push   %ebp
  11264b:	89 e5                	mov    %esp,%ebp
  11264d:	83 ec 10             	sub    $0x10,%esp
  112650:	c7 45 fc 0a 00 00 00 	movl   $0xa,0xfffffffc(%ebp)
  112657:	8b 45 08             	mov    0x8(%ebp),%eax
  11265a:	83 e8 0b             	sub    $0xb,%eax
  11265d:	01 45 fc             	add    %eax,0xfffffffc(%ebp)
  112660:	c1 65 fc 14          	shll   $0x14,0xfffffffc(%ebp)
  112664:	8b 45 fc             	mov    0xfffffffc(%ebp),%eax
  112667:	c9                   	leave  
  112668:	c3                   	ret    
  112669:	55                   	push   %ebp
  11266a:	89 e5                	mov    %esp,%ebp
  11266c:	83 ec 68             	sub    $0x68,%esp
  11266f:	c7 45 e0 b8 e5 11 00 	movl   $0x11e5b8,0xffffffe0(%ebp)
  112676:	eb 12                	jmp    0x11268a
  112678:	8b 45 e0             	mov    0xffffffe0(%ebp),%eax
  11267b:	8b 40 60             	mov    0x60(%eax),%eax
  11267e:	83 f8 01             	cmp    $0x1,%eax
  112681:	74 11                	je     0x112694
  112683:	81 45 e0 28 01 00 00 	addl   $0x128,0xffffffe0(%ebp)
  11268a:	b8 28 ff 11 00       	mov    $0x11ff28,%eax
  11268f:	39 45 e0             	cmp    %eax,0xffffffe0(%ebp)
  112692:	72 e4                	jb     0x112678
  112694:	b8 28 ff 11 00       	mov    $0x11ff28,%eax
  112699:	39 45 e0             	cmp    %eax,0xffffffe0(%ebp)
  11269c:	72 0c                	jb     0x1126aa
  11269e:	c7 45 ac ff ff ff ff 	movl   $0xffffffff,0xffffffac(%ebp)
  1126a5:	e9 07 03 00 00       	jmp    0x1129b1
  1126aa:	8b 45 e0             	mov    0xffffffe0(%ebp),%eax
  1126ad:	0f b7 40 44          	movzwl 0x44(%eax),%eax
  1126b1:	66 89 45 e6          	mov    %ax,0xffffffe6(%ebp)
  1126b5:	8b 45 e0             	mov    0xffffffe0(%ebp),%eax
  1126b8:	8b 40 5c             	mov    0x5c(%eax),%eax
  1126bb:	89 45 e8             	mov    %eax,0xffffffe8(%ebp)
  1126be:	8b 45 08             	mov    0x8(%ebp),%eax
  1126c1:	69 c0 28 01 00 00    	imul   $0x128,%eax,%eax
  1126c7:	05 00 d9 11 00       	add    $0x11d900,%eax
  1126cc:	8b 55 e0             	mov    0xffffffe0(%ebp),%edx
  1126cf:	c7 44 24 08 28 01 00 	movl   $0x128,0x8(%esp)
  1126d6:	00 
  1126d7:	89 44 24 04          	mov    %eax,0x4(%esp)
  1126db:	89 14 24             	mov    %edx,(%esp)
  1126de:	e8 dd 0c 00 00       	call   0x1133c0
  1126e3:	8b 45 e0             	mov    0xffffffe0(%ebp),%eax
  1126e6:	8b 40 64             	mov    0x64(%eax),%eax
  1126e9:	83 f8 02             	cmp    $0x2,%eax
  1126ec:	74 24                	je     0x112712
  1126ee:	c7 44 24 0c 6b 00 00 	movl   $0x6b,0xc(%esp)
  1126f5:	00 
  1126f6:	c7 44 24 08 44 88 11 	movl   $0x118844,0x8(%esp)
  1126fd:	00 
  1126fe:	c7 44 24 04 44 88 11 	movl   $0x118844,0x4(%esp)
  112705:	00 
  112706:	c7 04 24 ee 88 11 00 	movl   $0x1188ee,(%esp)
  11270d:	e8 02 fd ff ff       	call   0x112414
  112712:	8b 45 e0             	mov    0xffffffe0(%ebp),%eax
  112715:	8b 40 74             	mov    0x74(%eax),%eax
  112718:	83 f8 05             	cmp    $0x5,%eax
  11271b:	74 24                	je     0x112741
  11271d:	c7 44 24 0c 6c 00 00 	movl   $0x6c,0xc(%esp)
  112724:	00 
  112725:	c7 44 24 08 44 88 11 	movl   $0x118844,0x8(%esp)
  11272c:	00 
  11272d:	c7 44 24 04 44 88 11 	movl   $0x118844,0x4(%esp)
  112734:	00 
  112735:	c7 04 24 08 89 11 00 	movl   $0x118908,(%esp)
  11273c:	e8 d3 fc ff ff       	call   0x112414
  112741:	8b 55 e0             	mov    0xffffffe0(%ebp),%edx
  112744:	0f b7 45 e6          	movzwl 0xffffffe6(%ebp),%eax
  112748:	66 89 42 44          	mov    %ax,0x44(%edx)
  11274c:	8b 55 e0             	mov    0xffffffe0(%ebp),%edx
  11274f:	8b 45 e8             	mov    0xffffffe8(%ebp),%eax
  112752:	89 42 5c             	mov    %eax,0x5c(%edx)
  112755:	8b 55 08             	mov    0x8(%ebp),%edx
  112758:	8b 45 e0             	mov    0xffffffe0(%ebp),%eax
  11275b:	89 90 0c 01 00 00    	mov    %edx,0x10c(%eax)
  112761:	8b 45 e8             	mov    0xffffffe8(%ebp),%eax
  112764:	89 04 24             	mov    %eax,(%esp)
  112767:	e8 de fe ff ff       	call   0x11264a
  11276c:	89 45 ec             	mov    %eax,0xffffffec(%ebp)
  11276f:	8b 45 ec             	mov    0xffffffec(%ebp),%eax
  112772:	25 ff 0f 00 00       	and    $0xfff,%eax
  112777:	85 c0                	test   %eax,%eax
  112779:	74 24                	je     0x11279f
  11277b:	c7 44 24 0c 73 00 00 	movl   $0x73,0xc(%esp)
  112782:	00 
  112783:	c7 44 24 08 44 88 11 	movl   $0x118844,0x8(%esp)
  11278a:	00 
  11278b:	c7 44 24 04 44 88 11 	movl   $0x118844,0x4(%esp)
  112792:	00 
  112793:	c7 04 24 27 89 11 00 	movl   $0x118927,(%esp)
  11279a:	e8 75 fc ff ff       	call   0x112414
  11279f:	8b 45 08             	mov    0x8(%ebp),%eax
  1127a2:	69 c0 28 01 00 00    	imul   $0x128,%eax,%eax
  1127a8:	05 00 d9 11 00       	add    $0x11d900,%eax
  1127ad:	c7 44 24 04 00 00 11 	movl   $0x110000,0x4(%esp)
  1127b4:	00 
  1127b5:	89 04 24             	mov    %eax,(%esp)
  1127b8:	e8 d0 0e 00 00       	call   0x11368d
  1127bd:	89 c2                	mov    %eax,%edx
  1127bf:	8b 45 ec             	mov    0xffffffec(%ebp),%eax
  1127c2:	05 00 00 01 00       	add    $0x10000,%eax
  1127c7:	c7 44 24 08 00 00 08 	movl   $0x80000,0x8(%esp)
  1127ce:	00 
  1127cf:	89 54 24 04          	mov    %edx,0x4(%esp)
  1127d3:	89 04 24             	mov    %eax,(%esp)
  1127d6:	e8 e5 0b 00 00       	call   0x1133c0
  1127db:	8b 55 ec             	mov    0xffffffec(%ebp),%edx
  1127de:	8b 45 e0             	mov    0xffffffe0(%ebp),%eax
  1127e1:	89 50 48             	mov    %edx,0x48(%eax)
  1127e4:	8b 45 e0             	mov    0xffffffe0(%ebp),%eax
  1127e7:	8b 40 48             	mov    0x48(%eax),%eax
  1127ea:	89 45 f0             	mov    %eax,0xfffffff0(%ebp)
  1127ed:	8b 45 e0             	mov    0xffffffe0(%ebp),%eax
  1127f0:	8b 40 48             	mov    0x48(%eax),%eax
  1127f3:	05 00 10 00 00       	add    $0x1000,%eax
  1127f8:	89 45 f4             	mov    %eax,0xfffffff4(%ebp)
  1127fb:	8b 45 f0             	mov    0xfffffff0(%ebp),%eax
  1127fe:	25 ff 0f 00 00       	and    $0xfff,%eax
  112803:	85 c0                	test   %eax,%eax
  112805:	74 24                	je     0x11282b
  112807:	c7 44 24 0c 79 00 00 	movl   $0x79,0xc(%esp)
  11280e:	00 
  11280f:	c7 44 24 08 44 88 11 	movl   $0x118844,0x8(%esp)
  112816:	00 
  112817:	c7 44 24 04 44 88 11 	movl   $0x118844,0x4(%esp)
  11281e:	00 
  11281f:	c7 04 24 42 89 11 00 	movl   $0x118942,(%esp)
  112826:	e8 e9 fb ff ff       	call   0x112414
  11282b:	8b 45 f4             	mov    0xfffffff4(%ebp),%eax
  11282e:	25 ff 0f 00 00       	and    $0xfff,%eax
  112833:	85 c0                	test   %eax,%eax
  112835:	74 24                	je     0x11285b
  112837:	c7 44 24 0c 7a 00 00 	movl   $0x7a,0xc(%esp)
  11283e:	00 
  11283f:	c7 44 24 08 44 88 11 	movl   $0x118844,0x8(%esp)
  112846:	00 
  112847:	c7 44 24 04 44 88 11 	movl   $0x118844,0x4(%esp)
  11284e:	00 
  11284f:	c7 04 24 5a 89 11 00 	movl   $0x11895a,(%esp)
  112856:	e8 b9 fb ff ff       	call   0x112414
  11285b:	c7 45 f8 00 00 00 00 	movl   $0x0,0xfffffff8(%ebp)
  112862:	eb 1a                	jmp    0x11287e
  112864:	8b 45 f4             	mov    0xfffffff4(%ebp),%eax
  112867:	8d 50 07             	lea    0x7(%eax),%edx
  11286a:	8b 45 f0             	mov    0xfffffff0(%ebp),%eax
  11286d:	89 10                	mov    %edx,(%eax)
  11286f:	83 45 f0 04          	addl   $0x4,0xfffffff0(%ebp)
  112873:	81 45 f4 00 10 00 00 	addl   $0x1000,0xfffffff4(%ebp)
  11287a:	83 45 f8 01          	addl   $0x1,0xfffffff8(%ebp)
  11287e:	83 7d f8 07          	cmpl   $0x7,0xfffffff8(%ebp)
  112882:	7e e0                	jle    0x112864
  112884:	8b 45 e0             	mov    0xffffffe0(%ebp),%eax
  112887:	8b 40 48             	mov    0x48(%eax),%eax
  11288a:	05 00 10 00 00       	add    $0x1000,%eax
  11288f:	89 45 f4             	mov    %eax,0xfffffff4(%ebp)
  112892:	c7 45 fc 00 00 00 00 	movl   $0x0,0xfffffffc(%ebp)
  112899:	c7 45 f8 00 00 00 00 	movl   $0x0,0xfffffff8(%ebp)
  1128a0:	eb 1a                	jmp    0x1128bc
  1128a2:	8b 55 fc             	mov    0xfffffffc(%ebp),%edx
  1128a5:	83 c2 07             	add    $0x7,%edx
  1128a8:	8b 45 f4             	mov    0xfffffff4(%ebp),%eax
  1128ab:	89 10                	mov    %edx,(%eax)
  1128ad:	83 45 f4 04          	addl   $0x4,0xfffffff4(%ebp)
  1128b1:	81 45 fc 00 10 00 00 	addl   $0x1000,0xfffffffc(%ebp)
  1128b8:	83 45 f8 01          	addl   $0x1,0xfffffff8(%ebp)
  1128bc:	81 7d f8 ff 00 00 00 	cmpl   $0xff,0xfffffff8(%ebp)
  1128c3:	7e dd                	jle    0x1128a2
  1128c5:	8b 45 ec             	mov    0xffffffec(%ebp),%eax
  1128c8:	89 45 fc             	mov    %eax,0xfffffffc(%ebp)
  1128cb:	eb 1a                	jmp    0x1128e7
  1128cd:	8b 55 fc             	mov    0xfffffffc(%ebp),%edx
  1128d0:	83 c2 07             	add    $0x7,%edx
  1128d3:	8b 45 f4             	mov    0xfffffff4(%ebp),%eax
  1128d6:	89 10                	mov    %edx,(%eax)
  1128d8:	83 45 f4 04          	addl   $0x4,0xfffffff4(%ebp)
  1128dc:	81 45 fc 00 10 00 00 	addl   $0x1000,0xfffffffc(%ebp)
  1128e3:	83 45 f8 01          	addl   $0x1,0xfffffff8(%ebp)
  1128e7:	81 7d f8 ff 1f 00 00 	cmpl   $0x1fff,0xfffffff8(%ebp)
  1128ee:	7e dd                	jle    0x1128cd
  1128f0:	c7 45 c0 fd ff ff ff 	movl   $0xfffffffd,0xffffffc0(%ebp)
  1128f7:	c7 45 c4 06 00 00 00 	movl   $0x6,0xffffffc4(%ebp)
  1128fe:	8b 45 e8             	mov    0xffffffe8(%ebp),%eax
  112901:	89 45 cc             	mov    %eax,0xffffffcc(%ebp)
  112904:	8d 45 b8             	lea    0xffffffb8(%ebp),%eax
  112907:	89 44 24 08          	mov    %eax,0x8(%esp)
  11290b:	c7 44 24 04 03 00 00 	movl   $0x3,0x4(%esp)
  112912:	00 
  112913:	c7 04 24 02 00 00 00 	movl   $0x2,(%esp)
  11291a:	e8 f4 20 00 00       	call   0x114a13
  11291f:	85 c0                	test   %eax,%eax
  112921:	74 24                	je     0x112947
  112923:	c7 44 24 0c 93 00 00 	movl   $0x93,0xc(%esp)
  11292a:	00 
  11292b:	c7 44 24 08 44 88 11 	movl   $0x118844,0x8(%esp)
  112932:	00 
  112933:	c7 44 24 04 44 88 11 	movl   $0x118844,0x4(%esp)
  11293a:	00 
  11293b:	c7 04 24 74 89 11 00 	movl   $0x118974,(%esp)
  112942:	e8 cd fa ff ff       	call   0x112414
  112947:	8b 45 c4             	mov    0xffffffc4(%ebp),%eax
  11294a:	83 f8 ff             	cmp    $0xffffffff,%eax
  11294d:	75 13                	jne    0x112962
  11294f:	8b 45 e0             	mov    0xffffffe0(%ebp),%eax
  112952:	c7 40 60 01 00 00 00 	movl   $0x1,0x60(%eax)
  112959:	c7 45 ac ff ff ff ff 	movl   $0xffffffff,0xffffffac(%ebp)
  112960:	eb 4f                	jmp    0x1129b1
  112962:	c7 45 c4 00 00 00 00 	movl   $0x0,0xffffffc4(%ebp)
  112969:	8b 45 e8             	mov    0xffffffe8(%ebp),%eax
  11296c:	8d 55 b8             	lea    0xffffffb8(%ebp),%edx
  11296f:	89 54 24 08          	mov    %edx,0x8(%esp)
  112973:	89 44 24 04          	mov    %eax,0x4(%esp)
  112977:	c7 04 24 00 00 00 00 	movl   $0x0,(%esp)
  11297e:	e8 90 20 00 00       	call   0x114a13
  112983:	85 c0                	test   %eax,%eax
  112985:	74 24                	je     0x1129ab
  112987:	c7 44 24 0c 9f 00 00 	movl   $0x9f,0xc(%esp)
  11298e:	00 
  11298f:	c7 44 24 08 44 88 11 	movl   $0x118844,0x8(%esp)
  112996:	00 
  112997:	c7 44 24 04 44 88 11 	movl   $0x118844,0x4(%esp)
  11299e:	00 
  11299f:	c7 04 24 99 89 11 00 	movl   $0x118999,(%esp)
  1129a6:	e8 69 fa ff ff       	call   0x112414
  1129ab:	8b 45 e8             	mov    0xffffffe8(%ebp),%eax
  1129ae:	89 45 ac             	mov    %eax,0xffffffac(%ebp)
  1129b1:	8b 45 ac             	mov    0xffffffac(%ebp),%eax
  1129b4:	c9                   	leave  
  1129b5:	c3                   	ret    
  1129b6:	55                   	push   %ebp
  1129b7:	89 e5                	mov    %esp,%ebp
  1129b9:	83 ec 78             	sub    $0x78,%esp
  1129bc:	c7 45 fc 00 d9 11 00 	movl   $0x11d900,0xfffffffc(%ebp)
  1129c3:	eb 2d                	jmp    0x1129f2
  1129c5:	8b 45 fc             	mov    0xfffffffc(%ebp),%eax
  1129c8:	8b 40 60             	mov    0x60(%eax),%eax
  1129cb:	83 f8 01             	cmp    $0x1,%eax
  1129ce:	74 1b                	je     0x1129eb
  1129d0:	8b 45 fc             	mov    0xfffffffc(%ebp),%eax
  1129d3:	8b 80 0c 01 00 00    	mov    0x10c(%eax),%eax
  1129d9:	3b 45 08             	cmp    0x8(%ebp),%eax
  1129dc:	75 0d                	jne    0x1129eb
  1129de:	8b 45 fc             	mov    0xfffffffc(%ebp),%eax
  1129e1:	c7 80 0c 01 00 00 06 	movl   $0x6,0x10c(%eax)
  1129e8:	00 00 00 
  1129eb:	81 45 fc 28 01 00 00 	addl   $0x128,0xfffffffc(%ebp)
  1129f2:	b8 28 ff 11 00       	mov    $0x11ff28,%eax
  1129f7:	39 45 fc             	cmp    %eax,0xfffffffc(%ebp)
  1129fa:	72 c9                	jb     0x1129c5
  1129fc:	8b 45 08             	mov    0x8(%ebp),%eax
  1129ff:	69 c0 28 01 00 00    	imul   $0x128,%eax,%eax
  112a05:	05 00 d9 11 00       	add    $0x11d900,%eax
  112a0a:	89 45 fc             	mov    %eax,0xfffffffc(%ebp)
  112a0d:	8b 45 fc             	mov    0xfffffffc(%ebp),%eax
  112a10:	8b 80 0c 01 00 00    	mov    0x10c(%eax),%eax
  112a16:	69 c0 28 01 00 00    	imul   $0x128,%eax,%eax
  112a1c:	8b 80 64 d9 11 00    	mov    0x11d964(%eax),%eax
  112a22:	83 f8 04             	cmp    $0x4,%eax
  112a25:	0f 85 f4 00 00 00    	jne    0x112b1f
  112a2b:	8b 45 fc             	mov    0xfffffffc(%ebp),%eax
  112a2e:	8b 80 0c 01 00 00    	mov    0x10c(%eax),%eax
  112a34:	69 c0 28 01 00 00    	imul   $0x128,%eax,%eax
  112a3a:	8b 90 20 da 11 00    	mov    0x11da20(%eax),%edx
  112a40:	8b 45 fc             	mov    0xfffffffc(%ebp),%eax
  112a43:	8b 80 0c 01 00 00    	mov    0x10c(%eax),%eax
  112a49:	69 c0 28 01 00 00    	imul   $0x128,%eax,%eax
  112a4f:	05 00 d9 11 00       	add    $0x11d900,%eax
  112a54:	89 54 24 04          	mov    %edx,0x4(%esp)
  112a58:	89 04 24             	mov    %eax,(%esp)
  112a5b:	e8 2d 0c 00 00       	call   0x11368d
  112a60:	89 c2                	mov    %eax,%edx
  112a62:	8b 45 0c             	mov    0xc(%ebp),%eax
  112a65:	89 02                	mov    %eax,(%edx)
  112a67:	8b 45 fc             	mov    0xfffffffc(%ebp),%eax
  112a6a:	8b 80 0c 01 00 00    	mov    0x10c(%eax),%eax
  112a70:	69 c0 28 01 00 00    	imul   $0x128,%eax,%eax
  112a76:	8b 80 74 d9 11 00    	mov    0x11d974(%eax),%eax
  112a7c:	83 f8 05             	cmp    $0x5,%eax
  112a7f:	74 24                	je     0x112aa5
  112a81:	c7 44 24 0c bc 00 00 	movl   $0xbc,0xc(%esp)
  112a88:	00 
  112a89:	c7 44 24 08 44 88 11 	movl   $0x118844,0x8(%esp)
  112a90:	00 
  112a91:	c7 44 24 04 44 88 11 	movl   $0x118844,0x4(%esp)
  112a98:	00 
  112a99:	c7 04 24 b8 89 11 00 	movl   $0x1189b8,(%esp)
  112aa0:	e8 6f f9 ff ff       	call   0x112414
  112aa5:	8b 45 fc             	mov    0xfffffffc(%ebp),%eax
  112aa8:	8b 80 0c 01 00 00    	mov    0x10c(%eax),%eax
  112aae:	69 c0 28 01 00 00    	imul   $0x128,%eax,%eax
  112ab4:	c7 80 64 d9 11 00 02 	movl   $0x2,0x11d964(%eax)
  112abb:	00 00 00 
  112abe:	c7 45 b4 fb ff ff ff 	movl   $0xfffffffb,0xffffffb4(%ebp)
  112ac5:	8b 45 08             	mov    0x8(%ebp),%eax
  112ac8:	89 45 b8             	mov    %eax,0xffffffb8(%ebp)
  112acb:	8b 45 fc             	mov    0xfffffffc(%ebp),%eax
  112ace:	8b 90 0c 01 00 00    	mov    0x10c(%eax),%edx
  112ad4:	8d 45 ac             	lea    0xffffffac(%ebp),%eax
  112ad7:	89 44 24 08          	mov    %eax,0x8(%esp)
  112adb:	89 54 24 04          	mov    %edx,0x4(%esp)
  112adf:	c7 04 24 00 00 00 00 	movl   $0x0,(%esp)
  112ae6:	e8 28 1f 00 00       	call   0x114a13
  112aeb:	85 c0                	test   %eax,%eax
  112aed:	74 24                	je     0x112b13
  112aef:	c7 44 24 0c c1 00 00 	movl   $0xc1,0xc(%esp)
  112af6:	00 
  112af7:	c7 44 24 08 44 88 11 	movl   $0x118844,0x8(%esp)
  112afe:	00 
  112aff:	c7 44 24 04 44 88 11 	movl   $0x118844,0x4(%esp)
  112b06:	00 
  112b07:	c7 04 24 ec 89 11 00 	movl   $0x1189ec,(%esp)
  112b0e:	e8 01 f9 ff ff       	call   0x112414
  112b13:	8b 45 fc             	mov    0xfffffffc(%ebp),%eax
  112b16:	c7 40 60 01 00 00 00 	movl   $0x1,0x60(%eax)
  112b1d:	eb 16                	jmp    0x112b35
  112b1f:	8b 45 fc             	mov    0xfffffffc(%ebp),%eax
  112b22:	c7 40 64 05 00 00 00 	movl   $0x5,0x64(%eax)
  112b29:	8b 55 fc             	mov    0xfffffffc(%ebp),%edx
  112b2c:	8b 45 0c             	mov    0xc(%ebp),%eax
  112b2f:	89 82 24 01 00 00    	mov    %eax,0x124(%edx)
  112b35:	8b 45 08             	mov    0x8(%ebp),%eax
  112b38:	89 04 24             	mov    %eax,(%esp)
  112b3b:	e8 05 fb ff ff       	call   0x112645
  112b40:	c7 45 dc fd ff ff ff 	movl   $0xfffffffd,0xffffffdc(%ebp)
  112b47:	c7 45 e0 07 00 00 00 	movl   $0x7,0xffffffe0(%ebp)
  112b4e:	8b 45 08             	mov    0x8(%ebp),%eax
  112b51:	89 45 e8             	mov    %eax,0xffffffe8(%ebp)
  112b54:	8d 45 d4             	lea    0xffffffd4(%ebp),%eax
  112b57:	89 44 24 08          	mov    %eax,0x8(%esp)
  112b5b:	c7 44 24 04 03 00 00 	movl   $0x3,0x4(%esp)
  112b62:	00 
  112b63:	c7 04 24 02 00 00 00 	movl   $0x2,(%esp)
  112b6a:	e8 a4 1e 00 00       	call   0x114a13
  112b6f:	85 c0                	test   %eax,%eax
  112b71:	74 24                	je     0x112b97
  112b73:	c7 44 24 0c d2 00 00 	movl   $0xd2,0xc(%esp)
  112b7a:	00 
  112b7b:	c7 44 24 08 44 88 11 	movl   $0x118844,0x8(%esp)
  112b82:	00 
  112b83:	c7 44 24 04 44 88 11 	movl   $0x118844,0x4(%esp)
  112b8a:	00 
  112b8b:	c7 04 24 74 89 11 00 	movl   $0x118974,(%esp)
  112b92:	e8 7d f8 ff ff       	call   0x112414
  112b97:	c7 05 94 ac 11 00 01 	movl   $0x1,0x11ac94
  112b9e:	00 00 00 
  112ba1:	c9                   	leave  
  112ba2:	c3                   	ret    
  112ba3:	55                   	push   %ebp
  112ba4:	89 e5                	mov    %esp,%ebp
  112ba6:	83 ec 28             	sub    $0x28,%esp
  112ba9:	c7 45 fc 00 d9 11 00 	movl   $0x11d900,0xfffffffc(%ebp)
  112bb0:	eb 20                	jmp    0x112bd2
  112bb2:	8b 45 fc             	mov    0xfffffffc(%ebp),%eax
  112bb5:	8b 40 60             	mov    0x60(%eax),%eax
  112bb8:	83 f8 01             	cmp    $0x1,%eax
  112bbb:	74 0e                	je     0x112bcb
  112bbd:	8b 45 fc             	mov    0xfffffffc(%ebp),%eax
  112bc0:	8b 80 0c 01 00 00    	mov    0x10c(%eax),%eax
  112bc6:	3b 45 08             	cmp    0x8(%ebp),%eax
  112bc9:	74 11                	je     0x112bdc
  112bcb:	81 45 fc 28 01 00 00 	addl   $0x128,0xfffffffc(%ebp)
  112bd2:	b8 28 ff 11 00       	mov    $0x11ff28,%eax
  112bd7:	39 45 fc             	cmp    %eax,0xfffffffc(%ebp)
  112bda:	72 d6                	jb     0x112bb2
  112bdc:	b8 28 ff 11 00       	mov    $0x11ff28,%eax
  112be1:	39 45 fc             	cmp    %eax,0xfffffffc(%ebp)
  112be4:	72 0c                	jb     0x112bf2
  112be6:	c7 45 ec ff ff ff ff 	movl   $0xffffffff,0xffffffec(%ebp)
  112bed:	e9 ce 00 00 00       	jmp    0x112cc0
  112bf2:	c7 45 fc 00 d9 11 00 	movl   $0x11d900,0xfffffffc(%ebp)
  112bf9:	eb 2b                	jmp    0x112c26
  112bfb:	8b 45 fc             	mov    0xfffffffc(%ebp),%eax
  112bfe:	8b 40 60             	mov    0x60(%eax),%eax
  112c01:	83 f8 01             	cmp    $0x1,%eax
  112c04:	74 19                	je     0x112c1f
  112c06:	8b 45 fc             	mov    0xfffffffc(%ebp),%eax
  112c09:	8b 80 0c 01 00 00    	mov    0x10c(%eax),%eax
  112c0f:	3b 45 08             	cmp    0x8(%ebp),%eax
  112c12:	75 0b                	jne    0x112c1f
  112c14:	8b 45 fc             	mov    0xfffffffc(%ebp),%eax
  112c17:	8b 40 64             	mov    0x64(%eax),%eax
  112c1a:	83 f8 05             	cmp    $0x5,%eax
  112c1d:	74 11                	je     0x112c30
  112c1f:	81 45 fc 28 01 00 00 	addl   $0x128,0xfffffffc(%ebp)
  112c26:	b8 28 ff 11 00       	mov    $0x11ff28,%eax
  112c2b:	39 45 fc             	cmp    %eax,0xfffffffc(%ebp)
  112c2e:	72 cb                	jb     0x112bfb
  112c30:	b8 28 ff 11 00       	mov    $0x11ff28,%eax
  112c35:	39 45 fc             	cmp    %eax,0xfffffffc(%ebp)
  112c38:	72 31                	jb     0x112c6b
  112c3a:	8b 45 08             	mov    0x8(%ebp),%eax
  112c3d:	69 c0 28 01 00 00    	imul   $0x128,%eax,%eax
  112c43:	c7 80 64 d9 11 00 04 	movl   $0x4,0x11d964(%eax)
  112c4a:	00 00 00 
  112c4d:	8b 45 08             	mov    0x8(%ebp),%eax
  112c50:	69 d0 28 01 00 00    	imul   $0x128,%eax,%edx
  112c56:	8b 45 0c             	mov    0xc(%ebp),%eax
  112c59:	89 82 20 da 11 00    	mov    %eax,0x11da20(%edx)
  112c5f:	c7 05 94 ac 11 00 01 	movl   $0x1,0x11ac94
  112c66:	00 00 00 
  112c69:	eb 4f                	jmp    0x112cba
  112c6b:	8b 55 fc             	mov    0xfffffffc(%ebp),%edx
  112c6e:	b8 00 d9 11 00       	mov    $0x11d900,%eax
  112c73:	89 d1                	mov    %edx,%ecx
  112c75:	29 c1                	sub    %eax,%ecx
  112c77:	89 c8                	mov    %ecx,%eax
  112c79:	c1 f8 03             	sar    $0x3,%eax
  112c7c:	69 c0 ad 1b 4c 91    	imul   $0x914c1bad,%eax,%eax
  112c82:	89 45 f8             	mov    %eax,0xfffffff8(%ebp)
  112c85:	8b 45 08             	mov    0x8(%ebp),%eax
  112c88:	69 c0 28 01 00 00    	imul   $0x128,%eax,%eax
  112c8e:	8d 90 00 d9 11 00    	lea    0x11d900(%eax),%edx
  112c94:	8b 45 0c             	mov    0xc(%ebp),%eax
  112c97:	89 44 24 04          	mov    %eax,0x4(%esp)
  112c9b:	89 14 24             	mov    %edx,(%esp)
  112c9e:	e8 ea 09 00 00       	call   0x11368d
  112ca3:	89 c2                	mov    %eax,%edx
  112ca5:	8b 45 fc             	mov    0xfffffffc(%ebp),%eax
  112ca8:	8b 80 24 01 00 00    	mov    0x124(%eax),%eax
  112cae:	89 02                	mov    %eax,(%edx)
  112cb0:	8b 45 fc             	mov    0xfffffffc(%ebp),%eax
  112cb3:	c7 40 60 01 00 00 00 	movl   $0x1,0x60(%eax)
  112cba:	8b 45 f8             	mov    0xfffffff8(%ebp),%eax
  112cbd:	89 45 ec             	mov    %eax,0xffffffec(%ebp)
  112cc0:	8b 45 ec             	mov    0xffffffec(%ebp),%eax
  112cc3:	c9                   	leave  
  112cc4:	c3                   	ret    
  112cc5:	55                   	push   %ebp
  112cc6:	89 e5                	mov    %esp,%ebp
  112cc8:	53                   	push   %ebx
  112cc9:	81 ec 24 02 00 00    	sub    $0x224,%esp
  112ccf:	c7 44 24 04 00 00 00 	movl   $0x0,0x4(%esp)
  112cd6:	00 
  112cd7:	8b 45 0c             	mov    0xc(%ebp),%eax
  112cda:	89 04 24             	mov    %eax,(%esp)
  112cdd:	e8 a9 f4 ff ff       	call   0x11218b
  112ce2:	89 45 ec             	mov    %eax,0xffffffec(%ebp)
  112ce5:	83 7d ec ff          	cmpl   $0xffffffff,0xffffffec(%ebp)
  112ce9:	75 0f                	jne    0x112cfa
  112ceb:	c7 85 e8 fd ff ff ff 	movl   $0xffffffff,0xfffffde8(%ebp)
  112cf2:	ff ff ff 
  112cf5:	e9 05 01 00 00       	jmp    0x112dff
  112cfa:	c7 44 24 0c 00 02 00 	movl   $0x200,0xc(%esp)
  112d01:	00 
  112d02:	c7 44 24 08 00 00 00 	movl   $0x0,0x8(%esp)
  112d09:	00 
  112d0a:	8d 85 ec fd ff ff    	lea    0xfffffdec(%ebp),%eax
  112d10:	89 44 24 04          	mov    %eax,0x4(%esp)
  112d14:	8b 45 ec             	mov    0xffffffec(%ebp),%eax
  112d17:	89 04 24             	mov    %eax,(%esp)
  112d1a:	e8 48 f5 ff ff       	call   0x112267
  112d1f:	8d 85 ec fd ff ff    	lea    0xfffffdec(%ebp),%eax
  112d25:	89 45 f0             	mov    %eax,0xfffffff0(%ebp)
  112d28:	8d 85 ec fd ff ff    	lea    0xfffffdec(%ebp),%eax
  112d2e:	89 c2                	mov    %eax,%edx
  112d30:	8b 45 f0             	mov    0xfffffff0(%ebp),%eax
  112d33:	8b 40 1c             	mov    0x1c(%eax),%eax
  112d36:	8d 04 02             	lea    (%edx,%eax,1),%eax
  112d39:	89 45 f4             	mov    %eax,0xfffffff4(%ebp)
  112d3c:	8b 45 f0             	mov    0xfffffff0(%ebp),%eax
  112d3f:	0f b7 40 2c          	movzwl 0x2c(%eax),%eax
  112d43:	0f b7 c0             	movzwl %ax,%eax
  112d46:	89 45 f8             	mov    %eax,0xfffffff8(%ebp)
  112d49:	e9 89 00 00 00       	jmp    0x112dd7
  112d4e:	8b 45 f4             	mov    0xfffffff4(%ebp),%eax
  112d51:	8b 40 04             	mov    0x4(%eax),%eax
  112d54:	c7 44 24 08 00 00 00 	movl   $0x0,0x8(%esp)
  112d5b:	00 
  112d5c:	89 44 24 04          	mov    %eax,0x4(%esp)
  112d60:	8b 45 ec             	mov    0xffffffec(%ebp),%eax
  112d63:	89 04 24             	mov    %eax,(%esp)
  112d66:	e8 3a f6 ff ff       	call   0x1123a5
  112d6b:	8b 45 f4             	mov    0xfffffff4(%ebp),%eax
  112d6e:	8b 40 10             	mov    0x10(%eax),%eax
  112d71:	89 c3                	mov    %eax,%ebx
  112d73:	8b 45 f4             	mov    0xfffffff4(%ebp),%eax
  112d76:	8b 40 0c             	mov    0xc(%eax),%eax
  112d79:	89 44 24 04          	mov    %eax,0x4(%esp)
  112d7d:	8b 45 08             	mov    0x8(%ebp),%eax
  112d80:	89 04 24             	mov    %eax,(%esp)
  112d83:	e8 05 09 00 00       	call   0x11368d
  112d88:	89 5c 24 0c          	mov    %ebx,0xc(%esp)
  112d8c:	c7 44 24 08 00 00 00 	movl   $0x0,0x8(%esp)
  112d93:	00 
  112d94:	89 44 24 04          	mov    %eax,0x4(%esp)
  112d98:	8b 45 ec             	mov    0xffffffec(%ebp),%eax
  112d9b:	89 04 24             	mov    %eax,(%esp)
  112d9e:	e8 c4 f4 ff ff       	call   0x112267
  112da3:	89 c2                	mov    %eax,%edx
  112da5:	8b 45 f4             	mov    0xfffffff4(%ebp),%eax
  112da8:	8b 40 10             	mov    0x10(%eax),%eax
  112dab:	39 c2                	cmp    %eax,%edx
  112dad:	74 24                	je     0x112dd3
  112daf:	c7 44 24 0c 1b 01 00 	movl   $0x11b,0xc(%esp)
  112db6:	00 
  112db7:	c7 44 24 08 44 88 11 	movl   $0x118844,0x8(%esp)
  112dbe:	00 
  112dbf:	c7 44 24 04 44 88 11 	movl   $0x118844,0x4(%esp)
  112dc6:	00 
  112dc7:	c7 04 24 14 8a 11 00 	movl   $0x118a14,(%esp)
  112dce:	e8 41 f6 ff ff       	call   0x112414
  112dd3:	83 45 f4 20          	addl   $0x20,0xfffffff4(%ebp)
  112dd7:	83 7d f8 00          	cmpl   $0x0,0xfffffff8(%ebp)
  112ddb:	0f 9f c0             	setg   %al
  112dde:	83 6d f8 01          	subl   $0x1,0xfffffff8(%ebp)
  112de2:	84 c0                	test   %al,%al
  112de4:	0f 85 64 ff ff ff    	jne    0x112d4e
  112dea:	8b 45 ec             	mov    0xffffffec(%ebp),%eax
  112ded:	89 04 24             	mov    %eax,(%esp)
  112df0:	e8 e6 f4 ff ff       	call   0x1122db
  112df5:	c7 85 e8 fd ff ff 00 	movl   $0x0,0xfffffde8(%ebp)
  112dfc:	00 00 00 
  112dff:	8b 85 e8 fd ff ff    	mov    0xfffffde8(%ebp),%eax
  112e05:	81 c4 24 02 00 00    	add    $0x224,%esp
  112e0b:	5b                   	pop    %ebx
  112e0c:	5d                   	pop    %ebp
  112e0d:	c3                   	ret    
  112e0e:	55                   	push   %ebp
  112e0f:	89 e5                	mov    %esp,%ebp
  112e11:	83 ec 18             	sub    $0x18,%esp
  112e14:	e8 f9 04 00 00       	call   0x113312
  112e19:	8b 45 08             	mov    0x8(%ebp),%eax
  112e1c:	c7 40 30 00 00 11 00 	movl   $0x110000,0x30(%eax)
  112e23:	8b 45 08             	mov    0x8(%ebp),%eax
  112e26:	c7 40 3c 00 00 13 00 	movl   $0x130000,0x3c(%eax)
  112e2d:	8b 45 08             	mov    0x8(%ebp),%eax
  112e30:	c7 40 64 00 00 00 00 	movl   $0x0,0x64(%eax)
  112e37:	8b 45 08             	mov    0x8(%ebp),%eax
  112e3a:	c6 40 68 00          	movb   $0x0,0x68(%eax)
  112e3e:	8b 45 08             	mov    0x8(%ebp),%eax
  112e41:	c7 40 6c 00 00 00 00 	movl   $0x0,0x6c(%eax)
  112e48:	8b 45 08             	mov    0x8(%ebp),%eax
  112e4b:	c7 40 70 00 00 00 00 	movl   $0x0,0x70(%eax)
  112e52:	8b 45 08             	mov    0x8(%ebp),%eax
  112e55:	c7 40 74 00 00 00 00 	movl   $0x0,0x74(%eax)
  112e5c:	8b 45 08             	mov    0x8(%ebp),%eax
  112e5f:	c7 40 78 00 00 00 00 	movl   $0x0,0x78(%eax)
  112e66:	8b 45 08             	mov    0x8(%ebp),%eax
  112e69:	c7 40 7c 00 00 00 00 	movl   $0x0,0x7c(%eax)
  112e70:	c7 45 fc 00 00 00 00 	movl   $0x0,0xfffffffc(%ebp)
  112e77:	eb 15                	jmp    0x112e8e
  112e79:	8b 55 fc             	mov    0xfffffffc(%ebp),%edx
  112e7c:	8b 45 08             	mov    0x8(%ebp),%eax
  112e7f:	c7 84 90 80 00 00 00 	movl   $0x0,0x80(%eax,%edx,4)
  112e86:	00 00 00 00 
  112e8a:	83 45 fc 01          	addl   $0x1,0xfffffffc(%ebp)
  112e8e:	83 7d fc 1f          	cmpl   $0x1f,0xfffffffc(%ebp)
  112e92:	7e e5                	jle    0x112e79
  112e94:	8b 45 08             	mov    0x8(%ebp),%eax
  112e97:	8b 90 00 01 00 00    	mov    0x100(%eax),%edx
  112e9d:	8b 45 08             	mov    0x8(%ebp),%eax
  112ea0:	89 90 04 01 00 00    	mov    %edx,0x104(%eax)
  112ea6:	8b 45 08             	mov    0x8(%ebp),%eax
  112ea9:	c7 80 08 01 00 00 00 	movl   $0x0,0x108(%eax)
  112eb0:	00 00 00 
  112eb3:	8b 45 08             	mov    0x8(%ebp),%eax
  112eb6:	8b 40 3c             	mov    0x3c(%eax),%eax
  112eb9:	8d 50 fc             	lea    0xfffffffc(%eax),%edx
  112ebc:	8b 45 08             	mov    0x8(%ebp),%eax
  112ebf:	89 50 3c             	mov    %edx,0x3c(%eax)
  112ec2:	8b 45 08             	mov    0x8(%ebp),%eax
  112ec5:	8b 40 3c             	mov    0x3c(%eax),%eax
  112ec8:	89 44 24 04          	mov    %eax,0x4(%esp)
  112ecc:	8b 45 08             	mov    0x8(%ebp),%eax
  112ecf:	89 04 24             	mov    %eax,(%esp)
  112ed2:	e8 b6 07 00 00       	call   0x11368d
  112ed7:	89 c2                	mov    %eax,%edx
  112ed9:	8b 45 10             	mov    0x10(%ebp),%eax
  112edc:	89 02                	mov    %eax,(%edx)
  112ede:	8b 45 08             	mov    0x8(%ebp),%eax
  112ee1:	8b 40 3c             	mov    0x3c(%eax),%eax
  112ee4:	8d 50 fc             	lea    0xfffffffc(%eax),%edx
  112ee7:	8b 45 08             	mov    0x8(%ebp),%eax
  112eea:	89 50 3c             	mov    %edx,0x3c(%eax)
  112eed:	8b 45 08             	mov    0x8(%ebp),%eax
  112ef0:	8b 40 3c             	mov    0x3c(%eax),%eax
  112ef3:	89 44 24 04          	mov    %eax,0x4(%esp)
  112ef7:	8b 45 08             	mov    0x8(%ebp),%eax
  112efa:	89 04 24             	mov    %eax,(%esp)
  112efd:	e8 8b 07 00 00       	call   0x11368d
  112f02:	89 c2                	mov    %eax,%edx
  112f04:	8b 45 0c             	mov    0xc(%ebp),%eax
  112f07:	89 02                	mov    %eax,(%edx)
  112f09:	e8 fa 03 00 00       	call   0x113308
  112f0e:	b8 00 00 00 00       	mov    $0x0,%eax
  112f13:	c9                   	leave  
  112f14:	c3                   	ret    
  112f15:	55                   	push   %ebp
  112f16:	89 e5                	mov    %esp,%ebp
  112f18:	53                   	push   %ebx
  112f19:	83 ec 44             	sub    $0x44,%esp
  112f1c:	8b 45 08             	mov    0x8(%ebp),%eax
  112f1f:	8b 00                	mov    (%eax),%eax
  112f21:	69 c0 28 01 00 00    	imul   $0x128,%eax,%eax
  112f27:	05 00 d9 11 00       	add    $0x11d900,%eax
  112f2c:	89 45 d8             	mov    %eax,0xffffffd8(%ebp)
  112f2f:	8b 45 08             	mov    0x8(%ebp),%eax
  112f32:	8b 40 1c             	mov    0x1c(%eax),%eax
  112f35:	89 45 dc             	mov    %eax,0xffffffdc(%ebp)
  112f38:	8b 45 08             	mov    0x8(%ebp),%eax
  112f3b:	8b 40 20             	mov    0x20(%eax),%eax
  112f3e:	89 45 e0             	mov    %eax,0xffffffe0(%ebp)
  112f41:	8b 45 08             	mov    0x8(%ebp),%eax
  112f44:	8b 40 18             	mov    0x18(%eax),%eax
  112f47:	89 44 24 04          	mov    %eax,0x4(%esp)
  112f4b:	8b 45 d8             	mov    0xffffffd8(%ebp),%eax
  112f4e:	89 04 24             	mov    %eax,(%esp)
  112f51:	e8 37 07 00 00       	call   0x11368d
  112f56:	89 c3                	mov    %eax,%ebx
  112f58:	ba c8 de 11 00       	mov    $0x11dec8,%edx
  112f5d:	8d 45 cc             	lea    0xffffffcc(%ebp),%eax
  112f60:	89 44 24 04          	mov    %eax,0x4(%esp)
  112f64:	89 14 24             	mov    %edx,(%esp)
  112f67:	e8 21 07 00 00       	call   0x11368d
  112f6c:	c7 44 24 08 0c 00 00 	movl   $0xc,0x8(%esp)
  112f73:	00 
  112f74:	89 5c 24 04          	mov    %ebx,0x4(%esp)
  112f78:	89 04 24             	mov    %eax,(%esp)
  112f7b:	e8 40 04 00 00       	call   0x1133c0
  112f80:	c7 45 e8 00 00 1e 00 	movl   $0x1e0000,0xffffffe8(%ebp)
  112f87:	c7 45 ec 00 00 1f 00 	movl   $0x1f0000,0xffffffec(%ebp)
  112f8e:	8b 45 e0             	mov    0xffffffe0(%ebp),%eax
  112f91:	89 44 24 04          	mov    %eax,0x4(%esp)
  112f95:	8b 45 d8             	mov    0xffffffd8(%ebp),%eax
  112f98:	89 04 24             	mov    %eax,(%esp)
  112f9b:	e8 ed 06 00 00       	call   0x11368d
  112fa0:	89 45 e0             	mov    %eax,0xffffffe0(%ebp)
  112fa3:	c7 45 e4 00 00 00 00 	movl   $0x0,0xffffffe4(%ebp)
  112faa:	e9 8c 00 00 00       	jmp    0x11303b
  112faf:	8b 45 ec             	mov    0xffffffec(%ebp),%eax
  112fb2:	89 44 24 04          	mov    %eax,0x4(%esp)
  112fb6:	8b 45 d8             	mov    0xffffffd8(%ebp),%eax
  112fb9:	89 04 24             	mov    %eax,(%esp)
  112fbc:	e8 cc 06 00 00       	call   0x11368d
  112fc1:	89 45 f0             	mov    %eax,0xfffffff0(%ebp)
  112fc4:	8b 45 e4             	mov    0xffffffe4(%ebp),%eax
  112fc7:	c1 e0 02             	shl    $0x2,%eax
  112fca:	03 45 e0             	add    0xffffffe0(%ebp),%eax
  112fcd:	8b 00                	mov    (%eax),%eax
  112fcf:	89 44 24 04          	mov    %eax,0x4(%esp)
  112fd3:	8b 45 d8             	mov    0xffffffd8(%ebp),%eax
  112fd6:	89 04 24             	mov    %eax,(%esp)
  112fd9:	e8 af 06 00 00       	call   0x11368d
  112fde:	89 45 f4             	mov    %eax,0xfffffff4(%ebp)
  112fe1:	8b 45 f4             	mov    0xfffffff4(%ebp),%eax
  112fe4:	89 04 24             	mov    %eax,(%esp)
  112fe7:	e8 38 03 00 00       	call   0x113324
  112fec:	89 45 f8             	mov    %eax,0xfffffff8(%ebp)
  112fef:	8b 45 f8             	mov    0xfffffff8(%ebp),%eax
  112ff2:	83 c0 01             	add    $0x1,%eax
  112ff5:	89 44 24 08          	mov    %eax,0x8(%esp)
  112ff9:	8b 45 f4             	mov    0xfffffff4(%ebp),%eax
  112ffc:	89 44 24 04          	mov    %eax,0x4(%esp)
  113000:	8b 45 f0             	mov    0xfffffff0(%ebp),%eax
  113003:	89 04 24             	mov    %eax,(%esp)
  113006:	e8 b5 03 00 00       	call   0x1133c0
  11300b:	8b 45 e8             	mov    0xffffffe8(%ebp),%eax
  11300e:	83 45 e8 04          	addl   $0x4,0xffffffe8(%ebp)
  113012:	89 44 24 04          	mov    %eax,0x4(%esp)
  113016:	8b 45 d8             	mov    0xffffffd8(%ebp),%eax
  113019:	89 04 24             	mov    %eax,(%esp)
  11301c:	e8 6c 06 00 00       	call   0x11368d
  113021:	89 c2                	mov    %eax,%edx
  113023:	8b 45 ec             	mov    0xffffffec(%ebp),%eax
  113026:	89 02                	mov    %eax,(%edx)
  113028:	8b 55 ec             	mov    0xffffffec(%ebp),%edx
  11302b:	83 c2 01             	add    $0x1,%edx
  11302e:	8b 45 f8             	mov    0xfffffff8(%ebp),%eax
  113031:	8d 04 02             	lea    (%edx,%eax,1),%eax
  113034:	89 45 ec             	mov    %eax,0xffffffec(%ebp)
  113037:	83 45 e4 01          	addl   $0x1,0xffffffe4(%ebp)
  11303b:	8b 45 e4             	mov    0xffffffe4(%ebp),%eax
  11303e:	3b 45 dc             	cmp    0xffffffdc(%ebp),%eax
  113041:	0f 8c 68 ff ff ff    	jl     0x112faf
  113047:	8d 45 cc             	lea    0xffffffcc(%ebp),%eax
  11304a:	89 44 24 04          	mov    %eax,0x4(%esp)
  11304e:	8b 45 d8             	mov    0xffffffd8(%ebp),%eax
  113051:	89 04 24             	mov    %eax,(%esp)
  113054:	e8 6c fc ff ff       	call   0x112cc5
  113059:	83 f8 ff             	cmp    $0xffffffff,%eax
  11305c:	75 09                	jne    0x113067
  11305e:	c7 45 c8 ff ff ff ff 	movl   $0xffffffff,0xffffffc8(%ebp)
  113065:	eb 3f                	jmp    0x1130a6
  113067:	c7 45 e8 00 00 1e 00 	movl   $0x1e0000,0xffffffe8(%ebp)
  11306e:	8b 45 e8             	mov    0xffffffe8(%ebp),%eax
  113071:	89 44 24 08          	mov    %eax,0x8(%esp)
  113075:	8b 45 dc             	mov    0xffffffdc(%ebp),%eax
  113078:	89 44 24 04          	mov    %eax,0x4(%esp)
  11307c:	8b 45 d8             	mov    0xffffffd8(%ebp),%eax
  11307f:	89 04 24             	mov    %eax,(%esp)
  113082:	e8 87 fd ff ff       	call   0x112e0e
  113087:	83 f8 ff             	cmp    $0xffffffff,%eax
  11308a:	75 09                	jne    0x113095
  11308c:	c7 45 c8 ff ff ff ff 	movl   $0xffffffff,0xffffffc8(%ebp)
  113093:	eb 11                	jmp    0x1130a6
  113095:	c7 05 94 ac 11 00 01 	movl   $0x1,0x11ac94
  11309c:	00 00 00 
  11309f:	c7 45 c8 00 00 00 00 	movl   $0x0,0xffffffc8(%ebp)
  1130a6:	8b 45 c8             	mov    0xffffffc8(%ebp),%eax
  1130a9:	83 c4 44             	add    $0x44,%esp
  1130ac:	5b                   	pop    %ebx
  1130ad:	5d                   	pop    %ebp
  1130ae:	c3                   	ret    
  1130af:	55                   	push   %ebp
  1130b0:	89 e5                	mov    %esp,%ebp
  1130b2:	83 ec 48             	sub    $0x48,%esp
  1130b5:	c7 45 e0 fb ff ff ff 	movl   $0xfffffffb,0xffffffe0(%ebp)
  1130bc:	c7 45 e4 01 00 00 00 	movl   $0x1,0xffffffe4(%ebp)
  1130c3:	8d 45 d8             	lea    0xffffffd8(%ebp),%eax
  1130c6:	89 44 24 08          	mov    %eax,0x8(%esp)
  1130ca:	c7 44 24 04 05 00 00 	movl   $0x5,0x4(%esp)
  1130d1:	00 
  1130d2:	c7 04 24 02 00 00 00 	movl   $0x2,(%esp)
  1130d9:	e8 35 19 00 00       	call   0x114a13
  1130de:	85 c0                	test   %eax,%eax
  1130e0:	74 24                	je     0x113106
  1130e2:	c7 44 24 0c 8c 01 00 	movl   $0x18c,0xc(%esp)
  1130e9:	00 
  1130ea:	c7 44 24 08 44 88 11 	movl   $0x118844,0x8(%esp)
  1130f1:	00 
  1130f2:	c7 44 24 04 44 88 11 	movl   $0x118844,0x4(%esp)
  1130f9:	00 
  1130fa:	c7 04 24 78 8a 11 00 	movl   $0x118a78,(%esp)
  113101:	e8 0e f3 ff ff       	call   0x112414
  113106:	8b 45 e4             	mov    0xffffffe4(%ebp),%eax
  113109:	c9                   	leave  
  11310a:	c3                   	ret    
  11310b:	55                   	push   %ebp
  11310c:	89 e5                	mov    %esp,%ebp
  11310e:	83 ec 48             	sub    $0x48,%esp
  113111:	c7 45 e0 fb ff ff ff 	movl   $0xfffffffb,0xffffffe0(%ebp)
  113118:	c7 45 e4 02 00 00 00 	movl   $0x2,0xffffffe4(%ebp)
  11311f:	8b 45 08             	mov    0x8(%ebp),%eax
  113122:	89 45 ec             	mov    %eax,0xffffffec(%ebp)
  113125:	8d 45 d8             	lea    0xffffffd8(%ebp),%eax
  113128:	89 44 24 08          	mov    %eax,0x8(%esp)
  11312c:	c7 44 24 04 05 00 00 	movl   $0x5,0x4(%esp)
  113133:	00 
  113134:	c7 04 24 02 00 00 00 	movl   $0x2,(%esp)
  11313b:	e8 d3 18 00 00       	call   0x114a13
  113140:	85 c0                	test   %eax,%eax
  113142:	74 24                	je     0x113168
  113144:	c7 44 24 0c 9a 01 00 	movl   $0x19a,0xc(%esp)
  11314b:	00 
  11314c:	c7 44 24 08 44 88 11 	movl   $0x118844,0x8(%esp)
  113153:	00 
  113154:	c7 44 24 04 44 88 11 	movl   $0x118844,0x4(%esp)
  11315b:	00 
  11315c:	c7 04 24 78 8a 11 00 	movl   $0x118a78,(%esp)
  113163:	e8 ac f2 ff ff       	call   0x112414
  113168:	c9                   	leave  
  113169:	c3                   	ret    
  11316a:	55                   	push   %ebp
  11316b:	89 e5                	mov    %esp,%ebp
  11316d:	83 ec 48             	sub    $0x48,%esp
  113170:	c7 45 e0 fb ff ff ff 	movl   $0xfffffffb,0xffffffe0(%ebp)
  113177:	c7 45 e4 03 00 00 00 	movl   $0x3,0xffffffe4(%ebp)
  11317e:	8b 45 08             	mov    0x8(%ebp),%eax
  113181:	89 45 e8             	mov    %eax,0xffffffe8(%ebp)
  113184:	8d 45 d8             	lea    0xffffffd8(%ebp),%eax
  113187:	89 44 24 08          	mov    %eax,0x8(%esp)
  11318b:	c7 44 24 04 05 00 00 	movl   $0x5,0x4(%esp)
  113192:	00 
  113193:	c7 04 24 02 00 00 00 	movl   $0x2,(%esp)
  11319a:	e8 74 18 00 00       	call   0x114a13
  11319f:	85 c0                	test   %eax,%eax
  1131a1:	74 24                	je     0x1131c7
  1131a3:	c7 44 24 0c a9 01 00 	movl   $0x1a9,0xc(%esp)
  1131aa:	00 
  1131ab:	c7 44 24 08 44 88 11 	movl   $0x118844,0x8(%esp)
  1131b2:	00 
  1131b3:	c7 44 24 04 44 88 11 	movl   $0x118844,0x4(%esp)
  1131ba:	00 
  1131bb:	c7 04 24 78 8a 11 00 	movl   $0x118a78,(%esp)
  1131c2:	e8 4d f2 ff ff       	call   0x112414
  1131c7:	8b 45 e4             	mov    0xffffffe4(%ebp),%eax
  1131ca:	c9                   	leave  
  1131cb:	c3                   	ret    
  1131cc:	55                   	push   %ebp
  1131cd:	89 e5                	mov    %esp,%ebp
  1131cf:	83 ec 48             	sub    $0x48,%esp
  1131d2:	c7 45 e0 fb ff ff ff 	movl   $0xfffffffb,0xffffffe0(%ebp)
  1131d9:	c7 45 e4 04 00 00 00 	movl   $0x4,0xffffffe4(%ebp)
  1131e0:	8b 45 08             	mov    0x8(%ebp),%eax
  1131e3:	89 45 f0             	mov    %eax,0xfffffff0(%ebp)
  1131e6:	8b 45 0c             	mov    0xc(%ebp),%eax
  1131e9:	89 45 f4             	mov    %eax,0xfffffff4(%ebp)
  1131ec:	8b 45 10             	mov    0x10(%ebp),%eax
  1131ef:	89 45 f8             	mov    %eax,0xfffffff8(%ebp)
  1131f2:	8d 45 d8             	lea    0xffffffd8(%ebp),%eax
  1131f5:	89 44 24 08          	mov    %eax,0x8(%esp)
  1131f9:	c7 44 24 04 05 00 00 	movl   $0x5,0x4(%esp)
  113200:	00 
  113201:	c7 04 24 02 00 00 00 	movl   $0x2,(%esp)
  113208:	e8 06 18 00 00       	call   0x114a13
  11320d:	85 c0                	test   %eax,%eax
  11320f:	74 24                	je     0x113235
  113211:	c7 44 24 0c bb 01 00 	movl   $0x1bb,0xc(%esp)
  113218:	00 
  113219:	c7 44 24 08 44 88 11 	movl   $0x118844,0x8(%esp)
  113220:	00 
  113221:	c7 44 24 04 44 88 11 	movl   $0x118844,0x4(%esp)
  113228:	00 
  113229:	c7 04 24 78 8a 11 00 	movl   $0x118a78,(%esp)
  113230:	e8 df f1 ff ff       	call   0x112414
  113235:	8b 45 e4             	mov    0xffffffe4(%ebp),%eax
  113238:	c9                   	leave  
  113239:	c3                   	ret    
  11323a:	90                   	nop    
  11323b:	90                   	nop    
  11323c:	90                   	nop    
  11323d:	90                   	nop    
  11323e:	90                   	nop    
  11323f:	90                   	nop    
  113240:	50                   	push   %eax
  113241:	8b 44 24 08          	mov    0x8(%esp),%eax
  113245:	57                   	push   %edi
  113246:	8b 38                	mov    (%eax),%edi
  113248:	89 f8                	mov    %edi,%eax
  11324a:	81 c7 fc 27 00 00    	add    $0x27fc,%edi
  113250:	65 c7 07 00 07 00 07 	movl   $0x7000700,%gs:(%edi)
  113257:	83 ef 04             	sub    $0x4,%edi
  11325a:	39 c7                	cmp    %eax,%edi
  11325c:	7d f2                	jge    0x113250
  11325e:	5f                   	pop    %edi
  11325f:	58                   	pop    %eax
  113260:	c3                   	ret    
  113261:	60                   	pusha  
  113262:	8b 4c 24 2c          	mov    0x2c(%esp),%ecx
  113266:	c1 e1 08             	shl    $0x8,%ecx
  113269:	8b 7c 24 28          	mov    0x28(%esp),%edi
  11326d:	8b 5c 24 24          	mov    0x24(%esp),%ebx
  113271:	be 00 00 00 00       	mov    $0x0,%esi
  113276:	8a 0c 33             	mov    (%ebx,%esi,1),%cl
  113279:	80 f9 00             	cmp    $0x0,%cl
  11327c:	74 2a                	je     0x1132a8
  11327e:	80 f9 0a             	cmp    $0xa,%cl
  113281:	75 1b                	jne    0x11329e
  113283:	81 c7 a0 00 00 00    	add    $0xa0,%edi
  113289:	89 f8                	mov    %edi,%eax
  11328b:	ba 00 00 00 00       	mov    $0x0,%edx
  113290:	bf a0 00 00 00       	mov    $0xa0,%edi
  113295:	f7 f7                	div    %edi
  113297:	f7 e7                	mul    %edi
  113299:	89 c7                	mov    %eax,%edi
  11329b:	46                   	inc    %esi
  11329c:	eb d8                	jmp    0x113276
  11329e:	65 66 89 0f          	mov    %cx,%gs:(%edi)
  1132a2:	83 c7 02             	add    $0x2,%edi
  1132a5:	46                   	inc    %esi
  1132a6:	eb ce                	jmp    0x113276
  1132a8:	89 7c 24 1c          	mov    %edi,0x1c(%esp)
  1132ac:	61                   	popa   
  1132ad:	c3                   	ret    
  1132ae:	8b 54 24 04          	mov    0x4(%esp),%edx
  1132b2:	8b 44 24 08          	mov    0x8(%esp),%eax
  1132b6:	ee                   	out    %al,(%dx)
  1132b7:	90                   	nop    
  1132b8:	90                   	nop    
  1132b9:	90                   	nop    
  1132ba:	90                   	nop    
  1132bb:	90                   	nop    
  1132bc:	c3                   	ret    
  1132bd:	8b 54 24 04          	mov    0x4(%esp),%edx
  1132c1:	31 c0                	xor    %eax,%eax
  1132c3:	ec                   	in     (%dx),%al
  1132c4:	90                   	nop    
  1132c5:	90                   	nop    
  1132c6:	90                   	nop    
  1132c7:	90                   	nop    
  1132c8:	90                   	nop    
  1132c9:	c3                   	ret    
  1132ca:	8b 54 24 04          	mov    0x4(%esp),%edx
  1132ce:	8b 44 24 08          	mov    0x8(%esp),%eax
  1132d2:	66 ef                	out    %ax,(%dx)
  1132d4:	90                   	nop    
  1132d5:	90                   	nop    
  1132d6:	90                   	nop    
  1132d7:	90                   	nop    
  1132d8:	90                   	nop    
  1132d9:	c3                   	ret    
  1132da:	8b 54 24 04          	mov    0x4(%esp),%edx
  1132de:	31 c0                	xor    %eax,%eax
  1132e0:	66 ed                	in     (%dx),%ax
  1132e2:	90                   	nop    
  1132e3:	90                   	nop    
  1132e4:	90                   	nop    
  1132e5:	90                   	nop    
  1132e6:	90                   	nop    
  1132e7:	c3                   	ret    
  1132e8:	8b 54 24 04          	mov    0x4(%esp),%edx
  1132ec:	8b 44 24 08          	mov    0x8(%esp),%eax
  1132f0:	ef                   	out    %eax,(%dx)
  1132f1:	90                   	nop    
  1132f2:	90                   	nop    
  1132f3:	90                   	nop    
  1132f4:	90                   	nop    
  1132f5:	90                   	nop    
  1132f6:	c3                   	ret    
  1132f7:	8b 54 24 04          	mov    0x4(%esp),%edx
  1132fb:	31 c0                	xor    %eax,%eax
  1132fd:	ed                   	in     (%dx),%eax
  1132fe:	90                   	nop    
  1132ff:	90                   	nop    
  113300:	90                   	nop    
  113301:	90                   	nop    
  113302:	90                   	nop    
  113303:	c3                   	ret    
  113304:	00 00                	add    %al,(%eax)
  113306:	00 00                	add    %al,(%eax)
  113308:	ff 0d 04 33 11 00    	decl   0x113304
  11330e:	75 01                	jne    0x113311
  113310:	fb                   	sti    
  113311:	c3                   	ret    
  113312:	fa                   	cli    
  113313:	ff 05 04 33 11 00    	incl   0x113304
  113319:	c3                   	ret    
  11331a:	9c                   	pushf  
  11331b:	8b 04 24             	mov    (%esp),%eax
  11331e:	83 c4 04             	add    $0x4,%esp
  113321:	c3                   	ret    
  113322:	90                   	nop    
  113323:	90                   	nop    
  113324:	55                   	push   %ebp
  113325:	89 e5                	mov    %esp,%ebp
  113327:	83 ec 10             	sub    $0x10,%esp
  11332a:	c7 45 fc 00 00 00 00 	movl   $0x0,0xfffffffc(%ebp)
  113331:	eb 04                	jmp    0x113337
  113333:	83 45 fc 01          	addl   $0x1,0xfffffffc(%ebp)
  113337:	8b 45 08             	mov    0x8(%ebp),%eax
  11333a:	0f b6 00             	movzbl (%eax),%eax
  11333d:	84 c0                	test   %al,%al
  11333f:	0f 95 c0             	setne  %al
  113342:	83 45 08 01          	addl   $0x1,0x8(%ebp)
  113346:	84 c0                	test   %al,%al
  113348:	75 e9                	jne    0x113333
  11334a:	8b 45 fc             	mov    0xfffffffc(%ebp),%eax
  11334d:	c9                   	leave  
  11334e:	c3                   	ret    
  11334f:	55                   	push   %ebp
  113350:	89 e5                	mov    %esp,%ebp
  113352:	8b 45 08             	mov    0x8(%ebp),%eax
  113355:	0f b6 10             	movzbl (%eax),%edx
  113358:	8b 45 0c             	mov    0xc(%ebp),%eax
  11335b:	0f b6 00             	movzbl (%eax),%eax
  11335e:	38 c2                	cmp    %al,%dl
  113360:	75 14                	jne    0x113376
  113362:	8b 45 08             	mov    0x8(%ebp),%eax
  113365:	0f b6 00             	movzbl (%eax),%eax
  113368:	84 c0                	test   %al,%al
  11336a:	74 0a                	je     0x113376
  11336c:	83 45 08 01          	addl   $0x1,0x8(%ebp)
  113370:	83 45 0c 01          	addl   $0x1,0xc(%ebp)
  113374:	eb dc                	jmp    0x113352
  113376:	8b 45 08             	mov    0x8(%ebp),%eax
  113379:	0f b6 00             	movzbl (%eax),%eax
  11337c:	0f be d0             	movsbl %al,%edx
  11337f:	8b 45 0c             	mov    0xc(%ebp),%eax
  113382:	0f b6 00             	movzbl (%eax),%eax
  113385:	0f be c0             	movsbl %al,%eax
  113388:	89 d1                	mov    %edx,%ecx
  11338a:	29 c1                	sub    %eax,%ecx
  11338c:	89 c8                	mov    %ecx,%eax
  11338e:	5d                   	pop    %ebp
  11338f:	c3                   	ret    
  113390:	55                   	push   %ebp
  113391:	89 e5                	mov    %esp,%ebp
  113393:	83 ec 14             	sub    $0x14,%esp
  113396:	8b 45 0c             	mov    0xc(%ebp),%eax
  113399:	88 45 ec             	mov    %al,0xffffffec(%ebp)
  11339c:	c7 45 fc 00 00 00 00 	movl   $0x0,0xfffffffc(%ebp)
  1133a3:	eb 11                	jmp    0x1133b6
  1133a5:	8b 55 08             	mov    0x8(%ebp),%edx
  1133a8:	0f b6 45 ec          	movzbl 0xffffffec(%ebp),%eax
  1133ac:	88 02                	mov    %al,(%edx)
  1133ae:	83 45 08 01          	addl   $0x1,0x8(%ebp)
  1133b2:	83 45 fc 01          	addl   $0x1,0xfffffffc(%ebp)
  1133b6:	8b 45 fc             	mov    0xfffffffc(%ebp),%eax
  1133b9:	3b 45 10             	cmp    0x10(%ebp),%eax
  1133bc:	7c e7                	jl     0x1133a5
  1133be:	c9                   	leave  
  1133bf:	c3                   	ret    
  1133c0:	55                   	push   %ebp
  1133c1:	89 e5                	mov    %esp,%ebp
  1133c3:	eb 13                	jmp    0x1133d8
  1133c5:	8b 45 0c             	mov    0xc(%ebp),%eax
  1133c8:	0f b6 10             	movzbl (%eax),%edx
  1133cb:	8b 45 08             	mov    0x8(%ebp),%eax
  1133ce:	88 10                	mov    %dl,(%eax)
  1133d0:	83 45 08 01          	addl   $0x1,0x8(%ebp)
  1133d4:	83 45 0c 01          	addl   $0x1,0xc(%ebp)
  1133d8:	83 7d 10 00          	cmpl   $0x0,0x10(%ebp)
  1133dc:	0f 9f c0             	setg   %al
  1133df:	83 6d 10 01          	subl   $0x1,0x10(%ebp)
  1133e3:	84 c0                	test   %al,%al
  1133e5:	75 de                	jne    0x1133c5
  1133e7:	5d                   	pop    %ebp
  1133e8:	c3                   	ret    
  1133e9:	55                   	push   %ebp
  1133ea:	89 e5                	mov    %esp,%ebp
  1133ec:	53                   	push   %ebx
  1133ed:	83 ec 3c             	sub    $0x3c,%esp
  1133f0:	c7 45 e8 00 00 00 00 	movl   $0x0,0xffffffe8(%ebp)
  1133f7:	eb 00                	jmp    0x1133f9
  1133f9:	8b 45 0c             	mov    0xc(%ebp),%eax
  1133fc:	0f b6 00             	movzbl (%eax),%eax
  1133ff:	84 c0                	test   %al,%al
  113401:	75 11                	jne    0x113414
  113403:	8b 45 08             	mov    0x8(%ebp),%eax
  113406:	c6 00 00             	movb   $0x0,(%eax)
  113409:	8b 45 e8             	mov    0xffffffe8(%ebp),%eax
  11340c:	89 45 d4             	mov    %eax,0xffffffd4(%ebp)
  11340f:	e9 70 02 00 00       	jmp    0x113684
  113414:	8b 45 0c             	mov    0xc(%ebp),%eax
  113417:	0f b6 00             	movzbl (%eax),%eax
  11341a:	3c 25                	cmp    $0x25,%al
  11341c:	74 19                	je     0x113437
  11341e:	8b 45 0c             	mov    0xc(%ebp),%eax
  113421:	0f b6 10             	movzbl (%eax),%edx
  113424:	8b 45 08             	mov    0x8(%ebp),%eax
  113427:	88 10                	mov    %dl,(%eax)
  113429:	83 45 08 01          	addl   $0x1,0x8(%ebp)
  11342d:	83 45 0c 01          	addl   $0x1,0xc(%ebp)
  113431:	83 45 e8 01          	addl   $0x1,0xffffffe8(%ebp)
  113435:	eb c2                	jmp    0x1133f9
  113437:	83 45 0c 01          	addl   $0x1,0xc(%ebp)
  11343b:	8b 45 0c             	mov    0xc(%ebp),%eax
  11343e:	0f b6 00             	movzbl (%eax),%eax
  113441:	0f be c0             	movsbl %al,%eax
  113444:	83 e8 43             	sub    $0x43,%eax
  113447:	89 45 d0             	mov    %eax,0xffffffd0(%ebp)
  11344a:	83 7d d0 35          	cmpl   $0x35,0xffffffd0(%ebp)
  11344e:	0f 87 0a 02 00 00    	ja     0x11365e
  113454:	8b 55 d0             	mov    0xffffffd0(%ebp),%edx
  113457:	8b 04 95 a0 8a 11 00 	mov    0x118aa0(,%edx,4),%eax
  11345e:	ff e0                	jmp    *%eax
  113460:	83 45 0c 01          	addl   $0x1,0xc(%ebp)
  113464:	8b 45 10             	mov    0x10(%ebp),%eax
  113467:	8b 00                	mov    (%eax),%eax
  113469:	89 04 24             	mov    %eax,(%esp)
  11346c:	e8 b3 fe ff ff       	call   0x113324
  113471:	89 45 ec             	mov    %eax,0xffffffec(%ebp)
  113474:	8b 45 10             	mov    0x10(%ebp),%eax
  113477:	8b 10                	mov    (%eax),%edx
  113479:	8b 45 ec             	mov    0xffffffec(%ebp),%eax
  11347c:	89 44 24 08          	mov    %eax,0x8(%esp)
  113480:	89 54 24 04          	mov    %edx,0x4(%esp)
  113484:	8b 45 08             	mov    0x8(%ebp),%eax
  113487:	89 04 24             	mov    %eax,(%esp)
  11348a:	e8 31 ff ff ff       	call   0x1133c0
  11348f:	8b 45 ec             	mov    0xffffffec(%ebp),%eax
  113492:	01 45 08             	add    %eax,0x8(%ebp)
  113495:	8b 45 ec             	mov    0xffffffec(%ebp),%eax
  113498:	01 45 e8             	add    %eax,0xffffffe8(%ebp)
  11349b:	8b 45 10             	mov    0x10(%ebp),%eax
  11349e:	83 c0 04             	add    $0x4,%eax
  1134a1:	89 45 10             	mov    %eax,0x10(%ebp)
  1134a4:	e9 50 ff ff ff       	jmp    0x1133f9
  1134a9:	83 45 0c 01          	addl   $0x1,0xc(%ebp)
  1134ad:	8b 45 10             	mov    0x10(%ebp),%eax
  1134b0:	0f b6 10             	movzbl (%eax),%edx
  1134b3:	8b 45 08             	mov    0x8(%ebp),%eax
  1134b6:	88 10                	mov    %dl,(%eax)
  1134b8:	83 45 08 01          	addl   $0x1,0x8(%ebp)
  1134bc:	83 45 e8 01          	addl   $0x1,0xffffffe8(%ebp)
  1134c0:	8b 45 10             	mov    0x10(%ebp),%eax
  1134c3:	83 c0 04             	add    $0x4,%eax
  1134c6:	89 45 10             	mov    %eax,0x10(%ebp)
  1134c9:	e9 2b ff ff ff       	jmp    0x1133f9
  1134ce:	83 45 0c 01          	addl   $0x1,0xc(%ebp)
  1134d2:	8b 45 08             	mov    0x8(%ebp),%eax
  1134d5:	c6 00 30             	movb   $0x30,(%eax)
  1134d8:	83 45 08 01          	addl   $0x1,0x8(%ebp)
  1134dc:	8b 45 08             	mov    0x8(%ebp),%eax
  1134df:	c6 00 78             	movb   $0x78,(%eax)
  1134e2:	83 45 08 01          	addl   $0x1,0x8(%ebp)
  1134e6:	c7 45 ec 1c 00 00 00 	movl   $0x1c,0xffffffec(%ebp)
  1134ed:	eb 39                	jmp    0x113528
  1134ef:	8b 45 10             	mov    0x10(%ebp),%eax
  1134f2:	8b 00                	mov    (%eax),%eax
  1134f4:	8b 4d ec             	mov    0xffffffec(%ebp),%ecx
  1134f7:	d3 f8                	sar    %cl,%eax
  1134f9:	83 e0 0f             	and    $0xf,%eax
  1134fc:	83 c0 30             	add    $0x30,%eax
  1134ff:	89 c2                	mov    %eax,%edx
  113501:	8b 45 08             	mov    0x8(%ebp),%eax
  113504:	88 10                	mov    %dl,(%eax)
  113506:	8b 45 08             	mov    0x8(%ebp),%eax
  113509:	0f b6 00             	movzbl (%eax),%eax
  11350c:	3c 39                	cmp    $0x39,%al
  11350e:	7e 10                	jle    0x113520
  113510:	8b 45 08             	mov    0x8(%ebp),%eax
  113513:	0f b6 00             	movzbl (%eax),%eax
  113516:	83 c0 07             	add    $0x7,%eax
  113519:	89 c2                	mov    %eax,%edx
  11351b:	8b 45 08             	mov    0x8(%ebp),%eax
  11351e:	88 10                	mov    %dl,(%eax)
  113520:	83 45 08 01          	addl   $0x1,0x8(%ebp)
  113524:	83 6d ec 04          	subl   $0x4,0xffffffec(%ebp)
  113528:	83 7d ec 00          	cmpl   $0x0,0xffffffec(%ebp)
  11352c:	79 c1                	jns    0x1134ef
  11352e:	83 45 e8 0a          	addl   $0xa,0xffffffe8(%ebp)
  113532:	8b 45 10             	mov    0x10(%ebp),%eax
  113535:	83 c0 04             	add    $0x4,%eax
  113538:	89 45 10             	mov    %eax,0x10(%ebp)
  11353b:	e9 b9 fe ff ff       	jmp    0x1133f9
  113540:	83 45 0c 01          	addl   $0x1,0xc(%ebp)
  113544:	c7 45 f0 00 00 00 00 	movl   $0x0,0xfffffff0(%ebp)
  11354b:	8b 45 10             	mov    0x10(%ebp),%eax
  11354e:	8b 00                	mov    (%eax),%eax
  113550:	89 45 f4             	mov    %eax,0xfffffff4(%ebp)
  113553:	c7 45 f8 00 00 00 00 	movl   $0x0,0xfffffff8(%ebp)
  11355a:	83 7d f4 00          	cmpl   $0x0,0xfffffff4(%ebp)
  11355e:	79 0d                	jns    0x11356d
  113560:	f7 5d f4             	negl   0xfffffff4(%ebp)
  113563:	8b 45 08             	mov    0x8(%ebp),%eax
  113566:	c6 00 2d             	movb   $0x2d,(%eax)
  113569:	83 45 08 01          	addl   $0x1,0x8(%ebp)
  11356d:	c7 45 ec 00 e1 f5 05 	movl   $0x5f5e100,0xffffffec(%ebp)
  113574:	e9 87 00 00 00       	jmp    0x113600
  113579:	8b 55 f4             	mov    0xfffffff4(%ebp),%edx
  11357c:	89 d0                	mov    %edx,%eax
  11357e:	c1 fa 1f             	sar    $0x1f,%edx
  113581:	f7 7d ec             	idivl  0xffffffec(%ebp)
  113584:	89 c1                	mov    %eax,%ecx
  113586:	c7 45 cc 67 66 66 66 	movl   $0x66666667,0xffffffcc(%ebp)
  11358d:	8b 45 cc             	mov    0xffffffcc(%ebp),%eax
  113590:	f7 e9                	imul   %ecx
  113592:	c1 fa 02             	sar    $0x2,%edx
  113595:	89 c8                	mov    %ecx,%eax
  113597:	c1 f8 1f             	sar    $0x1f,%eax
  11359a:	89 d3                	mov    %edx,%ebx
  11359c:	29 c3                	sub    %eax,%ebx
  11359e:	89 d8                	mov    %ebx,%eax
  1135a0:	89 45 f8             	mov    %eax,0xfffffff8(%ebp)
  1135a3:	8b 55 f8             	mov    0xfffffff8(%ebp),%edx
  1135a6:	89 d0                	mov    %edx,%eax
  1135a8:	c1 e0 02             	shl    $0x2,%eax
  1135ab:	01 d0                	add    %edx,%eax
  1135ad:	01 c0                	add    %eax,%eax
  1135af:	89 ca                	mov    %ecx,%edx
  1135b1:	29 c2                	sub    %eax,%edx
  1135b3:	89 d0                	mov    %edx,%eax
  1135b5:	89 45 f8             	mov    %eax,0xfffffff8(%ebp)
  1135b8:	83 7d f0 00          	cmpl   $0x0,0xfffffff0(%ebp)
  1135bc:	75 06                	jne    0x1135c4
  1135be:	83 7d f8 00          	cmpl   $0x0,0xfffffff8(%ebp)
  1135c2:	74 1c                	je     0x1135e0
  1135c4:	c7 45 f0 01 00 00 00 	movl   $0x1,0xfffffff0(%ebp)
  1135cb:	8b 45 f8             	mov    0xfffffff8(%ebp),%eax
  1135ce:	83 c0 30             	add    $0x30,%eax
  1135d1:	89 c2                	mov    %eax,%edx
  1135d3:	8b 45 08             	mov    0x8(%ebp),%eax
  1135d6:	88 10                	mov    %dl,(%eax)
  1135d8:	83 45 08 01          	addl   $0x1,0x8(%ebp)
  1135dc:	83 45 e8 01          	addl   $0x1,0xffffffe8(%ebp)
  1135e0:	8b 4d ec             	mov    0xffffffec(%ebp),%ecx
  1135e3:	c7 45 cc 67 66 66 66 	movl   $0x66666667,0xffffffcc(%ebp)
  1135ea:	8b 45 cc             	mov    0xffffffcc(%ebp),%eax
  1135ed:	f7 e9                	imul   %ecx
  1135ef:	c1 fa 02             	sar    $0x2,%edx
  1135f2:	89 c8                	mov    %ecx,%eax
  1135f4:	c1 f8 1f             	sar    $0x1f,%eax
  1135f7:	89 d1                	mov    %edx,%ecx
  1135f9:	29 c1                	sub    %eax,%ecx
  1135fb:	89 c8                	mov    %ecx,%eax
  1135fd:	89 45 ec             	mov    %eax,0xffffffec(%ebp)
  113600:	83 7d ec 09          	cmpl   $0x9,0xffffffec(%ebp)
  113604:	0f 8f 6f ff ff ff    	jg     0x113579
  11360a:	8b 4d f4             	mov    0xfffffff4(%ebp),%ecx
  11360d:	c7 45 cc 67 66 66 66 	movl   $0x66666667,0xffffffcc(%ebp)
  113614:	8b 45 cc             	mov    0xffffffcc(%ebp),%eax
  113617:	f7 e9                	imul   %ecx
  113619:	c1 fa 02             	sar    $0x2,%edx
  11361c:	89 c8                	mov    %ecx,%eax
  11361e:	c1 f8 1f             	sar    $0x1f,%eax
  113621:	89 d3                	mov    %edx,%ebx
  113623:	29 c3                	sub    %eax,%ebx
  113625:	89 5d d8             	mov    %ebx,0xffffffd8(%ebp)
  113628:	8b 45 d8             	mov    0xffffffd8(%ebp),%eax
  11362b:	c1 e0 02             	shl    $0x2,%eax
  11362e:	03 45 d8             	add    0xffffffd8(%ebp),%eax
  113631:	01 c0                	add    %eax,%eax
  113633:	89 ca                	mov    %ecx,%edx
  113635:	29 c2                	sub    %eax,%edx
  113637:	89 55 d8             	mov    %edx,0xffffffd8(%ebp)
  11363a:	0f b6 45 d8          	movzbl 0xffffffd8(%ebp),%eax
  11363e:	83 c0 30             	add    $0x30,%eax
  113641:	89 c2                	mov    %eax,%edx
  113643:	8b 45 08             	mov    0x8(%ebp),%eax
  113646:	88 10                	mov    %dl,(%eax)
  113648:	83 45 08 01          	addl   $0x1,0x8(%ebp)
  11364c:	83 45 e8 01          	addl   $0x1,0xffffffe8(%ebp)
  113650:	8b 45 10             	mov    0x10(%ebp),%eax
  113653:	83 c0 04             	add    $0x4,%eax
  113656:	89 45 10             	mov    %eax,0x10(%ebp)
  113659:	e9 9b fd ff ff       	jmp    0x1133f9
  11365e:	8b 45 08             	mov    0x8(%ebp),%eax
  113661:	c6 00 25             	movb   $0x25,(%eax)
  113664:	83 45 08 01          	addl   $0x1,0x8(%ebp)
  113668:	8b 45 0c             	mov    0xc(%ebp),%eax
  11366b:	0f b6 10             	movzbl (%eax),%edx
  11366e:	8b 45 08             	mov    0x8(%ebp),%eax
  113671:	88 10                	mov    %dl,(%eax)
  113673:	83 45 08 01          	addl   $0x1,0x8(%ebp)
  113677:	83 45 0c 01          	addl   $0x1,0xc(%ebp)
  11367b:	83 45 e8 02          	addl   $0x2,0xffffffe8(%ebp)
  11367f:	e9 75 fd ff ff       	jmp    0x1133f9
  113684:	8b 45 d4             	mov    0xffffffd4(%ebp),%eax
  113687:	83 c4 3c             	add    $0x3c,%esp
  11368a:	5b                   	pop    %ebx
  11368b:	5d                   	pop    %ebp
  11368c:	c3                   	ret    
  11368d:	55                   	push   %ebp
  11368e:	89 e5                	mov    %esp,%ebp
  113690:	83 ec 20             	sub    $0x20,%esp
  113693:	8b 45 0c             	mov    0xc(%ebp),%eax
  113696:	c1 e8 16             	shr    $0x16,%eax
  113699:	25 ff 03 00 00       	and    $0x3ff,%eax
  11369e:	89 45 ec             	mov    %eax,0xffffffec(%ebp)
  1136a1:	8b 45 0c             	mov    0xc(%ebp),%eax
  1136a4:	c1 e8 0c             	shr    $0xc,%eax
  1136a7:	25 ff 03 00 00       	and    $0x3ff,%eax
  1136ac:	89 45 f0             	mov    %eax,0xfffffff0(%ebp)
  1136af:	8b 45 0c             	mov    0xc(%ebp),%eax
  1136b2:	25 ff 0f 00 00       	and    $0xfff,%eax
  1136b7:	89 45 f4             	mov    %eax,0xfffffff4(%ebp)
  1136ba:	8b 45 08             	mov    0x8(%ebp),%eax
  1136bd:	8b 50 48             	mov    0x48(%eax),%edx
  1136c0:	8b 45 ec             	mov    0xffffffec(%ebp),%eax
  1136c3:	c1 e0 02             	shl    $0x2,%eax
  1136c6:	8d 04 02             	lea    (%edx,%eax,1),%eax
  1136c9:	8b 00                	mov    (%eax),%eax
  1136cb:	25 00 f0 ff ff       	and    $0xfffff000,%eax
  1136d0:	89 45 f8             	mov    %eax,0xfffffff8(%ebp)
  1136d3:	8b 45 f0             	mov    0xfffffff0(%ebp),%eax
  1136d6:	c1 e0 02             	shl    $0x2,%eax
  1136d9:	03 45 f8             	add    0xfffffff8(%ebp),%eax
  1136dc:	8b 00                	mov    (%eax),%eax
  1136de:	25 00 f0 ff ff       	and    $0xfffff000,%eax
  1136e3:	89 45 fc             	mov    %eax,0xfffffffc(%ebp)
  1136e6:	8b 45 fc             	mov    0xfffffffc(%ebp),%eax
  1136e9:	89 c2                	mov    %eax,%edx
  1136eb:	8b 45 f4             	mov    0xfffffff4(%ebp),%eax
  1136ee:	09 d0                	or     %edx,%eax
  1136f0:	c9                   	leave  
  1136f1:	c3                   	ret    
  1136f2:	90                   	nop    
  1136f3:	90                   	nop    
  1136f4:	55                   	push   %ebp
  1136f5:	89 e5                	mov    %esp,%ebp
  1136f7:	81 ec 28 01 00 00    	sub    $0x128,%esp
  1136fd:	8d 45 0c             	lea    0xc(%ebp),%eax
  113700:	89 85 fc fe ff ff    	mov    %eax,0xfffffefc(%ebp)
  113706:	8b 85 fc fe ff ff    	mov    0xfffffefc(%ebp),%eax
  11370c:	89 44 24 08          	mov    %eax,0x8(%esp)
  113710:	8b 45 08             	mov    0x8(%ebp),%eax
  113713:	89 44 24 04          	mov    %eax,0x4(%esp)
  113717:	8d 85 00 ff ff ff    	lea    0xffffff00(%ebp),%eax
  11371d:	89 04 24             	mov    %eax,(%esp)
  113720:	e8 c4 fc ff ff       	call   0x1133e9
  113725:	8d 85 00 ff ff ff    	lea    0xffffff00(%ebp),%eax
  11372b:	89 04 24             	mov    %eax,(%esp)
  11372e:	e8 81 00 00 00       	call   0x1137b4
  113733:	c9                   	leave  
  113734:	c3                   	ret    
  113735:	55                   	push   %ebp
  113736:	89 e5                	mov    %esp,%ebp
  113738:	81 ec 28 01 00 00    	sub    $0x128,%esp
  11373e:	8d 45 0c             	lea    0xc(%ebp),%eax
  113741:	89 85 fc fe ff ff    	mov    %eax,0xfffffefc(%ebp)
  113747:	8b 85 fc fe ff ff    	mov    0xfffffefc(%ebp),%eax
  11374d:	89 44 24 08          	mov    %eax,0x8(%esp)
  113751:	8b 45 08             	mov    0x8(%ebp),%eax
  113754:	89 44 24 04          	mov    %eax,0x4(%esp)
  113758:	8d 85 00 ff ff ff    	lea    0xffffff00(%ebp),%eax
  11375e:	89 04 24             	mov    %eax,(%esp)
  113761:	e8 83 fc ff ff       	call   0x1133e9
  113766:	c7 44 24 0c 00 00 00 	movl   $0x0,0xc(%esp)
  11376d:	00 
  11376e:	c7 44 24 08 00 00 00 	movl   $0x0,0x8(%esp)
  113775:	00 
  113776:	8d 85 00 ff ff ff    	lea    0xffffff00(%ebp),%eax
  11377c:	89 44 24 04          	mov    %eax,0x4(%esp)
  113780:	c7 04 24 01 00 00 00 	movl   $0x1,(%esp)
  113787:	e8 67 ea ff ff       	call   0x1121f3
  11378c:	83 f8 ff             	cmp    $0xffffffff,%eax
  11378f:	74 d5                	je     0x113766
  113791:	c9                   	leave  
  113792:	c3                   	ret    
  113793:	90                   	nop    
  113794:	90                   	nop    
  113795:	90                   	nop    
  113796:	90                   	nop    
  113797:	90                   	nop    
  113798:	90                   	nop    
  113799:	90                   	nop    
  11379a:	90                   	nop    
  11379b:	90                   	nop    
  11379c:	90                   	nop    
  11379d:	90                   	nop    
  11379e:	90                   	nop    
  11379f:	90                   	nop    
  1137a0:	b8 00 00 00 00       	mov    $0x0,%eax
  1137a5:	8b 5c 24 04          	mov    0x4(%esp),%ebx
  1137a9:	8b 4c 24 08          	mov    0x8(%esp),%ecx
  1137ad:	8b 54 24 0c          	mov    0xc(%esp),%edx
  1137b1:	cd 80                	int    $0x80
  1137b3:	c3                   	ret    
  1137b4:	b8 01 00 00 00       	mov    $0x1,%eax
  1137b9:	8b 5c 24 04          	mov    0x4(%esp),%ebx
  1137bd:	cd 80                	int    $0x80
  1137bf:	c3                   	ret    
  1137c0:	b8 02 00 00 00       	mov    $0x2,%eax
  1137c5:	8b 5c 24 04          	mov    0x4(%esp),%ebx
  1137c9:	cd 80                	int    $0x80
  1137cb:	c3                   	ret    
  1137cc:	55                   	push   %ebp
  1137cd:	89 e5                	mov    %esp,%ebp
  1137cf:	83 ec 58             	sub    $0x58,%esp
  1137d2:	e8 a4 03 00 00       	call   0x113b7b
  1137d7:	e8 c0 2f 00 00       	call   0x11679c
  1137dc:	c7 45 f4 20 d2 11 00 	movl   $0x11d220,0xfffffff4(%ebp)
  1137e3:	eb 1d                	jmp    0x113802
  1137e5:	8b 45 f4             	mov    0xfffffff4(%ebp),%eax
  1137e8:	89 04 24             	mov    %eax,(%esp)
  1137eb:	e8 0b 05 00 00       	call   0x113cfb
  1137f0:	8b 45 f4             	mov    0xfffffff4(%ebp),%eax
  1137f3:	89 04 24             	mov    %eax,(%esp)
  1137f6:	e8 28 05 00 00       	call   0x113d23
  1137fb:	81 45 f4 9c 00 00 00 	addl   $0x9c,0xfffffff4(%ebp)
  113802:	b8 f4 d3 11 00       	mov    $0x11d3f4,%eax
  113807:	39 45 f4             	cmp    %eax,0xfffffff4(%ebp)
  11380a:	72 d9                	jb     0x1137e5
  11380c:	8d 45 cc             	lea    0xffffffcc(%ebp),%eax
  11380f:	89 44 24 08          	mov    %eax,0x8(%esp)
  113813:	c7 44 24 04 ff ff ff 	movl   $0xffffffff,0x4(%esp)
  11381a:	ff 
  11381b:	c7 04 24 01 00 00 00 	movl   $0x1,(%esp)
  113822:	e8 ec 11 00 00       	call   0x114a13
  113827:	8b 45 cc             	mov    0xffffffcc(%ebp),%eax
  11382a:	89 45 fc             	mov    %eax,0xfffffffc(%ebp)
  11382d:	83 7d fc fe          	cmpl   $0xfffffffe,0xfffffffc(%ebp)
  113831:	74 30                	je     0x113863
  113833:	83 7d fc 00          	cmpl   $0x0,0xfffffffc(%ebp)
  113837:	78 06                	js     0x11383f
  113839:	83 7d fc 0a          	cmpl   $0xa,0xfffffffc(%ebp)
  11383d:	7e 24                	jle    0x113863
  11383f:	c7 44 24 0c 25 00 00 	movl   $0x25,0xc(%esp)
  113846:	00 
  113847:	c7 44 24 08 78 8b 11 	movl   $0x118b78,0x8(%esp)
  11384e:	00 
  11384f:	c7 44 24 04 78 8b 11 	movl   $0x118b78,0x4(%esp)
  113856:	00 
  113857:	c7 04 24 80 8b 11 00 	movl   $0x118b80,(%esp)
  11385e:	e8 b1 eb ff ff       	call   0x112414
  113863:	8b 45 d4             	mov    0xffffffd4(%ebp),%eax
  113866:	83 f8 fe             	cmp    $0xfffffffe,%eax
  113869:	74 2c                	je     0x113897
  11386b:	8b 45 d4             	mov    0xffffffd4(%ebp),%eax
  11386e:	83 f8 ff             	cmp    $0xffffffff,%eax
  113871:	74 24                	je     0x113897
  113873:	c7 44 24 0c 26 00 00 	movl   $0x26,0xc(%esp)
  11387a:	00 
  11387b:	c7 44 24 08 78 8b 11 	movl   $0x118b78,0x8(%esp)
  113882:	00 
  113883:	c7 44 24 04 78 8b 11 	movl   $0x118b78,0x4(%esp)
  11388a:	00 
  11388b:	c7 04 24 bc 8b 11 00 	movl   $0x118bbc,(%esp)
  113892:	e8 7d eb ff ff       	call   0x112414
  113897:	8b 45 d4             	mov    0xffffffd4(%ebp),%eax
  11389a:	83 f8 ff             	cmp    $0xffffffff,%eax
  11389d:	75 0f                	jne    0x1138ae
  11389f:	c7 05 04 d2 11 00 00 	movl   $0x0,0x11d204
  1138a6:	00 00 00 
  1138a9:	e9 19 01 00 00       	jmp    0x1139c7
  1138ae:	8d 45 cc             	lea    0xffffffcc(%ebp),%eax
  1138b1:	83 c0 0c             	add    $0xc,%eax
  1138b4:	89 45 f8             	mov    %eax,0xfffffff8(%ebp)
  1138b7:	8b 45 f8             	mov    0xfffffff8(%ebp),%eax
  1138ba:	8b 00                	mov    (%eax),%eax
  1138bc:	89 45 bc             	mov    %eax,0xffffffbc(%ebp)
  1138bf:	83 7d bc 01          	cmpl   $0x1,0xffffffbc(%ebp)
  1138c3:	74 53                	je     0x113918
  1138c5:	83 7d bc 01          	cmpl   $0x1,0xffffffbc(%ebp)
  1138c9:	72 15                	jb     0x1138e0
  1138cb:	83 7d bc 02          	cmpl   $0x2,0xffffffbc(%ebp)
  1138cf:	74 7c                	je     0x11394d
  1138d1:	83 7d bc 03          	cmpl   $0x3,0xffffffbc(%ebp)
  1138d5:	0f 84 e1 00 00 00    	je     0x1139bc
  1138db:	e9 e7 00 00 00       	jmp    0x1139c7
  1138e0:	8b 45 f8             	mov    0xfffffff8(%ebp),%eax
  1138e3:	8b 40 04             	mov    0x4(%eax),%eax
  1138e6:	83 f8 02             	cmp    $0x2,%eax
  1138e9:	0f 86 d8 00 00 00    	jbe    0x1139c7
  1138ef:	c7 44 24 0c 31 00 00 	movl   $0x31,0xc(%esp)
  1138f6:	00 
  1138f7:	c7 44 24 08 78 8b 11 	movl   $0x118b78,0x8(%esp)
  1138fe:	00 
  1138ff:	c7 44 24 04 78 8b 11 	movl   $0x118b78,0x4(%esp)
  113906:	00 
  113907:	c7 04 24 f0 8b 11 00 	movl   $0x118bf0,(%esp)
  11390e:	e8 01 eb ff ff       	call   0x112414
  113913:	e9 af 00 00 00       	jmp    0x1139c7
  113918:	8b 45 f8             	mov    0xfffffff8(%ebp),%eax
  11391b:	8b 40 04             	mov    0x4(%eax),%eax
  11391e:	83 f8 02             	cmp    $0x2,%eax
  113921:	0f 86 a0 00 00 00    	jbe    0x1139c7
  113927:	c7 44 24 0c 34 00 00 	movl   $0x34,0xc(%esp)
  11392e:	00 
  11392f:	c7 44 24 08 78 8b 11 	movl   $0x118b78,0x8(%esp)
  113936:	00 
  113937:	c7 44 24 04 78 8b 11 	movl   $0x118b78,0x4(%esp)
  11393e:	00 
  11393f:	c7 04 24 f0 8b 11 00 	movl   $0x118bf0,(%esp)
  113946:	e8 c9 ea ff ff       	call   0x112414
  11394b:	eb 7a                	jmp    0x1139c7
  11394d:	8b 45 f8             	mov    0xfffffff8(%ebp),%eax
  113950:	89 04 24             	mov    %eax,(%esp)
  113953:	e8 cd 0a 00 00       	call   0x114425
  113958:	83 f8 ff             	cmp    $0xffffffff,%eax
  11395b:	75 53                	jne    0x1139b0
  11395d:	c7 45 d4 fd ff ff ff 	movl   $0xfffffffd,0xffffffd4(%ebp)
  113964:	8b 45 f8             	mov    0xfffffff8(%ebp),%eax
  113967:	8b 40 08             	mov    0x8(%eax),%eax
  11396a:	89 45 fc             	mov    %eax,0xfffffffc(%ebp)
  11396d:	c7 45 d8 05 00 00 00 	movl   $0x5,0xffffffd8(%ebp)
  113974:	8b 45 f8             	mov    0xfffffff8(%ebp),%eax
  113977:	8b 40 0c             	mov    0xc(%eax),%eax
  11397a:	89 45 e0             	mov    %eax,0xffffffe0(%ebp)
  11397d:	c7 45 e8 ff ff ff ff 	movl   $0xffffffff,0xffffffe8(%ebp)
  113984:	83 7d fc 03          	cmpl   $0x3,0xfffffffc(%ebp)
  113988:	74 3d                	je     0x1139c7
  11398a:	c7 44 24 0c 40 00 00 	movl   $0x40,0xc(%esp)
  113991:	00 
  113992:	c7 44 24 08 78 8b 11 	movl   $0x118b78,0x8(%esp)
  113999:	00 
  11399a:	c7 44 24 04 78 8b 11 	movl   $0x118b78,0x4(%esp)
  1139a1:	00 
  1139a2:	c7 04 24 31 8c 11 00 	movl   $0x118c31,(%esp)
  1139a9:	e8 66 ea ff ff       	call   0x112414
  1139ae:	eb 17                	jmp    0x1139c7
  1139b0:	c7 05 94 ac 11 00 01 	movl   $0x1,0x11ac94
  1139b7:	00 00 00 
  1139ba:	eb 0b                	jmp    0x1139c7
  1139bc:	8b 45 f8             	mov    0xfffffff8(%ebp),%eax
  1139bf:	89 04 24             	mov    %eax,(%esp)
  1139c2:	e8 61 0b 00 00       	call   0x114528
  1139c7:	83 7d fc 00          	cmpl   $0x0,0xfffffffc(%ebp)
  1139cb:	78 06                	js     0x1139d3
  1139cd:	83 7d fc 0b          	cmpl   $0xb,0xfffffffc(%ebp)
  1139d1:	7e 2a                	jle    0x1139fd
  1139d3:	83 7d fc fe          	cmpl   $0xfffffffe,0xfffffffc(%ebp)
  1139d7:	74 24                	je     0x1139fd
  1139d9:	c7 44 24 0c 50 00 00 	movl   $0x50,0xc(%esp)
  1139e0:	00 
  1139e1:	c7 44 24 08 78 8b 11 	movl   $0x118b78,0x8(%esp)
  1139e8:	00 
  1139e9:	c7 44 24 04 78 8b 11 	movl   $0x118b78,0x4(%esp)
  1139f0:	00 
  1139f1:	c7 04 24 44 8c 11 00 	movl   $0x118c44,(%esp)
  1139f8:	e8 17 ea ff ff       	call   0x112414
  1139fd:	a1 94 ac 11 00       	mov    0x11ac94,%eax
  113a02:	83 f8 01             	cmp    $0x1,%eax
  113a05:	75 0f                	jne    0x113a16
  113a07:	c7 05 94 ac 11 00 00 	movl   $0x0,0x11ac94
  113a0e:	00 00 00 
  113a11:	e9 c8 00 00 00       	jmp    0x113ade
  113a16:	8d 45 cc             	lea    0xffffffcc(%ebp),%eax
  113a19:	89 44 24 08          	mov    %eax,0x8(%esp)
  113a1d:	8b 45 fc             	mov    0xfffffffc(%ebp),%eax
  113a20:	89 44 24 04          	mov    %eax,0x4(%esp)
  113a24:	c7 04 24 00 00 00 00 	movl   $0x0,(%esp)
  113a2b:	e8 e3 0f 00 00       	call   0x114a13
  113a30:	85 c0                	test   %eax,%eax
  113a32:	0f 84 a6 00 00 00    	je     0x113ade
  113a38:	e8 d5 f8 ff ff       	call   0x113312
  113a3d:	a1 70 ff 11 00       	mov    0x11ff70,%eax
  113a42:	85 c0                	test   %eax,%eax
  113a44:	74 24                	je     0x113a6a
  113a46:	c7 44 24 0c 59 00 00 	movl   $0x59,0xc(%esp)
  113a4d:	00 
  113a4e:	c7 44 24 08 78 8b 11 	movl   $0x118b78,0x8(%esp)
  113a55:	00 
  113a56:	c7 44 24 04 78 8b 11 	movl   $0x118b78,0x4(%esp)
  113a5d:	00 
  113a5e:	c7 04 24 87 8c 11 00 	movl   $0x118c87,(%esp)
  113a65:	e8 aa e9 ff ff       	call   0x112414
  113a6a:	c7 05 70 ff 11 00 01 	movl   $0x1,0x11ff70
  113a71:	00 00 00 
  113a74:	a1 6c ff 11 00       	mov    0x11ff6c,%eax
  113a79:	83 c0 01             	add    $0x1,%eax
  113a7c:	a3 6c ff 11 00       	mov    %eax,0x11ff6c
  113a81:	8b 45 cc             	mov    0xffffffcc(%ebp),%eax
  113a84:	a3 80 ff 11 00       	mov    %eax,0x11ff80
  113a89:	8b 45 d0             	mov    0xffffffd0(%ebp),%eax
  113a8c:	a3 84 ff 11 00       	mov    %eax,0x11ff84
  113a91:	8b 45 d4             	mov    0xffffffd4(%ebp),%eax
  113a94:	a3 88 ff 11 00       	mov    %eax,0x11ff88
  113a99:	8b 45 d8             	mov    0xffffffd8(%ebp),%eax
  113a9c:	a3 8c ff 11 00       	mov    %eax,0x11ff8c
  113aa1:	8b 45 dc             	mov    0xffffffdc(%ebp),%eax
  113aa4:	a3 90 ff 11 00       	mov    %eax,0x11ff90
  113aa9:	8b 45 e0             	mov    0xffffffe0(%ebp),%eax
  113aac:	a3 94 ff 11 00       	mov    %eax,0x11ff94
  113ab1:	8b 45 e4             	mov    0xffffffe4(%ebp),%eax
  113ab4:	a3 98 ff 11 00       	mov    %eax,0x11ff98
  113ab9:	8b 45 e8             	mov    0xffffffe8(%ebp),%eax
  113abc:	a3 9c ff 11 00       	mov    %eax,0x11ff9c
  113ac1:	8b 45 ec             	mov    0xffffffec(%ebp),%eax
  113ac4:	a3 a0 ff 11 00       	mov    %eax,0x11ffa0
  113ac9:	8b 45 f0             	mov    0xfffffff0(%ebp),%eax
  113acc:	a3 a4 ff 11 00       	mov    %eax,0x11ffa4
  113ad1:	8b 45 fc             	mov    0xfffffffc(%ebp),%eax
  113ad4:	a3 84 ff 11 00       	mov    %eax,0x11ff84
  113ad9:	e8 2a f8 ff ff       	call   0x113308
  113ade:	e8 2f f8 ff ff       	call   0x113312
  113ae3:	a1 70 ff 11 00       	mov    0x11ff70,%eax
  113ae8:	83 f8 01             	cmp    $0x1,%eax
  113aeb:	75 38                	jne    0x113b25
  113aed:	a1 84 ff 11 00       	mov    0x11ff84,%eax
  113af2:	c7 44 24 08 80 ff 11 	movl   $0x11ff80,0x8(%esp)
  113af9:	00 
  113afa:	89 44 24 04          	mov    %eax,0x4(%esp)
  113afe:	c7 04 24 00 00 00 00 	movl   $0x0,(%esp)
  113b05:	e8 09 0f 00 00       	call   0x114a13
  113b0a:	85 c0                	test   %eax,%eax
  113b0c:	75 17                	jne    0x113b25
  113b0e:	c7 05 70 ff 11 00 00 	movl   $0x0,0x11ff70
  113b15:	00 00 00 
  113b18:	a1 6c ff 11 00       	mov    0x11ff6c,%eax
  113b1d:	83 e8 01             	sub    $0x1,%eax
  113b20:	a3 6c ff 11 00       	mov    %eax,0x11ff6c
  113b25:	e8 de f7 ff ff       	call   0x113308
  113b2a:	e8 e3 f7 ff ff       	call   0x113312
  113b2f:	a1 68 ff 11 00       	mov    0x11ff68,%eax
  113b34:	83 f8 01             	cmp    $0x1,%eax
  113b37:	75 38                	jne    0x113b71
  113b39:	a1 44 ff 11 00       	mov    0x11ff44,%eax
  113b3e:	c7 44 24 08 40 ff 11 	movl   $0x11ff40,0x8(%esp)
  113b45:	00 
  113b46:	89 44 24 04          	mov    %eax,0x4(%esp)
  113b4a:	c7 04 24 00 00 00 00 	movl   $0x0,(%esp)
  113b51:	e8 bd 0e 00 00       	call   0x114a13
  113b56:	85 c0                	test   %eax,%eax
  113b58:	75 17                	jne    0x113b71
  113b5a:	c7 05 68 ff 11 00 00 	movl   $0x0,0x11ff68
  113b61:	00 00 00 
  113b64:	a1 6c ff 11 00       	mov    0x11ff6c,%eax
  113b69:	83 e8 01             	sub    $0x1,%eax
  113b6c:	a3 6c ff 11 00       	mov    %eax,0x11ff6c
  113b71:	e8 92 f7 ff ff       	call   0x113308
  113b76:	e9 61 fc ff ff       	jmp    0x1137dc
  113b7b:	55                   	push   %ebp
  113b7c:	89 e5                	mov    %esp,%ebp
  113b7e:	83 ec 28             	sub    $0x28,%esp
  113b81:	c7 05 6c ff 11 00 00 	movl   $0x0,0x11ff6c
  113b88:	00 00 00 
  113b8b:	c7 05 68 ff 11 00 00 	movl   $0x0,0x11ff68
  113b92:	00 00 00 
  113b95:	c7 05 70 ff 11 00 00 	movl   $0x0,0x11ff70
  113b9c:	00 00 00 
  113b9f:	c7 45 fc 20 d2 11 00 	movl   $0x11d220,0xfffffffc(%ebp)
  113ba6:	c7 45 f8 00 00 00 00 	movl   $0x0,0xfffffff8(%ebp)
  113bad:	e9 90 00 00 00       	jmp    0x113c42
  113bb2:	8b 55 fc             	mov    0xfffffffc(%ebp),%edx
  113bb5:	8b 45 fc             	mov    0xfffffffc(%ebp),%eax
  113bb8:	89 50 78             	mov    %edx,0x78(%eax)
  113bbb:	8b 55 fc             	mov    0xfffffffc(%ebp),%edx
  113bbe:	8b 45 fc             	mov    0xfffffffc(%ebp),%eax
  113bc1:	89 50 7c             	mov    %edx,0x7c(%eax)
  113bc4:	8b 45 fc             	mov    0xfffffffc(%ebp),%eax
  113bc7:	c7 80 80 00 00 00 00 	movl   $0x0,0x80(%eax)
  113bce:	00 00 00 
  113bd1:	8b 45 f8             	mov    0xfffffff8(%ebp),%eax
  113bd4:	c1 e0 04             	shl    $0x4,%eax
  113bd7:	8d 90 40 c7 11 00    	lea    0x11c740(%eax),%edx
  113bdd:	8b 45 fc             	mov    0xfffffffc(%ebp),%eax
  113be0:	89 90 84 00 00 00    	mov    %edx,0x84(%eax)
  113be6:	8b 45 fc             	mov    0xfffffffc(%ebp),%eax
  113be9:	c7 80 94 00 00 00 00 	movl   $0x0,0x94(%eax)
  113bf0:	00 00 00 
  113bf3:	8b 45 fc             	mov    0xfffffffc(%ebp),%eax
  113bf6:	8b 90 84 00 00 00    	mov    0x84(%eax),%edx
  113bfc:	8b 45 f8             	mov    0xfffffff8(%ebp),%eax
  113bff:	69 c0 20 2b 00 00    	imul   $0x2b20,%eax,%eax
  113c05:	89 02                	mov    %eax,(%edx)
  113c07:	8b 45 fc             	mov    0xfffffffc(%ebp),%eax
  113c0a:	8b 80 84 00 00 00    	mov    0x84(%eax),%eax
  113c10:	c7 40 04 00 00 00 00 	movl   $0x0,0x4(%eax)
  113c17:	8b 45 fc             	mov    0xfffffffc(%ebp),%eax
  113c1a:	8b 80 84 00 00 00    	mov    0x84(%eax),%eax
  113c20:	c7 40 08 00 00 00 00 	movl   $0x0,0x8(%eax)
  113c27:	8b 45 fc             	mov    0xfffffffc(%ebp),%eax
  113c2a:	8b 80 84 00 00 00    	mov    0x84(%eax),%eax
  113c30:	c7 40 0c 07 00 00 00 	movl   $0x7,0xc(%eax)
  113c37:	81 45 fc 9c 00 00 00 	addl   $0x9c,0xfffffffc(%ebp)
  113c3e:	83 45 f8 01          	addl   $0x1,0xfffffff8(%ebp)
  113c42:	b8 f4 d3 11 00       	mov    $0x11d3f4,%eax
  113c47:	39 45 fc             	cmp    %eax,0xfffffffc(%ebp)
  113c4a:	0f 82 62 ff ff ff    	jb     0x113bb2
  113c50:	e8 8f 31 00 00       	call   0x116de4
  113c55:	c7 45 f8 02 00 00 00 	movl   $0x2,0xfffffff8(%ebp)
  113c5c:	eb 6b                	jmp    0x113cc9
  113c5e:	8b 45 f8             	mov    0xfffffff8(%ebp),%eax
  113c61:	89 04 24             	mov    %eax,(%esp)
  113c64:	e8 68 00 00 00       	call   0x113cd1
  113c69:	8b 45 f8             	mov    0xfffffff8(%ebp),%eax
  113c6c:	89 44 24 04          	mov    %eax,0x4(%esp)
  113c70:	c7 04 24 99 8c 11 00 	movl   $0x118c99,(%esp)
  113c77:	e8 78 fa ff ff       	call   0x1136f4
  113c7c:	a1 08 d2 11 00       	mov    0x11d208,%eax
  113c81:	8b 80 84 00 00 00    	mov    0x84(%eax),%eax
  113c87:	8b 50 08             	mov    0x8(%eax),%edx
  113c8a:	a1 08 d2 11 00       	mov    0x11d208,%eax
  113c8f:	8b 80 84 00 00 00    	mov    0x84(%eax),%eax
  113c95:	8b 40 04             	mov    0x4(%eax),%eax
  113c98:	8d 0c 02             	lea    (%edx,%eax,1),%ecx
  113c9b:	c7 45 ec 67 66 66 66 	movl   $0x66666667,0xffffffec(%ebp)
  113ca2:	8b 45 ec             	mov    0xffffffec(%ebp),%eax
  113ca5:	f7 e9                	imul   %ecx
  113ca7:	c1 fa 06             	sar    $0x6,%edx
  113caa:	89 c8                	mov    %ecx,%eax
  113cac:	c1 f8 1f             	sar    $0x1f,%eax
  113caf:	89 d1                	mov    %edx,%ecx
  113cb1:	29 c1                	sub    %eax,%ecx
  113cb3:	89 c8                	mov    %ecx,%eax
  113cb5:	89 44 24 04          	mov    %eax,0x4(%esp)
  113cb9:	c7 04 24 a8 8c 11 00 	movl   $0x118ca8,(%esp)
  113cc0:	e8 2f fa ff ff       	call   0x1136f4
  113cc5:	83 6d f8 01          	subl   $0x1,0xfffffff8(%ebp)
  113cc9:	83 7d f8 00          	cmpl   $0x0,0xfffffff8(%ebp)
  113ccd:	79 8f                	jns    0x113c5e
  113ccf:	c9                   	leave  
  113cd0:	c3                   	ret    
  113cd1:	55                   	push   %ebp
  113cd2:	89 e5                	mov    %esp,%ebp
  113cd4:	83 ec 08             	sub    $0x8,%esp
  113cd7:	e8 36 f6 ff ff       	call   0x113312
  113cdc:	8b 45 08             	mov    0x8(%ebp),%eax
  113cdf:	69 c0 9c 00 00 00    	imul   $0x9c,%eax,%eax
  113ce5:	05 20 d2 11 00       	add    $0x11d220,%eax
  113cea:	a3 08 d2 11 00       	mov    %eax,0x11d208
  113cef:	e8 14 f6 ff ff       	call   0x113308
  113cf4:	e8 05 09 00 00       	call   0x1145fe
  113cf9:	c9                   	leave  
  113cfa:	c3                   	ret    
  113cfb:	55                   	push   %ebp
  113cfc:	89 e5                	mov    %esp,%ebp
  113cfe:	83 ec 08             	sub    $0x8,%esp
  113d01:	a1 08 d2 11 00       	mov    0x11d208,%eax
  113d06:	39 45 08             	cmp    %eax,0x8(%ebp)
  113d09:	75 16                	jne    0x113d21
  113d0b:	a1 c0 b7 11 00       	mov    0x11b7c0,%eax
  113d10:	85 c0                	test   %eax,%eax
  113d12:	7e 0d                	jle    0x113d21
  113d14:	a1 08 d2 11 00       	mov    0x11d208,%eax
  113d19:	89 04 24             	mov    %eax,(%esp)
  113d1c:	e8 35 32 00 00       	call   0x116f56
  113d21:	c9                   	leave  
  113d22:	c3                   	ret    
  113d23:	55                   	push   %ebp
  113d24:	89 e5                	mov    %esp,%ebp
  113d26:	83 ec 08             	sub    $0x8,%esp
  113d29:	8b 45 08             	mov    0x8(%ebp),%eax
  113d2c:	89 04 24             	mov    %eax,(%esp)
  113d2f:	e8 a0 00 00 00       	call   0x113dd4
  113d34:	e8 d9 f5 ff ff       	call   0x113312
  113d39:	8b 45 08             	mov    0x8(%ebp),%eax
  113d3c:	8b 80 84 00 00 00    	mov    0x84(%eax),%eax
  113d42:	8b 50 04             	mov    0x4(%eax),%edx
  113d45:	8b 45 08             	mov    0x8(%ebp),%eax
  113d48:	8b 80 84 00 00 00    	mov    0x84(%eax),%eax
  113d4e:	8b 40 08             	mov    0x8(%eax),%eax
  113d51:	8d 04 02             	lea    (%edx,%eax,1),%eax
  113d54:	85 c0                	test   %eax,%eax
  113d56:	79 18                	jns    0x113d70
  113d58:	8b 45 08             	mov    0x8(%ebp),%eax
  113d5b:	8b 90 84 00 00 00    	mov    0x84(%eax),%edx
  113d61:	8b 45 08             	mov    0x8(%ebp),%eax
  113d64:	8b 80 84 00 00 00    	mov    0x84(%eax),%eax
  113d6a:	8b 40 04             	mov    0x4(%eax),%eax
  113d6d:	89 42 08             	mov    %eax,0x8(%edx)
  113d70:	8b 45 08             	mov    0x8(%ebp),%eax
  113d73:	8b 80 84 00 00 00    	mov    0x84(%eax),%eax
  113d79:	8b 50 04             	mov    0x4(%eax),%edx
  113d7c:	8b 45 08             	mov    0x8(%ebp),%eax
  113d7f:	8b 80 84 00 00 00    	mov    0x84(%eax),%eax
  113d85:	8b 40 08             	mov    0x8(%eax),%eax
  113d88:	8d 04 02             	lea    (%edx,%eax,1),%eax
  113d8b:	3d ff 27 00 00       	cmp    $0x27ff,%eax
  113d90:	7e 36                	jle    0x113dc8
  113d92:	8b 45 08             	mov    0x8(%ebp),%eax
  113d95:	8b 80 84 00 00 00    	mov    0x84(%eax),%eax
  113d9b:	89 04 24             	mov    %eax,(%esp)
  113d9e:	e8 9d f4 ff ff       	call   0x113240
  113da3:	8b 45 08             	mov    0x8(%ebp),%eax
  113da6:	8b 80 84 00 00 00    	mov    0x84(%eax),%eax
  113dac:	c7 40 04 00 00 00 00 	movl   $0x0,0x4(%eax)
  113db3:	8b 45 08             	mov    0x8(%ebp),%eax
  113db6:	8b 80 84 00 00 00    	mov    0x84(%eax),%eax
  113dbc:	c7 40 08 00 00 00 00 	movl   $0x0,0x8(%eax)
  113dc3:	e8 36 08 00 00       	call   0x1145fe
  113dc8:	e8 3b f5 ff ff       	call   0x113308
  113dcd:	e8 b8 08 00 00       	call   0x11468a
  113dd2:	c9                   	leave  
  113dd3:	c3                   	ret    
  113dd4:	55                   	push   %ebp
  113dd5:	89 e5                	mov    %esp,%ebp
  113dd7:	83 ec 48             	sub    $0x48,%esp
  113dda:	e8 33 f5 ff ff       	call   0x113312
  113ddf:	8b 45 08             	mov    0x8(%ebp),%eax
  113de2:	8b 80 80 00 00 00    	mov    0x80(%eax),%eax
  113de8:	85 c0                	test   %eax,%eax
  113dea:	7f 0a                	jg     0x113df6
  113dec:	e8 17 f5 ff ff       	call   0x113308
  113df1:	e9 c1 05 00 00       	jmp    0x1143b7
  113df6:	8b 45 08             	mov    0x8(%ebp),%eax
  113df9:	8b 40 7c             	mov    0x7c(%eax),%eax
  113dfc:	8b 00                	mov    (%eax),%eax
  113dfe:	89 45 fc             	mov    %eax,0xfffffffc(%ebp)
  113e01:	8b 45 08             	mov    0x8(%ebp),%eax
  113e04:	8b 40 7c             	mov    0x7c(%eax),%eax
  113e07:	8d 50 04             	lea    0x4(%eax),%edx
  113e0a:	8b 45 08             	mov    0x8(%ebp),%eax
  113e0d:	89 50 7c             	mov    %edx,0x7c(%eax)
  113e10:	8b 45 08             	mov    0x8(%ebp),%eax
  113e13:	8b 50 7c             	mov    0x7c(%eax),%edx
  113e16:	8b 45 08             	mov    0x8(%ebp),%eax
  113e19:	83 c0 78             	add    $0x78,%eax
  113e1c:	39 c2                	cmp    %eax,%edx
  113e1e:	72 0f                	jb     0x113e2f
  113e20:	8b 45 08             	mov    0x8(%ebp),%eax
  113e23:	8b 40 7c             	mov    0x7c(%eax),%eax
  113e26:	8d 50 88             	lea    0xffffff88(%eax),%edx
  113e29:	8b 45 08             	mov    0x8(%ebp),%eax
  113e2c:	89 50 7c             	mov    %edx,0x7c(%eax)
  113e2f:	8b 45 08             	mov    0x8(%ebp),%eax
  113e32:	8b 80 80 00 00 00    	mov    0x80(%eax),%eax
  113e38:	8d 50 ff             	lea    0xffffffff(%eax),%edx
  113e3b:	8b 45 08             	mov    0x8(%ebp),%eax
  113e3e:	89 90 80 00 00 00    	mov    %edx,0x80(%eax)
  113e44:	e8 bf f4 ff ff       	call   0x113308
  113e49:	8b 45 fc             	mov    0xfffffffc(%ebp),%eax
  113e4c:	85 c0                	test   %eax,%eax
  113e4e:	0f 89 03 03 00 00    	jns    0x114157
  113e54:	8b 45 fc             	mov    0xfffffffc(%ebp),%eax
  113e57:	2d 00 00 00 80       	sub    $0x80000000,%eax
  113e5c:	89 45 cc             	mov    %eax,0xffffffcc(%ebp)
  113e5f:	83 7d cc 2f          	cmpl   $0x2f,0xffffffcc(%ebp)
  113e63:	0f 87 ee 02 00 00    	ja     0x114157
  113e69:	8b 55 cc             	mov    0xffffffcc(%ebp),%edx
  113e6c:	8b 04 95 c0 8c 11 00 	mov    0x118cc0(,%edx,4),%eax
  113e73:	ff e0                	jmp    *%eax
  113e75:	0f b6 05 89 ac 11 00 	movzbl 0x11ac89,%eax
  113e7c:	84 c0                	test   %al,%al
  113e7e:	74 09                	je     0x113e89
  113e80:	c6 05 83 ac 11 00 01 	movb   $0x1,0x11ac83
  113e87:	eb 07                	jmp    0x113e90
  113e89:	c6 05 83 ac 11 00 00 	movb   $0x0,0x11ac83
  113e90:	0f b6 05 83 ac 11 00 	movzbl 0x11ac83,%eax
  113e97:	0f b6 15 84 ac 11 00 	movzbl 0x11ac84,%edx
  113e9e:	09 d0                	or     %edx,%eax
  113ea0:	a2 85 ac 11 00       	mov    %al,0x11ac85
  113ea5:	e9 ad 02 00 00       	jmp    0x114157
  113eaa:	0f b6 05 89 ac 11 00 	movzbl 0x11ac89,%eax
  113eb1:	84 c0                	test   %al,%al
  113eb3:	74 09                	je     0x113ebe
  113eb5:	c6 05 84 ac 11 00 01 	movb   $0x1,0x11ac84
  113ebc:	eb 07                	jmp    0x113ec5
  113ebe:	c6 05 84 ac 11 00 00 	movb   $0x0,0x11ac84
  113ec5:	0f b6 05 83 ac 11 00 	movzbl 0x11ac83,%eax
  113ecc:	0f b6 15 84 ac 11 00 	movzbl 0x11ac84,%edx
  113ed3:	09 d0                	or     %edx,%eax
  113ed5:	a2 85 ac 11 00       	mov    %al,0x11ac85
  113eda:	e9 78 02 00 00       	jmp    0x114157
  113edf:	0f b6 05 89 ac 11 00 	movzbl 0x11ac89,%eax
  113ee6:	84 c0                	test   %al,%al
  113ee8:	74 09                	je     0x113ef3
  113eea:	c6 05 80 ac 11 00 01 	movb   $0x1,0x11ac80
  113ef1:	eb 07                	jmp    0x113efa
  113ef3:	c6 05 80 ac 11 00 00 	movb   $0x0,0x11ac80
  113efa:	0f b6 05 80 ac 11 00 	movzbl 0x11ac80,%eax
  113f01:	0f b6 15 81 ac 11 00 	movzbl 0x11ac81,%edx
  113f08:	09 d0                	or     %edx,%eax
  113f0a:	a2 82 ac 11 00       	mov    %al,0x11ac82
  113f0f:	e9 43 02 00 00       	jmp    0x114157
  113f14:	0f b6 05 89 ac 11 00 	movzbl 0x11ac89,%eax
  113f1b:	84 c0                	test   %al,%al
  113f1d:	74 09                	je     0x113f28
  113f1f:	c6 05 81 ac 11 00 01 	movb   $0x1,0x11ac81
  113f26:	eb 07                	jmp    0x113f2f
  113f28:	c6 05 81 ac 11 00 00 	movb   $0x0,0x11ac81
  113f2f:	0f b6 05 80 ac 11 00 	movzbl 0x11ac80,%eax
  113f36:	0f b6 15 81 ac 11 00 	movzbl 0x11ac81,%edx
  113f3d:	09 d0                	or     %edx,%eax
  113f3f:	a2 82 ac 11 00       	mov    %al,0x11ac82
  113f44:	e9 0e 02 00 00       	jmp    0x114157
  113f49:	0f b6 05 89 ac 11 00 	movzbl 0x11ac89,%eax
  113f50:	84 c0                	test   %al,%al
  113f52:	74 09                	je     0x113f5d
  113f54:	c6 05 86 ac 11 00 01 	movb   $0x1,0x11ac86
  113f5b:	eb 07                	jmp    0x113f64
  113f5d:	c6 05 86 ac 11 00 00 	movb   $0x0,0x11ac86
  113f64:	0f b6 05 86 ac 11 00 	movzbl 0x11ac86,%eax
  113f6b:	0f b6 15 87 ac 11 00 	movzbl 0x11ac87,%edx
  113f72:	09 d0                	or     %edx,%eax
  113f74:	a2 88 ac 11 00       	mov    %al,0x11ac88
  113f79:	e9 d9 01 00 00       	jmp    0x114157
  113f7e:	0f b6 05 89 ac 11 00 	movzbl 0x11ac89,%eax
  113f85:	84 c0                	test   %al,%al
  113f87:	74 09                	je     0x113f92
  113f89:	c6 05 87 ac 11 00 01 	movb   $0x1,0x11ac87
  113f90:	eb 07                	jmp    0x113f99
  113f92:	c6 05 87 ac 11 00 00 	movb   $0x0,0x11ac87
  113f99:	0f b6 05 86 ac 11 00 	movzbl 0x11ac86,%eax
  113fa0:	0f b6 15 87 ac 11 00 	movzbl 0x11ac87,%edx
  113fa7:	09 d0                	or     %edx,%eax
  113fa9:	a2 88 ac 11 00       	mov    %al,0x11ac88
  113fae:	e9 a4 01 00 00       	jmp    0x114157
  113fb3:	0f b6 05 89 ac 11 00 	movzbl 0x11ac89,%eax
  113fba:	84 c0                	test   %al,%al
  113fbc:	0f 84 95 01 00 00    	je     0x114157
  113fc2:	0f b6 05 8a ac 11 00 	movzbl 0x11ac8a,%eax
  113fc9:	83 f0 04             	xor    $0x4,%eax
  113fcc:	a2 8a ac 11 00       	mov    %al,0x11ac8a
  113fd1:	e8 89 2e 00 00       	call   0x116e5f
  113fd6:	e9 7c 01 00 00       	jmp    0x114157
  113fdb:	0f b6 05 88 ac 11 00 	movzbl 0x11ac88,%eax
  113fe2:	84 c0                	test   %al,%al
  113fe4:	0f 84 6d 01 00 00    	je     0x114157
  113fea:	c7 04 24 00 00 00 00 	movl   $0x0,(%esp)
  113ff1:	e8 db fc ff ff       	call   0x113cd1
  113ff6:	e9 5c 01 00 00       	jmp    0x114157
  113ffb:	0f b6 05 88 ac 11 00 	movzbl 0x11ac88,%eax
  114002:	84 c0                	test   %al,%al
  114004:	0f 84 4d 01 00 00    	je     0x114157
  11400a:	c7 04 24 01 00 00 00 	movl   $0x1,(%esp)
  114011:	e8 bb fc ff ff       	call   0x113cd1
  114016:	e9 3c 01 00 00       	jmp    0x114157
  11401b:	0f b6 05 88 ac 11 00 	movzbl 0x11ac88,%eax
  114022:	84 c0                	test   %al,%al
  114024:	0f 84 2d 01 00 00    	je     0x114157
  11402a:	c7 04 24 02 00 00 00 	movl   $0x2,(%esp)
  114031:	e8 9b fc ff ff       	call   0x113cd1
  114036:	e9 1c 01 00 00       	jmp    0x114157
  11403b:	0f b6 05 89 ac 11 00 	movzbl 0x11ac89,%eax
  114042:	84 c0                	test   %al,%al
  114044:	0f 84 0d 01 00 00    	je     0x114157
  11404a:	0f b6 05 8a ac 11 00 	movzbl 0x11ac8a,%eax
  114051:	83 f0 02             	xor    $0x2,%eax
  114054:	a2 8a ac 11 00       	mov    %al,0x11ac8a
  114059:	e8 01 2e 00 00       	call   0x116e5f
  11405e:	e9 f4 00 00 00       	jmp    0x114157
  114063:	0f b6 05 89 ac 11 00 	movzbl 0x11ac89,%eax
  11406a:	84 c0                	test   %al,%al
  11406c:	0f 84 e5 00 00 00    	je     0x114157
  114072:	0f b6 05 8a ac 11 00 	movzbl 0x11ac8a,%eax
  114079:	83 f0 01             	xor    $0x1,%eax
  11407c:	a2 8a ac 11 00       	mov    %al,0x11ac8a
  114081:	e8 d9 2d 00 00       	call   0x116e5f
  114086:	e9 cc 00 00 00       	jmp    0x114157
  11408b:	0f b6 05 89 ac 11 00 	movzbl 0x11ac89,%eax
  114092:	84 c0                	test   %al,%al
  114094:	0f 84 bd 00 00 00    	je     0x114157
  11409a:	0f b6 05 82 ac 11 00 	movzbl 0x11ac82,%eax
  1140a1:	84 c0                	test   %al,%al
  1140a3:	74 11                	je     0x1140b6
  1140a5:	c7 04 24 ff ff ff ff 	movl   $0xffffffff,(%esp)
  1140ac:	e8 75 06 00 00       	call   0x114726
  1140b1:	e9 a1 00 00 00       	jmp    0x114157
  1140b6:	e8 57 f2 ff ff       	call   0x113312
  1140bb:	e8 48 f2 ff ff       	call   0x113308
  1140c0:	e9 92 00 00 00       	jmp    0x114157
  1140c5:	0f b6 05 89 ac 11 00 	movzbl 0x11ac89,%eax
  1140cc:	84 c0                	test   %al,%al
  1140ce:	0f 84 83 00 00 00    	je     0x114157
  1140d4:	c7 04 24 e7 ff ff ff 	movl   $0xffffffe7,(%esp)
  1140db:	e8 46 06 00 00       	call   0x114726
  1140e0:	eb 75                	jmp    0x114157
  1140e2:	0f b6 05 89 ac 11 00 	movzbl 0x11ac89,%eax
  1140e9:	84 c0                	test   %al,%al
  1140eb:	74 6a                	je     0x114157
  1140ed:	e8 20 f2 ff ff       	call   0x113312
  1140f2:	e8 11 f2 ff ff       	call   0x113308
  1140f7:	eb 5e                	jmp    0x114157
  1140f9:	0f b6 05 89 ac 11 00 	movzbl 0x11ac89,%eax
  114100:	84 c0                	test   %al,%al
  114102:	74 53                	je     0x114157
  114104:	e8 09 f2 ff ff       	call   0x113312
  114109:	e8 fa f1 ff ff       	call   0x113308
  11410e:	eb 47                	jmp    0x114157
  114110:	0f b6 05 89 ac 11 00 	movzbl 0x11ac89,%eax
  114117:	84 c0                	test   %al,%al
  114119:	74 3c                	je     0x114157
  11411b:	0f b6 05 82 ac 11 00 	movzbl 0x11ac82,%eax
  114122:	84 c0                	test   %al,%al
  114124:	74 0e                	je     0x114134
  114126:	c7 04 24 01 00 00 00 	movl   $0x1,(%esp)
  11412d:	e8 f4 05 00 00       	call   0x114726
  114132:	eb 23                	jmp    0x114157
  114134:	e8 d9 f1 ff ff       	call   0x113312
  114139:	e8 ca f1 ff ff       	call   0x113308
  11413e:	eb 17                	jmp    0x114157
  114140:	0f b6 05 89 ac 11 00 	movzbl 0x11ac89,%eax
  114147:	84 c0                	test   %al,%al
  114149:	74 0c                	je     0x114157
  11414b:	c7 04 24 19 00 00 00 	movl   $0x19,(%esp)
  114152:	e8 cf 05 00 00       	call   0x114726
  114157:	0f b6 05 89 ac 11 00 	movzbl 0x11ac89,%eax
  11415e:	84 c0                	test   %al,%al
  114160:	0f 84 51 02 00 00    	je     0x1143b7
  114166:	8b 45 08             	mov    0x8(%ebp),%eax
  114169:	8b 80 94 00 00 00    	mov    0x94(%eax),%eax
  11416f:	85 c0                	test   %eax,%eax
  114171:	0f 84 40 02 00 00    	je     0x1143b7
  114177:	83 7d fc 1f          	cmpl   $0x1f,0xfffffffc(%ebp)
  11417b:	76 61                	jbe    0x1141de
  11417d:	83 7d fc 7e          	cmpl   $0x7e,0xfffffffc(%ebp)
  114181:	77 5b                	ja     0x1141de
  114183:	8b 45 08             	mov    0x8(%ebp),%eax
  114186:	8b 90 90 00 00 00    	mov    0x90(%eax),%edx
  11418c:	8b 45 fc             	mov    0xfffffffc(%ebp),%eax
  11418f:	88 02                	mov    %al,(%edx)
  114191:	83 c2 01             	add    $0x1,%edx
  114194:	8b 45 08             	mov    0x8(%ebp),%eax
  114197:	89 90 90 00 00 00    	mov    %edx,0x90(%eax)
  11419d:	8b 45 08             	mov    0x8(%ebp),%eax
  1141a0:	8b 80 94 00 00 00    	mov    0x94(%eax),%eax
  1141a6:	8d 50 ff             	lea    0xffffffff(%eax),%edx
  1141a9:	8b 45 08             	mov    0x8(%ebp),%eax
  1141ac:	89 90 94 00 00 00    	mov    %edx,0x94(%eax)
  1141b2:	8b 45 08             	mov    0x8(%ebp),%eax
  1141b5:	8b 80 98 00 00 00    	mov    0x98(%eax),%eax
  1141bb:	8d 50 01             	lea    0x1(%eax),%edx
  1141be:	8b 45 08             	mov    0x8(%ebp),%eax
  1141c1:	89 90 98 00 00 00    	mov    %edx,0x98(%eax)
  1141c7:	8b 45 fc             	mov    0xfffffffc(%ebp),%eax
  1141ca:	0f be c0             	movsbl %al,%eax
  1141cd:	89 44 24 04          	mov    %eax,0x4(%esp)
  1141d1:	8b 45 08             	mov    0x8(%ebp),%eax
  1141d4:	89 04 24             	mov    %eax,(%esp)
  1141d7:	e8 dd 01 00 00       	call   0x1143b9
  1141dc:	eb 68                	jmp    0x114246
  1141de:	81 7d fc 01 00 00 80 	cmpl   $0x80000001,0xfffffffc(%ebp)
  1141e5:	75 5f                	jne    0x114246
  1141e7:	8b 45 08             	mov    0x8(%ebp),%eax
  1141ea:	8b 80 98 00 00 00    	mov    0x98(%eax),%eax
  1141f0:	85 c0                	test   %eax,%eax
  1141f2:	74 52                	je     0x114246
  1141f4:	8b 45 08             	mov    0x8(%ebp),%eax
  1141f7:	8b 80 94 00 00 00    	mov    0x94(%eax),%eax
  1141fd:	8d 50 01             	lea    0x1(%eax),%edx
  114200:	8b 45 08             	mov    0x8(%ebp),%eax
  114203:	89 90 94 00 00 00    	mov    %edx,0x94(%eax)
  114209:	8b 45 08             	mov    0x8(%ebp),%eax
  11420c:	8b 80 98 00 00 00    	mov    0x98(%eax),%eax
  114212:	8d 50 ff             	lea    0xffffffff(%eax),%edx
  114215:	8b 45 08             	mov    0x8(%ebp),%eax
  114218:	89 90 98 00 00 00    	mov    %edx,0x98(%eax)
  11421e:	8b 45 08             	mov    0x8(%ebp),%eax
  114221:	8b 80 90 00 00 00    	mov    0x90(%eax),%eax
  114227:	8d 50 ff             	lea    0xffffffff(%eax),%edx
  11422a:	8b 45 08             	mov    0x8(%ebp),%eax
  11422d:	89 90 90 00 00 00    	mov    %edx,0x90(%eax)
  114233:	c7 44 24 04 08 00 00 	movl   $0x8,0x4(%esp)
  11423a:	00 
  11423b:	8b 45 08             	mov    0x8(%ebp),%eax
  11423e:	89 04 24             	mov    %eax,(%esp)
  114241:	e8 73 01 00 00       	call   0x1143b9
  114246:	81 7d fc 03 00 00 80 	cmpl   $0x80000003,0xfffffffc(%ebp)
  11424d:	74 11                	je     0x114260
  11424f:	8b 45 08             	mov    0x8(%ebp),%eax
  114252:	8b 80 94 00 00 00    	mov    0x94(%eax),%eax
  114258:	85 c0                	test   %eax,%eax
  11425a:	0f 85 57 01 00 00    	jne    0x1143b7
  114260:	81 7d fc 03 00 00 80 	cmpl   $0x80000003,0xfffffffc(%ebp)
  114267:	75 0d                	jne    0x114276
  114269:	8b 45 08             	mov    0x8(%ebp),%eax
  11426c:	c7 80 94 00 00 00 00 	movl   $0x0,0x94(%eax)
  114273:	00 00 00 
  114276:	8b 45 08             	mov    0x8(%ebp),%eax
  114279:	8b 80 90 00 00 00    	mov    0x90(%eax),%eax
  11427f:	c6 00 00             	movb   $0x0,(%eax)
  114282:	c7 44 24 04 0a 00 00 	movl   $0xa,0x4(%esp)
  114289:	00 
  11428a:	8b 45 08             	mov    0x8(%ebp),%eax
  11428d:	89 04 24             	mov    %eax,(%esp)
  114290:	e8 24 01 00 00       	call   0x1143b9
  114295:	c7 44 24 04 23 00 00 	movl   $0x23,0x4(%esp)
  11429c:	00 
  11429d:	8b 45 08             	mov    0x8(%ebp),%eax
  1142a0:	89 04 24             	mov    %eax,(%esp)
  1142a3:	e8 11 01 00 00       	call   0x1143b9
  1142a8:	c7 44 24 04 3e 00 00 	movl   $0x3e,0x4(%esp)
  1142af:	00 
  1142b0:	8b 45 08             	mov    0x8(%ebp),%eax
  1142b3:	89 04 24             	mov    %eax,(%esp)
  1142b6:	e8 fe 00 00 00       	call   0x1143b9
  1142bb:	c7 45 dc fd ff ff ff 	movl   $0xfffffffd,0xffffffdc(%ebp)
  1142c2:	c7 45 e0 05 00 00 00 	movl   $0x5,0xffffffe0(%ebp)
  1142c9:	8b 45 08             	mov    0x8(%ebp),%eax
  1142cc:	8b 80 8c 00 00 00    	mov    0x8c(%eax),%eax
  1142d2:	89 45 e8             	mov    %eax,0xffffffe8(%ebp)
  1142d5:	8b 45 08             	mov    0x8(%ebp),%eax
  1142d8:	8b 80 98 00 00 00    	mov    0x98(%eax),%eax
  1142de:	89 45 f0             	mov    %eax,0xfffffff0(%ebp)
  1142e1:	8b 45 08             	mov    0x8(%ebp),%eax
  1142e4:	8b 80 88 00 00 00    	mov    0x88(%eax),%eax
  1142ea:	89 c2                	mov    %eax,%edx
  1142ec:	8d 45 d4             	lea    0xffffffd4(%ebp),%eax
  1142ef:	89 44 24 08          	mov    %eax,0x8(%esp)
  1142f3:	89 54 24 04          	mov    %edx,0x4(%esp)
  1142f7:	c7 04 24 00 00 00 00 	movl   $0x0,(%esp)
  1142fe:	e8 10 07 00 00       	call   0x114a13
  114303:	85 c0                	test   %eax,%eax
  114305:	0f 84 ac 00 00 00    	je     0x1143b7
  11430b:	e8 02 f0 ff ff       	call   0x113312
  114310:	a1 68 ff 11 00       	mov    0x11ff68,%eax
  114315:	85 c0                	test   %eax,%eax
  114317:	74 24                	je     0x11433d
  114319:	c7 44 24 0c af 01 00 	movl   $0x1af,0xc(%esp)
  114320:	00 
  114321:	c7 44 24 08 78 8b 11 	movl   $0x118b78,0x8(%esp)
  114328:	00 
  114329:	c7 44 24 04 78 8b 11 	movl   $0x118b78,0x4(%esp)
  114330:	00 
  114331:	c7 04 24 ad 8c 11 00 	movl   $0x118cad,(%esp)
  114338:	e8 d7 e0 ff ff       	call   0x112414
  11433d:	c7 05 68 ff 11 00 01 	movl   $0x1,0x11ff68
  114344:	00 00 00 
  114347:	a1 6c ff 11 00       	mov    0x11ff6c,%eax
  11434c:	83 c0 01             	add    $0x1,%eax
  11434f:	a3 6c ff 11 00       	mov    %eax,0x11ff6c
  114354:	8b 45 d4             	mov    0xffffffd4(%ebp),%eax
  114357:	a3 40 ff 11 00       	mov    %eax,0x11ff40
  11435c:	8b 45 d8             	mov    0xffffffd8(%ebp),%eax
  11435f:	a3 44 ff 11 00       	mov    %eax,0x11ff44
  114364:	8b 45 dc             	mov    0xffffffdc(%ebp),%eax
  114367:	a3 48 ff 11 00       	mov    %eax,0x11ff48
  11436c:	8b 45 e0             	mov    0xffffffe0(%ebp),%eax
  11436f:	a3 4c ff 11 00       	mov    %eax,0x11ff4c
  114374:	8b 45 e4             	mov    0xffffffe4(%ebp),%eax
  114377:	a3 50 ff 11 00       	mov    %eax,0x11ff50
  11437c:	8b 45 e8             	mov    0xffffffe8(%ebp),%eax
  11437f:	a3 54 ff 11 00       	mov    %eax,0x11ff54
  114384:	8b 45 ec             	mov    0xffffffec(%ebp),%eax
  114387:	a3 58 ff 11 00       	mov    %eax,0x11ff58
  11438c:	8b 45 f0             	mov    0xfffffff0(%ebp),%eax
  11438f:	a3 5c ff 11 00       	mov    %eax,0x11ff5c
  114394:	8b 45 f4             	mov    0xfffffff4(%ebp),%eax
  114397:	a3 60 ff 11 00       	mov    %eax,0x11ff60
  11439c:	8b 45 f8             	mov    0xfffffff8(%ebp),%eax
  11439f:	a3 64 ff 11 00       	mov    %eax,0x11ff64
  1143a4:	8b 45 08             	mov    0x8(%ebp),%eax
  1143a7:	8b 80 88 00 00 00    	mov    0x88(%eax),%eax
  1143ad:	a3 44 ff 11 00       	mov    %eax,0x11ff44
  1143b2:	e8 51 ef ff ff       	call   0x113308
  1143b7:	c9                   	leave  
  1143b8:	c3                   	ret    
  1143b9:	55                   	push   %ebp
  1143ba:	89 e5                	mov    %esp,%ebp
  1143bc:	83 ec 48             	sub    $0x48,%esp
  1143bf:	8b 45 0c             	mov    0xc(%ebp),%eax
  1143c2:	88 45 cc             	mov    %al,0xffffffcc(%ebp)
  1143c5:	c7 45 e0 fc ff ff ff 	movl   $0xfffffffc,0xffffffe0(%ebp)
  1143cc:	c7 45 e4 02 00 00 00 	movl   $0x2,0xffffffe4(%ebp)
  1143d3:	0f b6 45 cc          	movzbl 0xffffffcc(%ebp),%eax
  1143d7:	88 45 e8             	mov    %al,0xffffffe8(%ebp)
  1143da:	8b 45 08             	mov    0x8(%ebp),%eax
  1143dd:	89 45 ec             	mov    %eax,0xffffffec(%ebp)
  1143e0:	8d 45 d8             	lea    0xffffffd8(%ebp),%eax
  1143e3:	89 44 24 08          	mov    %eax,0x8(%esp)
  1143e7:	c7 44 24 04 01 00 00 	movl   $0x1,0x4(%esp)
  1143ee:	00 
  1143ef:	c7 04 24 02 00 00 00 	movl   $0x2,(%esp)
  1143f6:	e8 18 06 00 00       	call   0x114a13
  1143fb:	85 c0                	test   %eax,%eax
  1143fd:	74 24                	je     0x114423
  1143ff:	c7 44 24 0c c3 01 00 	movl   $0x1c3,0xc(%esp)
  114406:	00 
  114407:	c7 44 24 08 78 8b 11 	movl   $0x118b78,0x8(%esp)
  11440e:	00 
  11440f:	c7 44 24 04 78 8b 11 	movl   $0x118b78,0x4(%esp)
  114416:	00 
  114417:	c7 04 24 80 8d 11 00 	movl   $0x118d80,(%esp)
  11441e:	e8 f1 df ff ff       	call   0x112414
  114423:	c9                   	leave  
  114424:	c3                   	ret    
  114425:	55                   	push   %ebp
  114426:	89 e5                	mov    %esp,%ebp
  114428:	83 ec 28             	sub    $0x28,%esp
  11442b:	8b 45 08             	mov    0x8(%ebp),%eax
  11442e:	8b 40 04             	mov    0x4(%eax),%eax
  114431:	69 c0 9c 00 00 00    	imul   $0x9c,%eax,%eax
  114437:	05 20 d2 11 00       	add    $0x11d220,%eax
  11443c:	89 45 fc             	mov    %eax,0xfffffffc(%ebp)
  11443f:	e8 ce ee ff ff       	call   0x113312
  114444:	8b 45 fc             	mov    0xfffffffc(%ebp),%eax
  114447:	8b 80 94 00 00 00    	mov    0x94(%eax),%eax
  11444d:	85 c0                	test   %eax,%eax
  11444f:	75 0a                	jne    0x11445b
  114451:	8b 45 08             	mov    0x8(%ebp),%eax
  114454:	8b 40 14             	mov    0x14(%eax),%eax
  114457:	85 c0                	test   %eax,%eax
  114459:	75 11                	jne    0x11446c
  11445b:	e8 a8 ee ff ff       	call   0x113308
  114460:	c7 45 ec ff ff ff ff 	movl   $0xffffffff,0xffffffec(%ebp)
  114467:	e9 b7 00 00 00       	jmp    0x114523
  11446c:	8b 45 fc             	mov    0xfffffffc(%ebp),%eax
  11446f:	8b 80 94 00 00 00    	mov    0x94(%eax),%eax
  114475:	85 c0                	test   %eax,%eax
  114477:	74 24                	je     0x11449d
  114479:	c7 44 24 0c d6 01 00 	movl   $0x1d6,0xc(%esp)
  114480:	00 
  114481:	c7 44 24 08 78 8b 11 	movl   $0x118b78,0x8(%esp)
  114488:	00 
  114489:	c7 44 24 04 78 8b 11 	movl   $0x118b78,0x4(%esp)
  114490:	00 
  114491:	c7 04 24 a6 8d 11 00 	movl   $0x118da6,(%esp)
  114498:	e8 77 df ff ff       	call   0x112414
  11449d:	8b 45 08             	mov    0x8(%ebp),%eax
  1144a0:	8b 50 08             	mov    0x8(%eax),%edx
  1144a3:	8b 45 fc             	mov    0xfffffffc(%ebp),%eax
  1144a6:	89 90 88 00 00 00    	mov    %edx,0x88(%eax)
  1144ac:	8b 45 08             	mov    0x8(%ebp),%eax
  1144af:	8b 50 0c             	mov    0xc(%eax),%edx
  1144b2:	8b 45 fc             	mov    0xfffffffc(%ebp),%eax
  1144b5:	89 90 8c 00 00 00    	mov    %edx,0x8c(%eax)
  1144bb:	8b 45 08             	mov    0x8(%ebp),%eax
  1144be:	8b 50 10             	mov    0x10(%eax),%edx
  1144c1:	8b 45 fc             	mov    0xfffffffc(%ebp),%eax
  1144c4:	89 90 90 00 00 00    	mov    %edx,0x90(%eax)
  1144ca:	8b 45 08             	mov    0x8(%ebp),%eax
  1144cd:	8b 50 14             	mov    0x14(%eax),%edx
  1144d0:	8b 45 fc             	mov    0xfffffffc(%ebp),%eax
  1144d3:	89 90 94 00 00 00    	mov    %edx,0x94(%eax)
  1144d9:	8b 45 fc             	mov    0xfffffffc(%ebp),%eax
  1144dc:	c7 80 98 00 00 00 00 	movl   $0x0,0x98(%eax)
  1144e3:	00 00 00 
  1144e6:	8b 45 fc             	mov    0xfffffffc(%ebp),%eax
  1144e9:	8b 80 94 00 00 00    	mov    0x94(%eax),%eax
  1144ef:	85 c0                	test   %eax,%eax
  1144f1:	75 24                	jne    0x114517
  1144f3:	c7 44 24 0c de 01 00 	movl   $0x1de,0xc(%esp)
  1144fa:	00 
  1144fb:	c7 44 24 08 78 8b 11 	movl   $0x118b78,0x8(%esp)
  114502:	00 
  114503:	c7 44 24 04 78 8b 11 	movl   $0x118b78,0x4(%esp)
  11450a:	00 
  11450b:	c7 04 24 bc 8d 11 00 	movl   $0x118dbc,(%esp)
  114512:	e8 fd de ff ff       	call   0x112414
  114517:	e8 ec ed ff ff       	call   0x113308
  11451c:	c7 45 ec 00 00 00 00 	movl   $0x0,0xffffffec(%ebp)
  114523:	8b 45 ec             	mov    0xffffffec(%ebp),%eax
  114526:	c9                   	leave  
  114527:	c3                   	ret    
  114528:	55                   	push   %ebp
  114529:	89 e5                	mov    %esp,%ebp
  11452b:	53                   	push   %ebx
  11452c:	83 ec 24             	sub    $0x24,%esp
  11452f:	8b 45 08             	mov    0x8(%ebp),%eax
  114532:	8b 40 14             	mov    0x14(%eax),%eax
  114535:	85 c0                	test   %eax,%eax
  114537:	74 3c                	je     0x114575
  114539:	8b 45 08             	mov    0x8(%ebp),%eax
  11453c:	8b 58 14             	mov    0x14(%eax),%ebx
  11453f:	8b 45 08             	mov    0x8(%ebp),%eax
  114542:	8b 40 10             	mov    0x10(%eax),%eax
  114545:	89 04 24             	mov    %eax,(%esp)
  114548:	e8 d7 ed ff ff       	call   0x113324
  11454d:	39 c3                	cmp    %eax,%ebx
  11454f:	73 0b                	jae    0x11455c
  114551:	8b 45 08             	mov    0x8(%ebp),%eax
  114554:	8b 40 14             	mov    0x14(%eax),%eax
  114557:	89 45 e8             	mov    %eax,0xffffffe8(%ebp)
  11455a:	eb 11                	jmp    0x11456d
  11455c:	8b 45 08             	mov    0x8(%ebp),%eax
  11455f:	8b 40 10             	mov    0x10(%eax),%eax
  114562:	89 04 24             	mov    %eax,(%esp)
  114565:	e8 ba ed ff ff       	call   0x113324
  11456a:	89 45 e8             	mov    %eax,0xffffffe8(%ebp)
  11456d:	8b 45 e8             	mov    0xffffffe8(%ebp),%eax
  114570:	89 45 f8             	mov    %eax,0xfffffff8(%ebp)
  114573:	eb 11                	jmp    0x114586
  114575:	8b 45 08             	mov    0x8(%ebp),%eax
  114578:	8b 40 10             	mov    0x10(%eax),%eax
  11457b:	89 04 24             	mov    %eax,(%esp)
  11457e:	e8 a1 ed ff ff       	call   0x113324
  114583:	89 45 f8             	mov    %eax,0xfffffff8(%ebp)
  114586:	8b 45 08             	mov    0x8(%ebp),%eax
  114589:	8b 50 10             	mov    0x10(%eax),%edx
  11458c:	8b 45 f8             	mov    0xfffffff8(%ebp),%eax
  11458f:	8d 04 02             	lea    (%edx,%eax,1),%eax
  114592:	c6 00 00             	movb   $0x0,(%eax)
  114595:	8b 45 08             	mov    0x8(%ebp),%eax
  114598:	8b 40 04             	mov    0x4(%eax),%eax
  11459b:	69 c0 9c 00 00 00    	imul   $0x9c,%eax,%eax
  1145a1:	05 20 d2 11 00       	add    $0x11d220,%eax
  1145a6:	89 45 f4             	mov    %eax,0xfffffff4(%ebp)
  1145a9:	eb 24                	jmp    0x1145cf
  1145ab:	8b 45 08             	mov    0x8(%ebp),%eax
  1145ae:	8b 50 10             	mov    0x10(%eax),%edx
  1145b1:	0f b6 02             	movzbl (%edx),%eax
  1145b4:	0f be c8             	movsbl %al,%ecx
  1145b7:	83 c2 01             	add    $0x1,%edx
  1145ba:	8b 45 08             	mov    0x8(%ebp),%eax
  1145bd:	89 50 10             	mov    %edx,0x10(%eax)
  1145c0:	89 4c 24 04          	mov    %ecx,0x4(%esp)
  1145c4:	8b 45 f4             	mov    0xfffffff4(%ebp),%eax
  1145c7:	89 04 24             	mov    %eax,(%esp)
  1145ca:	e8 ea fd ff ff       	call   0x1143b9
  1145cf:	8b 45 08             	mov    0x8(%ebp),%eax
  1145d2:	8b 40 10             	mov    0x10(%eax),%eax
  1145d5:	0f b6 00             	movzbl (%eax),%eax
  1145d8:	84 c0                	test   %al,%al
  1145da:	75 cf                	jne    0x1145ab
  1145dc:	8b 55 f8             	mov    0xfffffff8(%ebp),%edx
  1145df:	8b 45 08             	mov    0x8(%ebp),%eax
  1145e2:	89 50 14             	mov    %edx,0x14(%eax)
  1145e5:	83 c4 24             	add    $0x24,%esp
  1145e8:	5b                   	pop    %ebx
  1145e9:	5d                   	pop    %ebp
  1145ea:	c3                   	ret    
  1145eb:	90                   	nop    
  1145ec:	55                   	push   %ebp
  1145ed:	89 e5                	mov    %esp,%ebp
  1145ef:	83 ec 08             	sub    $0x8,%esp
  1145f2:	e8 07 00 00 00       	call   0x1145fe
  1145f7:	e8 8e 00 00 00       	call   0x11468a
  1145fc:	c9                   	leave  
  1145fd:	c3                   	ret    
  1145fe:	55                   	push   %ebp
  1145ff:	89 e5                	mov    %esp,%ebp
  114601:	83 ec 18             	sub    $0x18,%esp
  114604:	e8 09 ed ff ff       	call   0x113312
  114609:	a1 08 d2 11 00       	mov    0x11d208,%eax
  11460e:	8b 80 84 00 00 00    	mov    0x84(%eax),%eax
  114614:	8b 10                	mov    (%eax),%edx
  114616:	a1 08 d2 11 00       	mov    0x11d208,%eax
  11461b:	8b 80 84 00 00 00    	mov    0x84(%eax),%eax
  114621:	8b 40 04             	mov    0x4(%eax),%eax
  114624:	8d 04 02             	lea    (%edx,%eax,1),%eax
  114627:	89 45 fc             	mov    %eax,0xfffffffc(%ebp)
  11462a:	c7 44 24 04 0d 00 00 	movl   $0xd,0x4(%esp)
  114631:	00 
  114632:	c7 04 24 d4 03 00 00 	movl   $0x3d4,(%esp)
  114639:	e8 70 ec ff ff       	call   0x1132ae
  11463e:	8b 45 fc             	mov    0xfffffffc(%ebp),%eax
  114641:	d1 e8                	shr    %eax
  114643:	0f b6 c0             	movzbl %al,%eax
  114646:	89 44 24 04          	mov    %eax,0x4(%esp)
  11464a:	c7 04 24 d5 03 00 00 	movl   $0x3d5,(%esp)
  114651:	e8 58 ec ff ff       	call   0x1132ae
  114656:	c7 44 24 04 0c 00 00 	movl   $0xc,0x4(%esp)
  11465d:	00 
  11465e:	c7 04 24 d4 03 00 00 	movl   $0x3d4,(%esp)
  114665:	e8 44 ec ff ff       	call   0x1132ae
  11466a:	8b 45 fc             	mov    0xfffffffc(%ebp),%eax
  11466d:	c1 e8 09             	shr    $0x9,%eax
  114670:	0f b6 c0             	movzbl %al,%eax
  114673:	89 44 24 04          	mov    %eax,0x4(%esp)
  114677:	c7 04 24 d5 03 00 00 	movl   $0x3d5,(%esp)
  11467e:	e8 2b ec ff ff       	call   0x1132ae
  114683:	e8 80 ec ff ff       	call   0x113308
  114688:	c9                   	leave  
  114689:	c3                   	ret    
  11468a:	55                   	push   %ebp
  11468b:	89 e5                	mov    %esp,%ebp
  11468d:	83 ec 18             	sub    $0x18,%esp
  114690:	e8 7d ec ff ff       	call   0x113312
  114695:	a1 08 d2 11 00       	mov    0x11d208,%eax
  11469a:	8b 80 84 00 00 00    	mov    0x84(%eax),%eax
  1146a0:	8b 50 08             	mov    0x8(%eax),%edx
  1146a3:	a1 08 d2 11 00       	mov    0x11d208,%eax
  1146a8:	8b 80 84 00 00 00    	mov    0x84(%eax),%eax
  1146ae:	8b 00                	mov    (%eax),%eax
  1146b0:	01 c2                	add    %eax,%edx
  1146b2:	a1 08 d2 11 00       	mov    0x11d208,%eax
  1146b7:	8b 80 84 00 00 00    	mov    0x84(%eax),%eax
  1146bd:	8b 40 04             	mov    0x4(%eax),%eax
  1146c0:	8d 04 02             	lea    (%edx,%eax,1),%eax
  1146c3:	89 45 fc             	mov    %eax,0xfffffffc(%ebp)
  1146c6:	c7 44 24 04 0f 00 00 	movl   $0xf,0x4(%esp)
  1146cd:	00 
  1146ce:	c7 04 24 d4 03 00 00 	movl   $0x3d4,(%esp)
  1146d5:	e8 d4 eb ff ff       	call   0x1132ae
  1146da:	8b 45 fc             	mov    0xfffffffc(%ebp),%eax
  1146dd:	d1 e8                	shr    %eax
  1146df:	0f b6 c0             	movzbl %al,%eax
  1146e2:	89 44 24 04          	mov    %eax,0x4(%esp)
  1146e6:	c7 04 24 d5 03 00 00 	movl   $0x3d5,(%esp)
  1146ed:	e8 bc eb ff ff       	call   0x1132ae
  1146f2:	c7 44 24 04 0e 00 00 	movl   $0xe,0x4(%esp)
  1146f9:	00 
  1146fa:	c7 04 24 d4 03 00 00 	movl   $0x3d4,(%esp)
  114701:	e8 a8 eb ff ff       	call   0x1132ae
  114706:	8b 45 fc             	mov    0xfffffffc(%ebp),%eax
  114709:	c1 e8 09             	shr    $0x9,%eax
  11470c:	0f b6 c0             	movzbl %al,%eax
  11470f:	89 44 24 04          	mov    %eax,0x4(%esp)
  114713:	c7 04 24 d5 03 00 00 	movl   $0x3d5,(%esp)
  11471a:	e8 8f eb ff ff       	call   0x1132ae
  11471f:	e8 e4 eb ff ff       	call   0x113308
  114724:	c9                   	leave  
  114725:	c3                   	ret    
  114726:	55                   	push   %ebp
  114727:	89 e5                	mov    %esp,%ebp
  114729:	53                   	push   %ebx
  11472a:	83 ec 14             	sub    $0x14,%esp
  11472d:	e8 e0 eb ff ff       	call   0x113312
  114732:	a1 08 d2 11 00       	mov    0x11d208,%eax
  114737:	8b 80 84 00 00 00    	mov    0x84(%eax),%eax
  11473d:	8b 48 04             	mov    0x4(%eax),%ecx
  114740:	8b 55 08             	mov    0x8(%ebp),%edx
  114743:	89 d0                	mov    %edx,%eax
  114745:	c1 e0 02             	shl    $0x2,%eax
  114748:	01 d0                	add    %edx,%eax
  11474a:	c1 e0 05             	shl    $0x5,%eax
  11474d:	8d 04 01             	lea    (%ecx,%eax,1),%eax
  114750:	89 45 f8             	mov    %eax,0xfffffff8(%ebp)
  114753:	e8 b0 eb ff ff       	call   0x113308
  114758:	83 7d f8 00          	cmpl   $0x0,0xfffffff8(%ebp)
  11475c:	79 07                	jns    0x114765
  11475e:	c7 45 f8 00 00 00 00 	movl   $0x0,0xfffffff8(%ebp)
  114765:	81 7d f8 60 18 00 00 	cmpl   $0x1860,0xfffffff8(%ebp)
  11476c:	7e 07                	jle    0x114775
  11476e:	c7 45 f8 60 18 00 00 	movl   $0x1860,0xfffffff8(%ebp)
  114775:	e8 98 eb ff ff       	call   0x113312
  11477a:	a1 08 d2 11 00       	mov    0x11d208,%eax
  11477f:	8b 88 84 00 00 00    	mov    0x84(%eax),%ecx
  114785:	a1 08 d2 11 00       	mov    0x11d208,%eax
  11478a:	8b 80 84 00 00 00    	mov    0x84(%eax),%eax
  114790:	8b 58 08             	mov    0x8(%eax),%ebx
  114793:	a1 08 d2 11 00       	mov    0x11d208,%eax
  114798:	8b 80 84 00 00 00    	mov    0x84(%eax),%eax
  11479e:	8b 50 04             	mov    0x4(%eax),%edx
  1147a1:	8b 45 f8             	mov    0xfffffff8(%ebp),%eax
  1147a4:	29 d0                	sub    %edx,%eax
  1147a6:	89 da                	mov    %ebx,%edx
  1147a8:	29 c2                	sub    %eax,%edx
  1147aa:	89 d0                	mov    %edx,%eax
  1147ac:	89 41 08             	mov    %eax,0x8(%ecx)
  1147af:	a1 08 d2 11 00       	mov    0x11d208,%eax
  1147b4:	8b 90 84 00 00 00    	mov    0x84(%eax),%edx
  1147ba:	8b 45 f8             	mov    0xfffffff8(%ebp),%eax
  1147bd:	89 42 04             	mov    %eax,0x4(%edx)
  1147c0:	e8 43 eb ff ff       	call   0x113308
  1147c5:	e8 34 fe ff ff       	call   0x1145fe
  1147ca:	83 c4 14             	add    $0x14,%esp
  1147cd:	5b                   	pop    %ebx
  1147ce:	5d                   	pop    %ebp
  1147cf:	c3                   	ret    
  1147d0:	55                   	push   %ebp
  1147d1:	89 e5                	mov    %esp,%ebp
  1147d3:	83 ec 08             	sub    $0x8,%esp
  1147d6:	e8 37 eb ff ff       	call   0x113312
  1147db:	eb 0c                	jmp    0x1147e9
  1147dd:	c7 04 24 01 00 00 00 	movl   $0x1,(%esp)
  1147e4:	e8 3d ff ff ff       	call   0x114726
  1147e9:	a1 08 d2 11 00       	mov    0x11d208,%eax
  1147ee:	8b 80 84 00 00 00    	mov    0x84(%eax),%eax
  1147f4:	8b 40 08             	mov    0x8(%eax),%eax
  1147f7:	3d 9f 0f 00 00       	cmp    $0xf9f,%eax
  1147fc:	7e 23                	jle    0x114821
  1147fe:	a1 08 d2 11 00       	mov    0x11d208,%eax
  114803:	8b 80 84 00 00 00    	mov    0x84(%eax),%eax
  114809:	8b 40 04             	mov    0x4(%eax),%eax
  11480c:	3d 5f 18 00 00       	cmp    $0x185f,%eax
  114811:	7e ca                	jle    0x1147dd
  114813:	eb 0c                	jmp    0x114821
  114815:	c7 04 24 ff ff ff ff 	movl   $0xffffffff,(%esp)
  11481c:	e8 05 ff ff ff       	call   0x114726
  114821:	a1 08 d2 11 00       	mov    0x11d208,%eax
  114826:	8b 80 84 00 00 00    	mov    0x84(%eax),%eax
  11482c:	8b 40 08             	mov    0x8(%eax),%eax
  11482f:	85 c0                	test   %eax,%eax
  114831:	79 12                	jns    0x114845
  114833:	a1 08 d2 11 00       	mov    0x11d208,%eax
  114838:	8b 80 84 00 00 00    	mov    0x84(%eax),%eax
  11483e:	8b 40 04             	mov    0x4(%eax),%eax
  114841:	85 c0                	test   %eax,%eax
  114843:	7f d0                	jg     0x114815
  114845:	e8 be ea ff ff       	call   0x113308
  11484a:	c9                   	leave  
  11484b:	c3                   	ret    
  11484c:	55                   	push   %ebp
  11484d:	89 e5                	mov    %esp,%ebp
  11484f:	83 ec 28             	sub    $0x28,%esp
  114852:	8b 45 08             	mov    0x8(%ebp),%eax
  114855:	69 c0 28 01 00 00    	imul   $0x128,%eax,%eax
  11485b:	05 00 d9 11 00       	add    $0x11d900,%eax
  114860:	89 45 f4             	mov    %eax,0xfffffff4(%ebp)
  114863:	8b 45 0c             	mov    0xc(%ebp),%eax
  114866:	69 c0 28 01 00 00    	imul   $0x128,%eax,%eax
  11486c:	05 00 d9 11 00       	add    $0x11d900,%eax
  114871:	89 45 f8             	mov    %eax,0xfffffff8(%ebp)
  114874:	8b 45 f4             	mov    0xfffffff4(%ebp),%eax
  114877:	89 45 fc             	mov    %eax,0xfffffffc(%ebp)
  11487a:	e8 93 ea ff ff       	call   0x113312
  11487f:	e8 96 ea ff ff       	call   0x11331a
  114884:	25 00 02 00 00       	and    $0x200,%eax
  114889:	85 c0                	test   %eax,%eax
  11488b:	75 0d                	jne    0x11489a
  11488d:	a1 04 33 11 00       	mov    0x113304,%eax
  114892:	85 c0                	test   %eax,%eax
  114894:	0f 85 c6 00 00 00    	jne    0x114960
  11489a:	c7 44 24 0c 17 00 00 	movl   $0x17,0xc(%esp)
  1148a1:	00 
  1148a2:	c7 44 24 08 d4 8d 11 	movl   $0x118dd4,0x8(%esp)
  1148a9:	00 
  1148aa:	c7 44 24 04 d4 8d 11 	movl   $0x118dd4,0x4(%esp)
  1148b1:	00 
  1148b2:	c7 04 24 da 8d 11 00 	movl   $0x118dda,(%esp)
  1148b9:	e8 56 db ff ff       	call   0x112414
  1148be:	e9 9d 00 00 00       	jmp    0x114960
  1148c3:	8b 45 fc             	mov    0xfffffffc(%ebp),%eax
  1148c6:	8b 40 74             	mov    0x74(%eax),%eax
  1148c9:	83 f8 ff             	cmp    $0xffffffff,%eax
  1148cc:	0f 84 9d 00 00 00    	je     0x11496f
  1148d2:	8b 45 fc             	mov    0xfffffffc(%ebp),%eax
  1148d5:	8b 40 74             	mov    0x74(%eax),%eax
  1148d8:	83 f8 fe             	cmp    $0xfffffffe,%eax
  1148db:	0f 84 8e 00 00 00    	je     0x11496f
  1148e1:	8b 45 fc             	mov    0xfffffffc(%ebp),%eax
  1148e4:	8b 40 74             	mov    0x74(%eax),%eax
  1148e7:	69 c0 28 01 00 00    	imul   $0x128,%eax,%eax
  1148ed:	05 00 d9 11 00       	add    $0x11d900,%eax
  1148f2:	89 45 fc             	mov    %eax,0xfffffffc(%ebp)
  1148f5:	8b 45 fc             	mov    0xfffffffc(%ebp),%eax
  1148f8:	3b 45 f8             	cmp    0xfffffff8(%ebp),%eax
  1148fb:	75 63                	jne    0x114960
  1148fd:	8b 45 f4             	mov    0xfffffff4(%ebp),%eax
  114900:	89 45 fc             	mov    %eax,0xfffffffc(%ebp)
  114903:	c7 04 24 e1 8d 11 00 	movl   $0x118de1,(%esp)
  11490a:	e8 e5 ed ff ff       	call   0x1136f4
  11490f:	8b 45 fc             	mov    0xfffffffc(%ebp),%eax
  114912:	8b 40 5c             	mov    0x5c(%eax),%eax
  114915:	89 44 24 04          	mov    %eax,0x4(%esp)
  114919:	c7 04 24 ec 8d 11 00 	movl   $0x118dec,(%esp)
  114920:	e8 cf ed ff ff       	call   0x1136f4
  114925:	8b 45 fc             	mov    0xfffffffc(%ebp),%eax
  114928:	3b 45 f8             	cmp    0xfffffff8(%ebp),%eax
  11492b:	75 1d                	jne    0x11494a
  11492d:	c7 04 24 f1 8d 11 00 	movl   $0x118df1,(%esp)
  114934:	e8 bb ed ff ff       	call   0x1136f4
  114939:	e8 ca e9 ff ff       	call   0x113308
  11493e:	c7 45 ec 00 00 00 00 	movl   $0x0,0xffffffec(%ebp)
  114945:	e9 c4 00 00 00       	jmp    0x114a0e
  11494a:	8b 45 fc             	mov    0xfffffffc(%ebp),%eax
  11494d:	8b 40 74             	mov    0x74(%eax),%eax
  114950:	69 c0 28 01 00 00    	imul   $0x128,%eax,%eax
  114956:	05 00 d9 11 00       	add    $0x11d900,%eax
  11495b:	89 45 fc             	mov    %eax,0xfffffffc(%ebp)
  11495e:	eb af                	jmp    0x11490f
  114960:	8b 45 fc             	mov    0xfffffffc(%ebp),%eax
  114963:	8b 40 64             	mov    0x64(%eax),%eax
  114966:	83 f8 02             	cmp    $0x2,%eax
  114969:	0f 84 54 ff ff ff    	je     0x1148c3
  11496f:	8b 45 f8             	mov    0xfffffff8(%ebp),%eax
  114972:	89 45 fc             	mov    %eax,0xfffffffc(%ebp)
  114975:	eb 7c                	jmp    0x1149f3
  114977:	8b 45 fc             	mov    0xfffffffc(%ebp),%eax
  11497a:	8b 40 70             	mov    0x70(%eax),%eax
  11497d:	69 c0 28 01 00 00    	imul   $0x128,%eax,%eax
  114983:	05 00 d9 11 00       	add    $0x11d900,%eax
  114988:	89 45 fc             	mov    %eax,0xfffffffc(%ebp)
  11498b:	8b 45 fc             	mov    0xfffffffc(%ebp),%eax
  11498e:	3b 45 f4             	cmp    0xfffffff4(%ebp),%eax
  114991:	75 60                	jne    0x1149f3
  114993:	8b 45 f8             	mov    0xfffffff8(%ebp),%eax
  114996:	89 45 fc             	mov    %eax,0xfffffffc(%ebp)
  114999:	c7 04 24 e1 8d 11 00 	movl   $0x118de1,(%esp)
  1149a0:	e8 4f ed ff ff       	call   0x1136f4
  1149a5:	8b 45 fc             	mov    0xfffffffc(%ebp),%eax
  1149a8:	8b 40 5c             	mov    0x5c(%eax),%eax
  1149ab:	89 44 24 04          	mov    %eax,0x4(%esp)
  1149af:	c7 04 24 f3 8d 11 00 	movl   $0x118df3,(%esp)
  1149b6:	e8 39 ed ff ff       	call   0x1136f4
  1149bb:	8b 45 fc             	mov    0xfffffffc(%ebp),%eax
  1149be:	3b 45 f4             	cmp    0xfffffff4(%ebp),%eax
  1149c1:	75 1a                	jne    0x1149dd
  1149c3:	c7 04 24 f1 8d 11 00 	movl   $0x118df1,(%esp)
  1149ca:	e8 25 ed ff ff       	call   0x1136f4
  1149cf:	e8 34 e9 ff ff       	call   0x113308
  1149d4:	c7 45 ec 00 00 00 00 	movl   $0x0,0xffffffec(%ebp)
  1149db:	eb 31                	jmp    0x114a0e
  1149dd:	8b 45 fc             	mov    0xfffffffc(%ebp),%eax
  1149e0:	8b 40 70             	mov    0x70(%eax),%eax
  1149e3:	69 c0 28 01 00 00    	imul   $0x128,%eax,%eax
  1149e9:	05 00 d9 11 00       	add    $0x11d900,%eax
  1149ee:	89 45 fc             	mov    %eax,0xfffffffc(%ebp)
  1149f1:	eb b2                	jmp    0x1149a5
  1149f3:	8b 45 fc             	mov    0xfffffffc(%ebp),%eax
  1149f6:	8b 40 64             	mov    0x64(%eax),%eax
  1149f9:	83 f8 01             	cmp    $0x1,%eax
  1149fc:	0f 84 75 ff ff ff    	je     0x114977
  114a02:	e8 01 e9 ff ff       	call   0x113308
  114a07:	c7 45 ec ff ff ff ff 	movl   $0xffffffff,0xffffffec(%ebp)
  114a0e:	8b 45 ec             	mov    0xffffffec(%ebp),%eax
  114a11:	c9                   	leave  
  114a12:	c3                   	ret    
  114a13:	55                   	push   %ebp
  114a14:	89 e5                	mov    %esp,%ebp
  114a16:	83 ec 18             	sub    $0x18,%esp
  114a19:	8b 45 08             	mov    0x8(%ebp),%eax
  114a1c:	88 45 fc             	mov    %al,0xfffffffc(%ebp)
  114a1f:	80 7d fc 02          	cmpb   $0x2,0xfffffffc(%ebp)
  114a23:	75 59                	jne    0x114a7e
  114a25:	8b 45 10             	mov    0x10(%ebp),%eax
  114a28:	89 44 24 08          	mov    %eax,0x8(%esp)
  114a2c:	8b 45 0c             	mov    0xc(%ebp),%eax
  114a2f:	89 44 24 04          	mov    %eax,0x4(%esp)
  114a33:	c7 04 24 00 00 00 00 	movl   $0x0,(%esp)
  114a3a:	e8 61 ed ff ff       	call   0x1137a0
  114a3f:	83 f8 ff             	cmp    $0xffffffff,%eax
  114a42:	75 09                	jne    0x114a4d
  114a44:	c7 45 f8 ff ff ff ff 	movl   $0xffffffff,0xfffffff8(%ebp)
  114a4b:	eb 4e                	jmp    0x114a9b
  114a4d:	8b 45 10             	mov    0x10(%ebp),%eax
  114a50:	89 44 24 08          	mov    %eax,0x8(%esp)
  114a54:	8b 45 0c             	mov    0xc(%ebp),%eax
  114a57:	89 44 24 04          	mov    %eax,0x4(%esp)
  114a5b:	c7 04 24 01 00 00 00 	movl   $0x1,(%esp)
  114a62:	e8 39 ed ff ff       	call   0x1137a0
  114a67:	83 f8 ff             	cmp    $0xffffffff,%eax
  114a6a:	75 09                	jne    0x114a75
  114a6c:	c7 45 f8 ff ff ff ff 	movl   $0xffffffff,0xfffffff8(%ebp)
  114a73:	eb 26                	jmp    0x114a9b
  114a75:	c7 45 f8 00 00 00 00 	movl   $0x0,0xfffffff8(%ebp)
  114a7c:	eb 1d                	jmp    0x114a9b
  114a7e:	0f b6 55 fc          	movzbl 0xfffffffc(%ebp),%edx
  114a82:	8b 45 10             	mov    0x10(%ebp),%eax
  114a85:	89 44 24 08          	mov    %eax,0x8(%esp)
  114a89:	8b 45 0c             	mov    0xc(%ebp),%eax
  114a8c:	89 44 24 04          	mov    %eax,0x4(%esp)
  114a90:	89 14 24             	mov    %edx,(%esp)
  114a93:	e8 08 ed ff ff       	call   0x1137a0
  114a98:	89 45 f8             	mov    %eax,0xfffffff8(%ebp)
  114a9b:	8b 45 f8             	mov    0xfffffff8(%ebp),%eax
  114a9e:	c9                   	leave  
  114a9f:	c3                   	ret    
  114aa0:	55                   	push   %ebp
  114aa1:	89 e5                	mov    %esp,%ebp
  114aa3:	83 ec 48             	sub    $0x48,%esp
  114aa6:	e8 6f e8 ff ff       	call   0x11331a
  114aab:	25 00 02 00 00       	and    $0x200,%eax
  114ab0:	85 c0                	test   %eax,%eax
  114ab2:	74 09                	je     0x114abd
  114ab4:	a1 04 33 11 00       	mov    0x113304,%eax
  114ab9:	85 c0                	test   %eax,%eax
  114abb:	74 24                	je     0x114ae1
  114abd:	c7 44 24 0c 60 00 00 	movl   $0x60,0xc(%esp)
  114ac4:	00 
  114ac5:	c7 44 24 08 d4 8d 11 	movl   $0x118dd4,0x8(%esp)
  114acc:	00 
  114acd:	c7 44 24 04 d4 8d 11 	movl   $0x118dd4,0x4(%esp)
  114ad4:	00 
  114ad5:	c7 04 24 f8 8d 11 00 	movl   $0x118df8,(%esp)
  114adc:	e8 33 d9 ff ff       	call   0x112414
  114ae1:	8d 45 d8             	lea    0xffffffd8(%ebp),%eax
  114ae4:	89 44 24 08          	mov    %eax,0x8(%esp)
  114ae8:	c7 44 24 04 fe ff ff 	movl   $0xfffffffe,0x4(%esp)
  114aef:	ff 
  114af0:	c7 04 24 01 00 00 00 	movl   $0x1,(%esp)
  114af7:	e8 17 ff ff ff       	call   0x114a13
  114afc:	c9                   	leave  
  114afd:	c3                   	ret    
  114afe:	55                   	push   %ebp
  114aff:	89 e5                	mov    %esp,%ebp
  114b01:	53                   	push   %ebx
  114b02:	83 ec 24             	sub    $0x24,%esp
  114b05:	83 7d 08 fe          	cmpl   $0xfffffffe,0x8(%ebp)
  114b09:	75 0c                	jne    0x114b17
  114b0b:	c7 45 e8 00 00 00 00 	movl   $0x0,0xffffffe8(%ebp)
  114b12:	e9 58 02 00 00       	jmp    0x114d6f
  114b17:	8b 45 08             	mov    0x8(%ebp),%eax
  114b1a:	69 c0 28 01 00 00    	imul   $0x128,%eax,%eax
  114b20:	05 00 d9 11 00       	add    $0x11d900,%eax
  114b25:	89 45 f0             	mov    %eax,0xfffffff0(%ebp)
  114b28:	8b 45 0c             	mov    0xc(%ebp),%eax
  114b2b:	69 c0 28 01 00 00    	imul   $0x128,%eax,%eax
  114b31:	05 00 d9 11 00       	add    $0x11d900,%eax
  114b36:	89 45 f4             	mov    %eax,0xfffffff4(%ebp)
  114b39:	e8 d4 e7 ff ff       	call   0x113312
  114b3e:	e8 d7 e7 ff ff       	call   0x11331a
  114b43:	25 00 02 00 00       	and    $0x200,%eax
  114b48:	85 c0                	test   %eax,%eax
  114b4a:	75 09                	jne    0x114b55
  114b4c:	a1 04 33 11 00       	mov    0x113304,%eax
  114b51:	85 c0                	test   %eax,%eax
  114b53:	75 24                	jne    0x114b79
  114b55:	c7 44 24 0c 71 00 00 	movl   $0x71,0xc(%esp)
  114b5c:	00 
  114b5d:	c7 44 24 08 d4 8d 11 	movl   $0x118dd4,0x8(%esp)
  114b64:	00 
  114b65:	c7 44 24 04 d4 8d 11 	movl   $0x118dd4,0x4(%esp)
  114b6c:	00 
  114b6d:	c7 04 24 da 8d 11 00 	movl   $0x118dda,(%esp)
  114b74:	e8 9b d8 ff ff       	call   0x112414
  114b79:	8b 45 f0             	mov    0xfffffff0(%ebp),%eax
  114b7c:	8b 40 64             	mov    0x64(%eax),%eax
  114b7f:	83 f8 02             	cmp    $0x2,%eax
  114b82:	0f 85 a6 00 00 00    	jne    0x114c2e
  114b88:	8b 45 f0             	mov    0xfffffff0(%ebp),%eax
  114b8b:	8b 40 74             	mov    0x74(%eax),%eax
  114b8e:	3b 45 0c             	cmp    0xc(%ebp),%eax
  114b91:	74 0f                	je     0x114ba2
  114b93:	8b 45 f0             	mov    0xfffffff0(%ebp),%eax
  114b96:	8b 40 74             	mov    0x74(%eax),%eax
  114b99:	83 f8 ff             	cmp    $0xffffffff,%eax
  114b9c:	0f 85 8c 00 00 00    	jne    0x114c2e
  114ba2:	e8 73 e7 ff ff       	call   0x11331a
  114ba7:	25 00 02 00 00       	and    $0x200,%eax
  114bac:	85 c0                	test   %eax,%eax
  114bae:	75 09                	jne    0x114bb9
  114bb0:	a1 04 33 11 00       	mov    0x113304,%eax
  114bb5:	85 c0                	test   %eax,%eax
  114bb7:	75 24                	jne    0x114bdd
  114bb9:	c7 44 24 0c 75 00 00 	movl   $0x75,0xc(%esp)
  114bc0:	00 
  114bc1:	c7 44 24 08 d4 8d 11 	movl   $0x118dd4,0x8(%esp)
  114bc8:	00 
  114bc9:	c7 44 24 04 d4 8d 11 	movl   $0x118dd4,0x4(%esp)
  114bd0:	00 
  114bd1:	c7 04 24 da 8d 11 00 	movl   $0x118dda,(%esp)
  114bd8:	e8 37 d8 ff ff       	call   0x112414
  114bdd:	8b 45 10             	mov    0x10(%ebp),%eax
  114be0:	89 44 24 04          	mov    %eax,0x4(%esp)
  114be4:	8b 45 f4             	mov    0xfffffff4(%ebp),%eax
  114be7:	89 04 24             	mov    %eax,(%esp)
  114bea:	e8 9e ea ff ff       	call   0x11368d
  114bef:	89 c3                	mov    %eax,%ebx
  114bf1:	8b 45 f0             	mov    0xfffffff0(%ebp),%eax
  114bf4:	8b 40 6c             	mov    0x6c(%eax),%eax
  114bf7:	89 44 24 04          	mov    %eax,0x4(%esp)
  114bfb:	8b 45 f0             	mov    0xfffffff0(%ebp),%eax
  114bfe:	89 04 24             	mov    %eax,(%esp)
  114c01:	e8 87 ea ff ff       	call   0x11368d
  114c06:	c7 44 24 08 28 00 00 	movl   $0x28,0x8(%esp)
  114c0d:	00 
  114c0e:	89 5c 24 04          	mov    %ebx,0x4(%esp)
  114c12:	89 04 24             	mov    %eax,(%esp)
  114c15:	e8 a6 e7 ff ff       	call   0x1133c0
  114c1a:	8b 45 f0             	mov    0xfffffff0(%ebp),%eax
  114c1d:	c7 40 64 00 00 00 00 	movl   $0x0,0x64(%eax)
  114c24:	e8 df e6 ff ff       	call   0x113308
  114c29:	e9 3a 01 00 00       	jmp    0x114d68
  114c2e:	e8 e7 e6 ff ff       	call   0x11331a
  114c33:	25 00 02 00 00       	and    $0x200,%eax
  114c38:	85 c0                	test   %eax,%eax
  114c3a:	75 09                	jne    0x114c45
  114c3c:	a1 04 33 11 00       	mov    0x113304,%eax
  114c41:	85 c0                	test   %eax,%eax
  114c43:	75 24                	jne    0x114c69
  114c45:	c7 44 24 0c 7d 00 00 	movl   $0x7d,0xc(%esp)
  114c4c:	00 
  114c4d:	c7 44 24 08 d4 8d 11 	movl   $0x118dd4,0x8(%esp)
  114c54:	00 
  114c55:	c7 44 24 04 d4 8d 11 	movl   $0x118dd4,0x4(%esp)
  114c5c:	00 
  114c5d:	c7 04 24 da 8d 11 00 	movl   $0x118dda,(%esp)
  114c64:	e8 ab d7 ff ff       	call   0x112414
  114c69:	8b 45 08             	mov    0x8(%ebp),%eax
  114c6c:	89 44 24 04          	mov    %eax,0x4(%esp)
  114c70:	8b 45 0c             	mov    0xc(%ebp),%eax
  114c73:	89 04 24             	mov    %eax,(%esp)
  114c76:	e8 d1 fb ff ff       	call   0x11484c
  114c7b:	85 c0                	test   %eax,%eax
  114c7d:	75 11                	jne    0x114c90
  114c7f:	e8 84 e6 ff ff       	call   0x113308
  114c84:	c7 45 e8 ff ff ff ff 	movl   $0xffffffff,0xffffffe8(%ebp)
  114c8b:	e9 df 00 00 00       	jmp    0x114d6f
  114c90:	8b 45 f4             	mov    0xfffffff4(%ebp),%eax
  114c93:	c7 40 64 01 00 00 00 	movl   $0x1,0x64(%eax)
  114c9a:	8b 55 f4             	mov    0xfffffff4(%ebp),%edx
  114c9d:	8b 45 08             	mov    0x8(%ebp),%eax
  114ca0:	89 42 70             	mov    %eax,0x70(%edx)
  114ca3:	8b 55 f4             	mov    0xfffffff4(%ebp),%edx
  114ca6:	8b 45 10             	mov    0x10(%ebp),%eax
  114ca9:	89 42 6c             	mov    %eax,0x6c(%edx)
  114cac:	8b 45 f0             	mov    0xfffffff0(%ebp),%eax
  114caf:	8b 40 78             	mov    0x78(%eax),%eax
  114cb2:	85 c0                	test   %eax,%eax
  114cb4:	74 64                	je     0x114d1a
  114cb6:	e8 5f e6 ff ff       	call   0x11331a
  114cbb:	25 00 02 00 00       	and    $0x200,%eax
  114cc0:	85 c0                	test   %eax,%eax
  114cc2:	75 09                	jne    0x114ccd
  114cc4:	a1 04 33 11 00       	mov    0x113304,%eax
  114cc9:	85 c0                	test   %eax,%eax
  114ccb:	75 24                	jne    0x114cf1
  114ccd:	c7 44 24 0c 88 00 00 	movl   $0x88,0xc(%esp)
  114cd4:	00 
  114cd5:	c7 44 24 08 d4 8d 11 	movl   $0x118dd4,0x8(%esp)
  114cdc:	00 
  114cdd:	c7 44 24 04 d4 8d 11 	movl   $0x118dd4,0x4(%esp)
  114ce4:	00 
  114ce5:	c7 04 24 da 8d 11 00 	movl   $0x118dda,(%esp)
  114cec:	e8 23 d7 ff ff       	call   0x112414
  114cf1:	8b 45 f0             	mov    0xfffffff0(%ebp),%eax
  114cf4:	8b 40 78             	mov    0x78(%eax),%eax
  114cf7:	89 45 f8             	mov    %eax,0xfffffff8(%ebp)
  114cfa:	eb 09                	jmp    0x114d05
  114cfc:	8b 45 f8             	mov    0xfffffff8(%ebp),%eax
  114cff:	8b 40 7c             	mov    0x7c(%eax),%eax
  114d02:	89 45 f8             	mov    %eax,0xfffffff8(%ebp)
  114d05:	8b 45 f8             	mov    0xfffffff8(%ebp),%eax
  114d08:	8b 40 7c             	mov    0x7c(%eax),%eax
  114d0b:	85 c0                	test   %eax,%eax
  114d0d:	75 ed                	jne    0x114cfc
  114d0f:	8b 55 f8             	mov    0xfffffff8(%ebp),%edx
  114d12:	8b 45 f4             	mov    0xfffffff4(%ebp),%eax
  114d15:	89 42 7c             	mov    %eax,0x7c(%edx)
  114d18:	eb 09                	jmp    0x114d23
  114d1a:	8b 55 f0             	mov    0xfffffff0(%ebp),%edx
  114d1d:	8b 45 f4             	mov    0xfffffff4(%ebp),%eax
  114d20:	89 42 78             	mov    %eax,0x78(%edx)
  114d23:	8b 45 08             	mov    0x8(%ebp),%eax
  114d26:	89 44 24 04          	mov    %eax,0x4(%esp)
  114d2a:	8b 45 0c             	mov    0xc(%ebp),%eax
  114d2d:	89 04 24             	mov    %eax,(%esp)
  114d30:	e8 17 fb ff ff       	call   0x11484c
  114d35:	83 f8 ff             	cmp    $0xffffffff,%eax
  114d38:	74 24                	je     0x114d5e
  114d3a:	c7 44 24 0c 90 00 00 	movl   $0x90,0xc(%esp)
  114d41:	00 
  114d42:	c7 44 24 08 d4 8d 11 	movl   $0x118dd4,0x8(%esp)
  114d49:	00 
  114d4a:	c7 44 24 04 d4 8d 11 	movl   $0x118dd4,0x4(%esp)
  114d51:	00 
  114d52:	c7 04 24 fe 8d 11 00 	movl   $0x118dfe,(%esp)
  114d59:	e8 b6 d6 ff ff       	call   0x112414
  114d5e:	e8 fe 1e 00 00       	call   0x116c61
  114d63:	e8 a0 e5 ff ff       	call   0x113308
  114d68:	c7 45 e8 00 00 00 00 	movl   $0x0,0xffffffe8(%ebp)
  114d6f:	8b 45 e8             	mov    0xffffffe8(%ebp),%eax
  114d72:	83 c4 24             	add    $0x24,%esp
  114d75:	5b                   	pop    %ebx
  114d76:	5d                   	pop    %ebp
  114d77:	c3                   	ret    
  114d78:	55                   	push   %ebp
  114d79:	89 e5                	mov    %esp,%ebp
  114d7b:	53                   	push   %ebx
  114d7c:	83 ec 24             	sub    $0x24,%esp
  114d7f:	8b 45 08             	mov    0x8(%ebp),%eax
  114d82:	69 c0 28 01 00 00    	imul   $0x128,%eax,%eax
  114d88:	05 00 d9 11 00       	add    $0x11d900,%eax
  114d8d:	89 45 f0             	mov    %eax,0xfffffff0(%ebp)
  114d90:	e8 7d e5 ff ff       	call   0x113312
  114d95:	e8 80 e5 ff ff       	call   0x11331a
  114d9a:	25 00 02 00 00       	and    $0x200,%eax
  114d9f:	85 c0                	test   %eax,%eax
  114da1:	75 09                	jne    0x114dac
  114da3:	a1 04 33 11 00       	mov    0x113304,%eax
  114da8:	85 c0                	test   %eax,%eax
  114daa:	75 24                	jne    0x114dd0
  114dac:	c7 44 24 0c a2 00 00 	movl   $0xa2,0xc(%esp)
  114db3:	00 
  114db4:	c7 44 24 08 d4 8d 11 	movl   $0x118dd4,0x8(%esp)
  114dbb:	00 
  114dbc:	c7 44 24 04 d4 8d 11 	movl   $0x118dd4,0x4(%esp)
  114dc3:	00 
  114dc4:	c7 04 24 da 8d 11 00 	movl   $0x118dda,(%esp)
  114dcb:	e8 44 d6 ff ff       	call   0x112414
  114dd0:	8b 45 f0             	mov    0xfffffff0(%ebp),%eax
  114dd3:	0f b6 40 68          	movzbl 0x68(%eax),%eax
  114dd7:	84 c0                	test   %al,%al
  114dd9:	74 40                	je     0x114e1b
  114ddb:	83 7d 0c ff          	cmpl   $0xffffffff,0xc(%ebp)
  114ddf:	74 06                	je     0x114de7
  114de1:	83 7d 0c fe          	cmpl   $0xfffffffe,0xc(%ebp)
  114de5:	75 34                	jne    0x114e1b
  114de7:	8b 45 10             	mov    0x10(%ebp),%eax
  114dea:	c7 00 fe ff ff ff    	movl   $0xfffffffe,(%eax)
  114df0:	8b 55 10             	mov    0x10(%ebp),%edx
  114df3:	8b 45 08             	mov    0x8(%ebp),%eax
  114df6:	89 42 04             	mov    %eax,0x4(%edx)
  114df9:	8b 45 10             	mov    0x10(%ebp),%eax
  114dfc:	c7 40 08 ff ff ff ff 	movl   $0xffffffff,0x8(%eax)
  114e03:	8b 45 f0             	mov    0xfffffff0(%ebp),%eax
  114e06:	c6 40 68 00          	movb   $0x0,0x68(%eax)
  114e0a:	e8 f9 e4 ff ff       	call   0x113308
  114e0f:	c7 45 e8 00 00 00 00 	movl   $0x0,0xffffffe8(%ebp)
  114e16:	e9 93 04 00 00       	jmp    0x1152ae
  114e1b:	e8 fa e4 ff ff       	call   0x11331a
  114e20:	25 00 02 00 00       	and    $0x200,%eax
  114e25:	85 c0                	test   %eax,%eax
  114e27:	75 09                	jne    0x114e32
  114e29:	a1 04 33 11 00       	mov    0x113304,%eax
  114e2e:	85 c0                	test   %eax,%eax
  114e30:	75 24                	jne    0x114e56
  114e32:	c7 44 24 0c ad 00 00 	movl   $0xad,0xc(%esp)
  114e39:	00 
  114e3a:	c7 44 24 08 d4 8d 11 	movl   $0x118dd4,0x8(%esp)
  114e41:	00 
  114e42:	c7 44 24 04 d4 8d 11 	movl   $0x118dd4,0x4(%esp)
  114e49:	00 
  114e4a:	c7 04 24 da 8d 11 00 	movl   $0x118dda,(%esp)
  114e51:	e8 be d5 ff ff       	call   0x112414
  114e56:	83 7d 0c ff          	cmpl   $0xffffffff,0xc(%ebp)
  114e5a:	0f 85 cf 01 00 00    	jne    0x11502f
  114e60:	8b 45 f0             	mov    0xfffffff0(%ebp),%eax
  114e63:	8b 40 78             	mov    0x78(%eax),%eax
  114e66:	85 c0                	test   %eax,%eax
  114e68:	0f 84 fe 00 00 00    	je     0x114f6c
  114e6e:	e8 a7 e4 ff ff       	call   0x11331a
  114e73:	25 00 02 00 00       	and    $0x200,%eax
  114e78:	85 c0                	test   %eax,%eax
  114e7a:	75 09                	jne    0x114e85
  114e7c:	a1 04 33 11 00       	mov    0x113304,%eax
  114e81:	85 c0                	test   %eax,%eax
  114e83:	75 24                	jne    0x114ea9
  114e85:	c7 44 24 0c b4 00 00 	movl   $0xb4,0xc(%esp)
  114e8c:	00 
  114e8d:	c7 44 24 08 d4 8d 11 	movl   $0x118dd4,0x8(%esp)
  114e94:	00 
  114e95:	c7 44 24 04 d4 8d 11 	movl   $0x118dd4,0x4(%esp)
  114e9c:	00 
  114e9d:	c7 04 24 da 8d 11 00 	movl   $0x118dda,(%esp)
  114ea4:	e8 6b d5 ff ff       	call   0x112414
  114ea9:	8b 45 f0             	mov    0xfffffff0(%ebp),%eax
  114eac:	8b 40 78             	mov    0x78(%eax),%eax
  114eaf:	89 c2                	mov    %eax,%edx
  114eb1:	b8 00 d9 11 00       	mov    $0x11d900,%eax
  114eb6:	89 d1                	mov    %edx,%ecx
  114eb8:	29 c1                	sub    %eax,%ecx
  114eba:	89 c8                	mov    %ecx,%eax
  114ebc:	3d 27 26 00 00       	cmp    $0x2627,%eax
  114ec1:	7f 1a                	jg     0x114edd
  114ec3:	8b 45 f0             	mov    0xfffffff0(%ebp),%eax
  114ec6:	8b 40 78             	mov    0x78(%eax),%eax
  114ec9:	89 c2                	mov    %eax,%edx
  114ecb:	b8 00 d9 11 00       	mov    $0x11d900,%eax
  114ed0:	89 d1                	mov    %edx,%ecx
  114ed2:	29 c1                	sub    %eax,%ecx
  114ed4:	89 c8                	mov    %ecx,%eax
  114ed6:	3d d9 fe ff ff       	cmp    $0xfffffed9,%eax
  114edb:	7d 24                	jge    0x114f01
  114edd:	c7 44 24 0c b5 00 00 	movl   $0xb5,0xc(%esp)
  114ee4:	00 
  114ee5:	c7 44 24 08 d4 8d 11 	movl   $0x118dd4,0x8(%esp)
  114eec:	00 
  114eed:	c7 44 24 04 d4 8d 11 	movl   $0x118dd4,0x4(%esp)
  114ef4:	00 
  114ef5:	c7 04 24 18 8e 11 00 	movl   $0x118e18,(%esp)
  114efc:	e8 13 d5 ff ff       	call   0x112414
  114f01:	8b 45 f0             	mov    0xfffffff0(%ebp),%eax
  114f04:	8b 40 78             	mov    0x78(%eax),%eax
  114f07:	89 45 f4             	mov    %eax,0xfffffff4(%ebp)
  114f0a:	8b 45 f4             	mov    0xfffffff4(%ebp),%eax
  114f0d:	8b 40 6c             	mov    0x6c(%eax),%eax
  114f10:	89 44 24 04          	mov    %eax,0x4(%esp)
  114f14:	8b 45 f4             	mov    0xfffffff4(%ebp),%eax
  114f17:	89 04 24             	mov    %eax,(%esp)
  114f1a:	e8 6e e7 ff ff       	call   0x11368d
  114f1f:	89 c3                	mov    %eax,%ebx
  114f21:	8b 45 10             	mov    0x10(%ebp),%eax
  114f24:	89 44 24 04          	mov    %eax,0x4(%esp)
  114f28:	8b 45 f0             	mov    0xfffffff0(%ebp),%eax
  114f2b:	89 04 24             	mov    %eax,(%esp)
  114f2e:	e8 5a e7 ff ff       	call   0x11368d
  114f33:	c7 44 24 08 28 00 00 	movl   $0x28,0x8(%esp)
  114f3a:	00 
  114f3b:	89 5c 24 04          	mov    %ebx,0x4(%esp)
  114f3f:	89 04 24             	mov    %eax,(%esp)
  114f42:	e8 79 e4 ff ff       	call   0x1133c0
  114f47:	8b 45 f4             	mov    0xfffffff4(%ebp),%eax
  114f4a:	8b 50 7c             	mov    0x7c(%eax),%edx
  114f4d:	8b 45 f0             	mov    0xfffffff0(%ebp),%eax
  114f50:	89 50 78             	mov    %edx,0x78(%eax)
  114f53:	8b 45 f4             	mov    0xfffffff4(%ebp),%eax
  114f56:	c7 40 64 00 00 00 00 	movl   $0x0,0x64(%eax)
  114f5d:	8b 45 f4             	mov    0xfffffff4(%ebp),%eax
  114f60:	c7 40 7c 00 00 00 00 	movl   $0x0,0x7c(%eax)
  114f67:	e9 36 03 00 00       	jmp    0x1152a2
  114f6c:	e8 a9 e3 ff ff       	call   0x11331a
  114f71:	25 00 02 00 00       	and    $0x200,%eax
  114f76:	85 c0                	test   %eax,%eax
  114f78:	75 09                	jne    0x114f83
  114f7a:	a1 04 33 11 00       	mov    0x113304,%eax
  114f7f:	85 c0                	test   %eax,%eax
  114f81:	75 24                	jne    0x114fa7
  114f83:	c7 44 24 0c be 00 00 	movl   $0xbe,0xc(%esp)
  114f8a:	00 
  114f8b:	c7 44 24 08 d4 8d 11 	movl   $0x118dd4,0x8(%esp)
  114f92:	00 
  114f93:	c7 44 24 04 d4 8d 11 	movl   $0x118dd4,0x4(%esp)
  114f9a:	00 
  114f9b:	c7 04 24 da 8d 11 00 	movl   $0x118dda,(%esp)
  114fa2:	e8 6d d4 ff ff       	call   0x112414
  114fa7:	8b 45 08             	mov    0x8(%ebp),%eax
  114faa:	89 44 24 04          	mov    %eax,0x4(%esp)
  114fae:	8b 45 0c             	mov    0xc(%ebp),%eax
  114fb1:	89 04 24             	mov    %eax,(%esp)
  114fb4:	e8 93 f8 ff ff       	call   0x11484c
  114fb9:	85 c0                	test   %eax,%eax
  114fbb:	75 11                	jne    0x114fce
  114fbd:	e8 46 e3 ff ff       	call   0x113308
  114fc2:	c7 45 e8 ff ff ff ff 	movl   $0xffffffff,0xffffffe8(%ebp)
  114fc9:	e9 e0 02 00 00       	jmp    0x1152ae
  114fce:	8b 45 f0             	mov    0xfffffff0(%ebp),%eax
  114fd1:	c7 40 64 02 00 00 00 	movl   $0x2,0x64(%eax)
  114fd8:	8b 55 f0             	mov    0xfffffff0(%ebp),%edx
  114fdb:	8b 45 10             	mov    0x10(%ebp),%eax
  114fde:	89 42 6c             	mov    %eax,0x6c(%edx)
  114fe1:	8b 55 f0             	mov    0xfffffff0(%ebp),%edx
  114fe4:	8b 45 0c             	mov    0xc(%ebp),%eax
  114fe7:	89 42 74             	mov    %eax,0x74(%edx)
  114fea:	8b 45 08             	mov    0x8(%ebp),%eax
  114fed:	89 44 24 04          	mov    %eax,0x4(%esp)
  114ff1:	8b 45 0c             	mov    0xc(%ebp),%eax
  114ff4:	89 04 24             	mov    %eax,(%esp)
  114ff7:	e8 50 f8 ff ff       	call   0x11484c
  114ffc:	83 f8 ff             	cmp    $0xffffffff,%eax
  114fff:	74 24                	je     0x115025
  115001:	c7 44 24 0c c7 00 00 	movl   $0xc7,0xc(%esp)
  115008:	00 
  115009:	c7 44 24 08 d4 8d 11 	movl   $0x118dd4,0x8(%esp)
  115010:	00 
  115011:	c7 44 24 04 d4 8d 11 	movl   $0x118dd4,0x4(%esp)
  115018:	00 
  115019:	c7 04 24 fe 8d 11 00 	movl   $0x118dfe,(%esp)
  115020:	e8 ef d3 ff ff       	call   0x112414
  115025:	e8 37 1c 00 00       	call   0x116c61
  11502a:	e9 73 02 00 00       	jmp    0x1152a2
  11502f:	e8 e6 e2 ff ff       	call   0x11331a
  115034:	25 00 02 00 00       	and    $0x200,%eax
  115039:	85 c0                	test   %eax,%eax
  11503b:	75 09                	jne    0x115046
  11503d:	a1 04 33 11 00       	mov    0x113304,%eax
  115042:	85 c0                	test   %eax,%eax
  115044:	75 24                	jne    0x11506a
  115046:	c7 44 24 0c cd 00 00 	movl   $0xcd,0xc(%esp)
  11504d:	00 
  11504e:	c7 44 24 08 d4 8d 11 	movl   $0x118dd4,0x8(%esp)
  115055:	00 
  115056:	c7 44 24 04 d4 8d 11 	movl   $0x118dd4,0x4(%esp)
  11505d:	00 
  11505e:	c7 04 24 da 8d 11 00 	movl   $0x118dda,(%esp)
  115065:	e8 aa d3 ff ff       	call   0x112414
  11506a:	8b 45 0c             	mov    0xc(%ebp),%eax
  11506d:	69 c0 28 01 00 00    	imul   $0x128,%eax,%eax
  115073:	05 00 d9 11 00       	add    $0x11d900,%eax
  115078:	89 45 f4             	mov    %eax,0xfffffff4(%ebp)
  11507b:	8b 45 f4             	mov    0xfffffff4(%ebp),%eax
  11507e:	8b 40 64             	mov    0x64(%eax),%eax
  115081:	83 f8 01             	cmp    $0x1,%eax
  115084:	0f 85 5d 01 00 00    	jne    0x1151e7
  11508a:	8b 45 f4             	mov    0xfffffff4(%ebp),%eax
  11508d:	8b 40 70             	mov    0x70(%eax),%eax
  115090:	3b 45 08             	cmp    0x8(%ebp),%eax
  115093:	0f 85 4e 01 00 00    	jne    0x1151e7
  115099:	e8 7c e2 ff ff       	call   0x11331a
  11509e:	25 00 02 00 00       	and    $0x200,%eax
  1150a3:	85 c0                	test   %eax,%eax
  1150a5:	75 09                	jne    0x1150b0
  1150a7:	a1 04 33 11 00       	mov    0x113304,%eax
  1150ac:	85 c0                	test   %eax,%eax
  1150ae:	75 24                	jne    0x1150d4
  1150b0:	c7 44 24 0c d2 00 00 	movl   $0xd2,0xc(%esp)
  1150b7:	00 
  1150b8:	c7 44 24 08 d4 8d 11 	movl   $0x118dd4,0x8(%esp)
  1150bf:	00 
  1150c0:	c7 44 24 04 d4 8d 11 	movl   $0x118dd4,0x4(%esp)
  1150c7:	00 
  1150c8:	c7 04 24 da 8d 11 00 	movl   $0x118dda,(%esp)
  1150cf:	e8 40 d3 ff ff       	call   0x112414
  1150d4:	8b 45 f4             	mov    0xfffffff4(%ebp),%eax
  1150d7:	8b 40 6c             	mov    0x6c(%eax),%eax
  1150da:	89 44 24 04          	mov    %eax,0x4(%esp)
  1150de:	8b 45 f4             	mov    0xfffffff4(%ebp),%eax
  1150e1:	89 04 24             	mov    %eax,(%esp)
  1150e4:	e8 a4 e5 ff ff       	call   0x11368d
  1150e9:	89 c3                	mov    %eax,%ebx
  1150eb:	8b 45 10             	mov    0x10(%ebp),%eax
  1150ee:	89 44 24 04          	mov    %eax,0x4(%esp)
  1150f2:	8b 45 f0             	mov    0xfffffff0(%ebp),%eax
  1150f5:	89 04 24             	mov    %eax,(%esp)
  1150f8:	e8 90 e5 ff ff       	call   0x11368d
  1150fd:	c7 44 24 08 28 00 00 	movl   $0x28,0x8(%esp)
  115104:	00 
  115105:	89 5c 24 04          	mov    %ebx,0x4(%esp)
  115109:	89 04 24             	mov    %eax,(%esp)
  11510c:	e8 af e2 ff ff       	call   0x1133c0
  115111:	8b 45 f4             	mov    0xfffffff4(%ebp),%eax
  115114:	c7 40 64 00 00 00 00 	movl   $0x0,0x64(%eax)
  11511b:	8b 45 f0             	mov    0xfffffff0(%ebp),%eax
  11511e:	8b 40 78             	mov    0x78(%eax),%eax
  115121:	3b 45 f4             	cmp    0xfffffff4(%ebp),%eax
  115124:	75 0e                	jne    0x115134
  115126:	8b 45 f4             	mov    0xfffffff4(%ebp),%eax
  115129:	8b 50 7c             	mov    0x7c(%eax),%edx
  11512c:	8b 45 f0             	mov    0xfffffff0(%ebp),%eax
  11512f:	89 50 78             	mov    %edx,0x78(%eax)
  115132:	eb 72                	jmp    0x1151a6
  115134:	e8 e1 e1 ff ff       	call   0x11331a
  115139:	25 00 02 00 00       	and    $0x200,%eax
  11513e:	85 c0                	test   %eax,%eax
  115140:	75 09                	jne    0x11514b
  115142:	a1 04 33 11 00       	mov    0x113304,%eax
  115147:	85 c0                	test   %eax,%eax
  115149:	75 24                	jne    0x11516f
  11514b:	c7 44 24 0c dd 00 00 	movl   $0xdd,0xc(%esp)
  115152:	00 
  115153:	c7 44 24 08 d4 8d 11 	movl   $0x118dd4,0x8(%esp)
  11515a:	00 
  11515b:	c7 44 24 04 d4 8d 11 	movl   $0x118dd4,0x4(%esp)
  115162:	00 
  115163:	c7 04 24 da 8d 11 00 	movl   $0x118dda,(%esp)
  11516a:	e8 a5 d2 ff ff       	call   0x112414
  11516f:	8b 45 f0             	mov    0xfffffff0(%ebp),%eax
  115172:	8b 40 78             	mov    0x78(%eax),%eax
  115175:	89 45 f8             	mov    %eax,0xfffffff8(%ebp)
  115178:	8b 45 f8             	mov    0xfffffff8(%ebp),%eax
  11517b:	8b 40 7c             	mov    0x7c(%eax),%eax
  11517e:	89 45 f0             	mov    %eax,0xfffffff0(%ebp)
  115181:	eb 0f                	jmp    0x115192
  115183:	8b 45 f0             	mov    0xfffffff0(%ebp),%eax
  115186:	89 45 f8             	mov    %eax,0xfffffff8(%ebp)
  115189:	8b 45 f0             	mov    0xfffffff0(%ebp),%eax
  11518c:	8b 40 7c             	mov    0x7c(%eax),%eax
  11518f:	89 45 f0             	mov    %eax,0xfffffff0(%ebp)
  115192:	8b 45 f0             	mov    0xfffffff0(%ebp),%eax
  115195:	3b 45 f4             	cmp    0xfffffff4(%ebp),%eax
  115198:	75 e9                	jne    0x115183
  11519a:	8b 45 f0             	mov    0xfffffff0(%ebp),%eax
  11519d:	8b 50 7c             	mov    0x7c(%eax),%edx
  1151a0:	8b 45 f8             	mov    0xfffffff8(%ebp),%eax
  1151a3:	89 50 7c             	mov    %edx,0x7c(%eax)
  1151a6:	8b 45 f4             	mov    0xfffffff4(%ebp),%eax
  1151a9:	c7 40 7c 00 00 00 00 	movl   $0x0,0x7c(%eax)
  1151b0:	8b 45 f4             	mov    0xfffffff4(%ebp),%eax
  1151b3:	8b 40 7c             	mov    0x7c(%eax),%eax
  1151b6:	85 c0                	test   %eax,%eax
  1151b8:	0f 84 e4 00 00 00    	je     0x1152a2
  1151be:	c7 44 24 0c e8 00 00 	movl   $0xe8,0xc(%esp)
  1151c5:	00 
  1151c6:	c7 44 24 08 d4 8d 11 	movl   $0x118dd4,0x8(%esp)
  1151cd:	00 
  1151ce:	c7 44 24 04 d4 8d 11 	movl   $0x118dd4,0x4(%esp)
  1151d5:	00 
  1151d6:	c7 04 24 67 8e 11 00 	movl   $0x118e67,(%esp)
  1151dd:	e8 32 d2 ff ff       	call   0x112414
  1151e2:	e9 bb 00 00 00       	jmp    0x1152a2
  1151e7:	e8 2e e1 ff ff       	call   0x11331a
  1151ec:	25 00 02 00 00       	and    $0x200,%eax
  1151f1:	85 c0                	test   %eax,%eax
  1151f3:	75 09                	jne    0x1151fe
  1151f5:	a1 04 33 11 00       	mov    0x113304,%eax
  1151fa:	85 c0                	test   %eax,%eax
  1151fc:	75 24                	jne    0x115222
  1151fe:	c7 44 24 0c ed 00 00 	movl   $0xed,0xc(%esp)
  115205:	00 
  115206:	c7 44 24 08 d4 8d 11 	movl   $0x118dd4,0x8(%esp)
  11520d:	00 
  11520e:	c7 44 24 04 d4 8d 11 	movl   $0x118dd4,0x4(%esp)
  115215:	00 
  115216:	c7 04 24 da 8d 11 00 	movl   $0x118dda,(%esp)
  11521d:	e8 f2 d1 ff ff       	call   0x112414
  115222:	8b 45 08             	mov    0x8(%ebp),%eax
  115225:	89 44 24 04          	mov    %eax,0x4(%esp)
  115229:	8b 45 0c             	mov    0xc(%ebp),%eax
  11522c:	89 04 24             	mov    %eax,(%esp)
  11522f:	e8 18 f6 ff ff       	call   0x11484c
  115234:	85 c0                	test   %eax,%eax
  115236:	75 0e                	jne    0x115246
  115238:	e8 cb e0 ff ff       	call   0x113308
  11523d:	c7 45 e8 ff ff ff ff 	movl   $0xffffffff,0xffffffe8(%ebp)
  115244:	eb 68                	jmp    0x1152ae
  115246:	8b 45 f0             	mov    0xfffffff0(%ebp),%eax
  115249:	c7 40 64 02 00 00 00 	movl   $0x2,0x64(%eax)
  115250:	8b 55 f0             	mov    0xfffffff0(%ebp),%edx
  115253:	8b 45 10             	mov    0x10(%ebp),%eax
  115256:	89 42 6c             	mov    %eax,0x6c(%edx)
  115259:	8b 55 f0             	mov    0xfffffff0(%ebp),%edx
  11525c:	8b 45 0c             	mov    0xc(%ebp),%eax
  11525f:	89 42 74             	mov    %eax,0x74(%edx)
  115262:	8b 45 08             	mov    0x8(%ebp),%eax
  115265:	89 44 24 04          	mov    %eax,0x4(%esp)
  115269:	8b 45 0c             	mov    0xc(%ebp),%eax
  11526c:	89 04 24             	mov    %eax,(%esp)
  11526f:	e8 d8 f5 ff ff       	call   0x11484c
  115274:	83 f8 ff             	cmp    $0xffffffff,%eax
  115277:	74 24                	je     0x11529d
  115279:	c7 44 24 0c f6 00 00 	movl   $0xf6,0xc(%esp)
  115280:	00 
  115281:	c7 44 24 08 d4 8d 11 	movl   $0x118dd4,0x8(%esp)
  115288:	00 
  115289:	c7 44 24 04 d4 8d 11 	movl   $0x118dd4,0x4(%esp)
  115290:	00 
  115291:	c7 04 24 fe 8d 11 00 	movl   $0x118dfe,(%esp)
  115298:	e8 77 d1 ff ff       	call   0x112414
  11529d:	e8 bf 19 00 00       	call   0x116c61
  1152a2:	e8 61 e0 ff ff       	call   0x113308
  1152a7:	c7 45 e8 00 00 00 00 	movl   $0x0,0xffffffe8(%ebp)
  1152ae:	8b 45 e8             	mov    0xffffffe8(%ebp),%eax
  1152b1:	83 c4 24             	add    $0x24,%esp
  1152b4:	5b                   	pop    %ebx
  1152b5:	5d                   	pop    %ebp
  1152b6:	c3                   	ret    
  1152b7:	55                   	push   %ebp
  1152b8:	89 e5                	mov    %esp,%ebp
  1152ba:	53                   	push   %ebx
  1152bb:	83 ec 14             	sub    $0x14,%esp
  1152be:	e8 4f e0 ff ff       	call   0x113312
  1152c3:	e8 52 e0 ff ff       	call   0x11331a
  1152c8:	25 00 02 00 00       	and    $0x200,%eax
  1152cd:	85 c0                	test   %eax,%eax
  1152cf:	75 09                	jne    0x1152da
  1152d1:	a1 04 33 11 00       	mov    0x113304,%eax
  1152d6:	85 c0                	test   %eax,%eax
  1152d8:	75 24                	jne    0x1152fe
  1152da:	c7 44 24 0c 02 01 00 	movl   $0x102,0xc(%esp)
  1152e1:	00 
  1152e2:	c7 44 24 08 d4 8d 11 	movl   $0x118dd4,0x8(%esp)
  1152e9:	00 
  1152ea:	c7 44 24 04 d4 8d 11 	movl   $0x118dd4,0x4(%esp)
  1152f1:	00 
  1152f2:	c7 04 24 da 8d 11 00 	movl   $0x118dda,(%esp)
  1152f9:	e8 16 d1 ff ff       	call   0x112414
  1152fe:	8b 45 08             	mov    0x8(%ebp),%eax
  115301:	8b 40 64             	mov    0x64(%eax),%eax
  115304:	83 f8 02             	cmp    $0x2,%eax
  115307:	75 5b                	jne    0x115364
  115309:	8b 45 08             	mov    0x8(%ebp),%eax
  11530c:	8b 40 74             	mov    0x74(%eax),%eax
  11530f:	83 f8 ff             	cmp    $0xffffffff,%eax
  115312:	74 0b                	je     0x11531f
  115314:	8b 45 08             	mov    0x8(%ebp),%eax
  115317:	8b 40 74             	mov    0x74(%eax),%eax
  11531a:	83 f8 fe             	cmp    $0xfffffffe,%eax
  11531d:	75 45                	jne    0x115364
  11531f:	8b 45 08             	mov    0x8(%ebp),%eax
  115322:	8b 40 6c             	mov    0x6c(%eax),%eax
  115325:	c7 00 fe ff ff ff    	movl   $0xfffffffe,(%eax)
  11532b:	8b 45 08             	mov    0x8(%ebp),%eax
  11532e:	8b 48 6c             	mov    0x6c(%eax),%ecx
  115331:	8b 55 08             	mov    0x8(%ebp),%edx
  115334:	b8 00 d9 11 00       	mov    $0x11d900,%eax
  115339:	89 d3                	mov    %edx,%ebx
  11533b:	29 c3                	sub    %eax,%ebx
  11533d:	89 d8                	mov    %ebx,%eax
  11533f:	c1 f8 03             	sar    $0x3,%eax
  115342:	69 c0 ad 1b 4c 91    	imul   $0x914c1bad,%eax,%eax
  115348:	89 41 04             	mov    %eax,0x4(%ecx)
  11534b:	8b 45 08             	mov    0x8(%ebp),%eax
  11534e:	8b 40 6c             	mov    0x6c(%eax),%eax
  115351:	c7 40 08 ff ff ff ff 	movl   $0xffffffff,0x8(%eax)
  115358:	8b 45 08             	mov    0x8(%ebp),%eax
  11535b:	c7 40 64 00 00 00 00 	movl   $0x0,0x64(%eax)
  115362:	eb 07                	jmp    0x11536b
  115364:	8b 45 08             	mov    0x8(%ebp),%eax
  115367:	c6 40 68 01          	movb   $0x1,0x68(%eax)
  11536b:	e8 98 df ff ff       	call   0x113308
  115370:	83 c4 14             	add    $0x14,%esp
  115373:	5b                   	pop    %ebx
  115374:	5d                   	pop    %ebp
  115375:	c3                   	ret    
  115376:	90                   	nop    
  115377:	90                   	nop    
  115378:	55                   	push   %ebp
  115379:	89 e5                	mov    %esp,%ebp
  11537b:	53                   	push   %ebx
  11537c:	83 ec 54             	sub    $0x54,%esp
  11537f:	eb 00                	jmp    0x115381
  115381:	8d 45 d0             	lea    0xffffffd0(%ebp),%eax
  115384:	89 44 24 08          	mov    %eax,0x8(%esp)
  115388:	c7 44 24 04 ff ff ff 	movl   $0xffffffff,0x4(%esp)
  11538f:	ff 
  115390:	c7 04 24 01 00 00 00 	movl   $0x1,(%esp)
  115397:	e8 77 f6 ff ff       	call   0x114a13
  11539c:	85 c0                	test   %eax,%eax
  11539e:	74 24                	je     0x1153c4
  1153a0:	c7 44 24 0c 0d 00 00 	movl   $0xd,0xc(%esp)
  1153a7:	00 
  1153a8:	c7 44 24 08 84 8e 11 	movl   $0x118e84,0x8(%esp)
  1153af:	00 
  1153b0:	c7 44 24 04 84 8e 11 	movl   $0x118e84,0x4(%esp)
  1153b7:	00 
  1153b8:	c7 04 24 89 8e 11 00 	movl   $0x118e89,(%esp)
  1153bf:	e8 50 d0 ff ff       	call   0x112414
  1153c4:	8b 45 d8             	mov    0xffffffd8(%ebp),%eax
  1153c7:	83 f8 ff             	cmp    $0xffffffff,%eax
  1153ca:	74 24                	je     0x1153f0
  1153cc:	c7 44 24 0c 0e 00 00 	movl   $0xe,0xc(%esp)
  1153d3:	00 
  1153d4:	c7 44 24 08 84 8e 11 	movl   $0x118e84,0x8(%esp)
  1153db:	00 
  1153dc:	c7 44 24 04 84 8e 11 	movl   $0x118e84,0x4(%esp)
  1153e3:	00 
  1153e4:	c7 04 24 a6 8e 11 00 	movl   $0x118ea6,(%esp)
  1153eb:	e8 24 d0 ff ff       	call   0x112414
  1153f0:	8d 45 d0             	lea    0xffffffd0(%ebp),%eax
  1153f3:	83 c0 0c             	add    $0xc,%eax
  1153f6:	89 45 f8             	mov    %eax,0xfffffff8(%ebp)
  1153f9:	8b 45 d0             	mov    0xffffffd0(%ebp),%eax
  1153fc:	69 c0 28 01 00 00    	imul   $0x128,%eax,%eax
  115402:	8b 80 64 d9 11 00    	mov    0x11d964(%eax),%eax
  115408:	83 f8 02             	cmp    $0x2,%eax
  11540b:	75 ec                	jne    0x1153f9
  11540d:	8b 45 d0             	mov    0xffffffd0(%ebp),%eax
  115410:	69 c0 28 01 00 00    	imul   $0x128,%eax,%eax
  115416:	8b 80 64 d9 11 00    	mov    0x11d964(%eax),%eax
  11541c:	83 f8 02             	cmp    $0x2,%eax
  11541f:	74 24                	je     0x115445
  115421:	c7 44 24 0c 12 00 00 	movl   $0x12,0xc(%esp)
  115428:	00 
  115429:	c7 44 24 08 84 8e 11 	movl   $0x118e84,0x8(%esp)
  115430:	00 
  115431:	c7 44 24 04 84 8e 11 	movl   $0x118e84,0x4(%esp)
  115438:	00 
  115439:	c7 04 24 c0 8e 11 00 	movl   $0x118ec0,(%esp)
  115440:	e8 cf cf ff ff       	call   0x112414
  115445:	8b 45 d0             	mov    0xffffffd0(%ebp),%eax
  115448:	69 c0 28 01 00 00    	imul   $0x128,%eax,%eax
  11544e:	8b 80 74 d9 11 00    	mov    0x11d974(%eax),%eax
  115454:	83 f8 02             	cmp    $0x2,%eax
  115457:	74 24                	je     0x11547d
  115459:	c7 44 24 0c 13 00 00 	movl   $0x13,0xc(%esp)
  115460:	00 
  115461:	c7 44 24 08 84 8e 11 	movl   $0x118e84,0x8(%esp)
  115468:	00 
  115469:	c7 44 24 04 84 8e 11 	movl   $0x118e84,0x4(%esp)
  115470:	00 
  115471:	c7 04 24 ec 8e 11 00 	movl   $0x118eec,(%esp)
  115478:	e8 97 cf ff ff       	call   0x112414
  11547d:	8b 45 f8             	mov    0xfffffff8(%ebp),%eax
  115480:	8b 00                	mov    (%eax),%eax
  115482:	89 45 c8             	mov    %eax,0xffffffc8(%ebp)
  115485:	83 7d c8 04          	cmpl   $0x4,0xffffffc8(%ebp)
  115489:	0f 87 cd 00 00 00    	ja     0x11555c
  11548f:	8b 55 c8             	mov    0xffffffc8(%ebp),%edx
  115492:	8b 04 95 40 8f 11 00 	mov    0x118f40(,%edx,4),%eax
  115499:	ff e0                	jmp    *%eax
  11549b:	8b 45 f8             	mov    0xfffffff8(%ebp),%eax
  11549e:	0f b7 40 04          	movzwl 0x4(%eax),%eax
  1154a2:	0f b7 c0             	movzwl %ax,%eax
  1154a5:	89 04 24             	mov    %eax,(%esp)
  1154a8:	e8 28 0e 00 00       	call   0x1162d5
  1154ad:	e9 aa 00 00 00       	jmp    0x11555c
  1154b2:	8b 45 f8             	mov    0xfffffff8(%ebp),%eax
  1154b5:	0f b7 40 04          	movzwl 0x4(%eax),%eax
  1154b9:	0f b7 c0             	movzwl %ax,%eax
  1154bc:	89 04 24             	mov    %eax,(%esp)
  1154bf:	e8 15 0f 00 00       	call   0x1163d9
  1154c4:	e9 93 00 00 00       	jmp    0x11555c
  1154c9:	8b 45 f8             	mov    0xfffffff8(%ebp),%eax
  1154cc:	8b 48 0c             	mov    0xc(%eax),%ecx
  1154cf:	8b 45 f8             	mov    0xfffffff8(%ebp),%eax
  1154d2:	0f b7 40 06          	movzwl 0x6(%eax),%eax
  1154d6:	0f b7 d8             	movzwl %ax,%ebx
  1154d9:	8b 45 f8             	mov    0xfffffff8(%ebp),%eax
  1154dc:	0f b7 40 04          	movzwl 0x4(%eax),%eax
  1154e0:	0f b7 d0             	movzwl %ax,%edx
  1154e3:	8b 45 f8             	mov    0xfffffff8(%ebp),%eax
  1154e6:	8b 40 08             	mov    0x8(%eax),%eax
  1154e9:	89 4c 24 10          	mov    %ecx,0x10(%esp)
  1154ed:	89 5c 24 0c          	mov    %ebx,0xc(%esp)
  1154f1:	89 54 24 08          	mov    %edx,0x8(%esp)
  1154f5:	89 44 24 04          	mov    %eax,0x4(%esp)
  1154f9:	c7 04 24 02 00 00 00 	movl   $0x2,(%esp)
  115500:	e8 65 0f 00 00       	call   0x11646a
  115505:	89 c2                	mov    %eax,%edx
  115507:	8b 45 f8             	mov    0xfffffff8(%ebp),%eax
  11550a:	66 89 50 06          	mov    %dx,0x6(%eax)
  11550e:	eb 4c                	jmp    0x11555c
  115510:	8b 45 f8             	mov    0xfffffff8(%ebp),%eax
  115513:	8b 48 0c             	mov    0xc(%eax),%ecx
  115516:	8b 45 f8             	mov    0xfffffff8(%ebp),%eax
  115519:	0f b7 40 06          	movzwl 0x6(%eax),%eax
  11551d:	0f b7 d8             	movzwl %ax,%ebx
  115520:	8b 45 f8             	mov    0xfffffff8(%ebp),%eax
  115523:	0f b7 40 04          	movzwl 0x4(%eax),%eax
  115527:	0f b7 d0             	movzwl %ax,%edx
  11552a:	8b 45 f8             	mov    0xfffffff8(%ebp),%eax
  11552d:	8b 40 08             	mov    0x8(%eax),%eax
  115530:	89 4c 24 10          	mov    %ecx,0x10(%esp)
  115534:	89 5c 24 0c          	mov    %ebx,0xc(%esp)
  115538:	89 54 24 08          	mov    %edx,0x8(%esp)
  11553c:	89 44 24 04          	mov    %eax,0x4(%esp)
  115540:	c7 04 24 03 00 00 00 	movl   $0x3,(%esp)
  115547:	e8 1e 0f 00 00       	call   0x11646a
  11554c:	89 c2                	mov    %eax,%edx
  11554e:	8b 45 f8             	mov    0xfffffff8(%ebp),%eax
  115551:	66 89 50 06          	mov    %dx,0x6(%eax)
  115555:	eb 05                	jmp    0x11555c
  115557:	e8 39 12 00 00       	call   0x116795
  11555c:	8b 45 d0             	mov    0xffffffd0(%ebp),%eax
  11555f:	8d 55 d0             	lea    0xffffffd0(%ebp),%edx
  115562:	89 54 24 08          	mov    %edx,0x8(%esp)
  115566:	89 44 24 04          	mov    %eax,0x4(%esp)
  11556a:	c7 04 24 00 00 00 00 	movl   $0x0,(%esp)
  115571:	e8 9d f4 ff ff       	call   0x114a13
  115576:	85 c0                	test   %eax,%eax
  115578:	0f 84 03 fe ff ff    	je     0x115381
  11557e:	c7 44 24 0c 29 00 00 	movl   $0x29,0xc(%esp)
  115585:	00 
  115586:	c7 44 24 08 84 8e 11 	movl   $0x118e84,0x8(%esp)
  11558d:	00 
  11558e:	c7 44 24 04 84 8e 11 	movl   $0x118e84,0x4(%esp)
  115595:	00 
  115596:	c7 04 24 1c 8f 11 00 	movl   $0x118f1c,(%esp)
  11559d:	e8 72 ce ff ff       	call   0x112414
  1155a2:	e9 da fd ff ff       	jmp    0x115381
  1155a7:	55                   	push   %ebp
  1155a8:	89 e5                	mov    %esp,%ebp
  1155aa:	83 ec 10             	sub    $0x10,%esp
  1155ad:	b8 75 04 00 00       	mov    $0x475,%eax
  1155b2:	0f b6 00             	movzbl (%eax),%eax
  1155b5:	a2 a6 ac 11 00       	mov    %al,0x11aca6
  1155ba:	c7 45 f8 40 bc 11 00 	movl   $0x11bc40,0xfffffff8(%ebp)
  1155c1:	e9 72 01 00 00       	jmp    0x115738
  1155c6:	8b 45 f8             	mov    0xfffffff8(%ebp),%eax
  1155c9:	c7 00 00 00 00 00    	movl   $0x0,(%eax)
  1155cf:	8b 45 f8             	mov    0xfffffff8(%ebp),%eax
  1155d2:	c7 40 04 00 00 00 00 	movl   $0x0,0x4(%eax)
  1155d9:	8b 45 f8             	mov    0xfffffff8(%ebp),%eax
  1155dc:	c7 40 08 00 00 00 00 	movl   $0x0,0x8(%eax)
  1155e3:	8b 45 f8             	mov    0xfffffff8(%ebp),%eax
  1155e6:	c7 40 0c 00 00 00 00 	movl   $0x0,0xc(%eax)
  1155ed:	c7 45 fc 00 00 00 00 	movl   $0x0,0xfffffffc(%ebp)
  1155f4:	e9 8b 00 00 00       	jmp    0x115684
  1155f9:	8b 55 fc             	mov    0xfffffffc(%ebp),%edx
  1155fc:	8b 4d f8             	mov    0xfffffff8(%ebp),%ecx
  1155ff:	89 d0                	mov    %edx,%eax
  115601:	c1 e0 02             	shl    $0x2,%eax
  115604:	01 d0                	add    %edx,%eax
  115606:	c1 e0 02             	shl    $0x2,%eax
  115609:	01 c8                	add    %ecx,%eax
  11560b:	83 c0 10             	add    $0x10,%eax
  11560e:	c7 00 ff ff ff ff    	movl   $0xffffffff,(%eax)
  115614:	8b 55 fc             	mov    0xfffffffc(%ebp),%edx
  115617:	8b 4d f8             	mov    0xfffffff8(%ebp),%ecx
  11561a:	89 d0                	mov    %edx,%eax
  11561c:	c1 e0 02             	shl    $0x2,%eax
  11561f:	01 d0                	add    %edx,%eax
  115621:	c1 e0 02             	shl    $0x2,%eax
  115624:	01 c8                	add    %ecx,%eax
  115626:	83 c0 14             	add    $0x14,%eax
  115629:	c7 00 00 00 00 00    	movl   $0x0,(%eax)
  11562f:	8b 55 fc             	mov    0xfffffffc(%ebp),%edx
  115632:	8b 4d f8             	mov    0xfffffff8(%ebp),%ecx
  115635:	89 d0                	mov    %edx,%eax
  115637:	c1 e0 02             	shl    $0x2,%eax
  11563a:	01 d0                	add    %edx,%eax
  11563c:	c1 e0 02             	shl    $0x2,%eax
  11563f:	01 c8                	add    %ecx,%eax
  115641:	83 c0 18             	add    $0x18,%eax
  115644:	c7 00 00 00 00 00    	movl   $0x0,(%eax)
  11564a:	8b 55 fc             	mov    0xfffffffc(%ebp),%edx
  11564d:	8b 4d f8             	mov    0xfffffff8(%ebp),%ecx
  115650:	89 d0                	mov    %edx,%eax
  115652:	c1 e0 02             	shl    $0x2,%eax
  115655:	01 d0                	add    %edx,%eax
  115657:	c1 e0 02             	shl    $0x2,%eax
  11565a:	01 c8                	add    %ecx,%eax
  11565c:	83 c0 1c             	add    $0x1c,%eax
  11565f:	c7 00 00 00 00 00    	movl   $0x0,(%eax)
  115665:	8b 55 fc             	mov    0xfffffffc(%ebp),%edx
  115668:	8b 4d f8             	mov    0xfffffff8(%ebp),%ecx
  11566b:	89 d0                	mov    %edx,%eax
  11566d:	c1 e0 02             	shl    $0x2,%eax
  115670:	01 d0                	add    %edx,%eax
  115672:	c1 e0 02             	shl    $0x2,%eax
  115675:	01 c8                	add    %ecx,%eax
  115677:	83 c0 20             	add    $0x20,%eax
  11567a:	c7 00 00 00 00 00    	movl   $0x0,(%eax)
  115680:	83 45 fc 01          	addl   $0x1,0xfffffffc(%ebp)
  115684:	83 7d fc 04          	cmpl   $0x4,0xfffffffc(%ebp)
  115688:	0f 8e 6b ff ff ff    	jle    0x1155f9
  11568e:	c7 45 fc 00 00 00 00 	movl   $0x0,0xfffffffc(%ebp)
  115695:	e9 8d 00 00 00       	jmp    0x115727
  11569a:	8b 55 fc             	mov    0xfffffffc(%ebp),%edx
  11569d:	8b 4d f8             	mov    0xfffffff8(%ebp),%ecx
  1156a0:	89 d0                	mov    %edx,%eax
  1156a2:	c1 e0 02             	shl    $0x2,%eax
  1156a5:	01 d0                	add    %edx,%eax
  1156a7:	c1 e0 02             	shl    $0x2,%eax
  1156aa:	01 c8                	add    %ecx,%eax
  1156ac:	83 c0 74             	add    $0x74,%eax
  1156af:	c7 00 ff ff ff ff    	movl   $0xffffffff,(%eax)
  1156b5:	8b 55 fc             	mov    0xfffffffc(%ebp),%edx
  1156b8:	8b 4d f8             	mov    0xfffffff8(%ebp),%ecx
  1156bb:	89 d0                	mov    %edx,%eax
  1156bd:	c1 e0 02             	shl    $0x2,%eax
  1156c0:	01 d0                	add    %edx,%eax
  1156c2:	c1 e0 02             	shl    $0x2,%eax
  1156c5:	01 c8                	add    %ecx,%eax
  1156c7:	83 c0 78             	add    $0x78,%eax
  1156ca:	c7 00 00 00 00 00    	movl   $0x0,(%eax)
  1156d0:	8b 55 fc             	mov    0xfffffffc(%ebp),%edx
  1156d3:	8b 4d f8             	mov    0xfffffff8(%ebp),%ecx
  1156d6:	89 d0                	mov    %edx,%eax
  1156d8:	c1 e0 02             	shl    $0x2,%eax
  1156db:	01 d0                	add    %edx,%eax
  1156dd:	c1 e0 02             	shl    $0x2,%eax
  1156e0:	01 c8                	add    %ecx,%eax
  1156e2:	83 c0 7c             	add    $0x7c,%eax
  1156e5:	c7 00 00 00 00 00    	movl   $0x0,(%eax)
  1156eb:	8b 55 fc             	mov    0xfffffffc(%ebp),%edx
  1156ee:	8b 4d f8             	mov    0xfffffff8(%ebp),%ecx
  1156f1:	89 d0                	mov    %edx,%eax
  1156f3:	c1 e0 02             	shl    $0x2,%eax
  1156f6:	01 d0                	add    %edx,%eax
  1156f8:	c1 e0 02             	shl    $0x2,%eax
  1156fb:	01 c8                	add    %ecx,%eax
  1156fd:	83 e8 80             	sub    $0xffffff80,%eax
  115700:	c7 00 00 00 00 00    	movl   $0x0,(%eax)
  115706:	8b 55 fc             	mov    0xfffffffc(%ebp),%edx
  115709:	8b 4d f8             	mov    0xfffffff8(%ebp),%ecx
  11570c:	89 d0                	mov    %edx,%eax
  11570e:	c1 e0 02             	shl    $0x2,%eax
  115711:	01 d0                	add    %edx,%eax
  115713:	c1 e0 02             	shl    $0x2,%eax
  115716:	01 c8                	add    %ecx,%eax
  115718:	05 84 00 00 00       	add    $0x84,%eax
  11571d:	c7 00 00 00 00 00    	movl   $0x0,(%eax)
  115723:	83 45 fc 01          	addl   $0x1,0xfffffffc(%ebp)
  115727:	83 7d fc 3f          	cmpl   $0x3f,0xfffffffc(%ebp)
  11572b:	0f 8e 69 ff ff ff    	jle    0x11569a
  115731:	81 45 f8 74 05 00 00 	addl   $0x574,0xfffffff8(%ebp)
  115738:	b8 28 c7 11 00       	mov    $0x11c728,%eax
  11573d:	39 45 f8             	cmp    %eax,0xfffffff8(%ebp)
  115740:	0f 82 80 fe ff ff    	jb     0x1155c6
  115746:	c9                   	leave  
  115747:	c3                   	ret    
  115748:	55                   	push   %ebp
  115749:	89 e5                	mov    %esp,%ebp
  11574b:	83 ec 08             	sub    $0x8,%esp
  11574e:	c7 04 24 f7 01 00 00 	movl   $0x1f7,(%esp)
  115755:	e8 63 db ff ff       	call   0x1132bd
  11575a:	b8 50 db 11 00       	mov    $0x11db50,%eax
  11575f:	89 04 24             	mov    %eax,(%esp)
  115762:	e8 50 fb ff ff       	call   0x1152b7
  115767:	c9                   	leave  
  115768:	c3                   	ret    
  115769:	55                   	push   %ebp
  11576a:	89 e5                	mov    %esp,%ebp
  11576c:	83 ec 48             	sub    $0x48,%esp
  11576f:	8b 45 08             	mov    0x8(%ebp),%eax
  115772:	66 89 45 cc          	mov    %ax,0xffffffcc(%ebp)
  115776:	c7 45 e0 ff ff ff ff 	movl   $0xffffffff,0xffffffe0(%ebp)
  11577d:	c7 45 e4 00 00 00 00 	movl   $0x0,0xffffffe4(%ebp)
  115784:	0f b7 45 cc          	movzwl 0xffffffcc(%ebp),%eax
  115788:	66 89 45 e8          	mov    %ax,0xffffffe8(%ebp)
  11578c:	0f b7 45 cc          	movzwl 0xffffffcc(%ebp),%eax
  115790:	89 44 24 04          	mov    %eax,0x4(%esp)
  115794:	c7 04 24 54 8f 11 00 	movl   $0x118f54,(%esp)
  11579b:	e8 54 df ff ff       	call   0x1136f4
  1157a0:	8d 45 d8             	lea    0xffffffd8(%ebp),%eax
  1157a3:	89 44 24 08          	mov    %eax,0x8(%esp)
  1157a7:	c7 44 24 04 02 00 00 	movl   $0x2,0x4(%esp)
  1157ae:	00 
  1157af:	c7 04 24 02 00 00 00 	movl   $0x2,(%esp)
  1157b6:	e8 58 f2 ff ff       	call   0x114a13
  1157bb:	85 c0                	test   %eax,%eax
  1157bd:	74 24                	je     0x1157e3
  1157bf:	c7 44 24 0c 60 00 00 	movl   $0x60,0xc(%esp)
  1157c6:	00 
  1157c7:	c7 44 24 08 84 8e 11 	movl   $0x118e84,0x8(%esp)
  1157ce:	00 
  1157cf:	c7 44 24 04 84 8e 11 	movl   $0x118e84,0x4(%esp)
  1157d6:	00 
  1157d7:	c7 04 24 68 8f 11 00 	movl   $0x118f68,(%esp)
  1157de:	e8 31 cc ff ff       	call   0x112414
  1157e3:	c9                   	leave  
  1157e4:	c3                   	ret    
  1157e5:	55                   	push   %ebp
  1157e6:	89 e5                	mov    %esp,%ebp
  1157e8:	83 ec 48             	sub    $0x48,%esp
  1157eb:	8b 45 08             	mov    0x8(%ebp),%eax
  1157ee:	66 89 45 cc          	mov    %ax,0xffffffcc(%ebp)
  1157f2:	c7 45 e0 ff ff ff ff 	movl   $0xffffffff,0xffffffe0(%ebp)
  1157f9:	c7 45 e4 01 00 00 00 	movl   $0x1,0xffffffe4(%ebp)
  115800:	0f b7 45 cc          	movzwl 0xffffffcc(%ebp),%eax
  115804:	66 89 45 e8          	mov    %ax,0xffffffe8(%ebp)
  115808:	0f b7 45 cc          	movzwl 0xffffffcc(%ebp),%eax
  11580c:	89 44 24 04          	mov    %eax,0x4(%esp)
  115810:	c7 04 24 8d 8f 11 00 	movl   $0x118f8d,(%esp)
  115817:	e8 d8 de ff ff       	call   0x1136f4
  11581c:	8d 45 d8             	lea    0xffffffd8(%ebp),%eax
  11581f:	89 44 24 08          	mov    %eax,0x8(%esp)
  115823:	c7 44 24 04 02 00 00 	movl   $0x2,0x4(%esp)
  11582a:	00 
  11582b:	c7 04 24 02 00 00 00 	movl   $0x2,(%esp)
  115832:	e8 dc f1 ff ff       	call   0x114a13
  115837:	85 c0                	test   %eax,%eax
  115839:	74 24                	je     0x11585f
  11583b:	c7 44 24 0c 6f 00 00 	movl   $0x6f,0xc(%esp)
  115842:	00 
  115843:	c7 44 24 08 84 8e 11 	movl   $0x118e84,0x8(%esp)
  11584a:	00 
  11584b:	c7 44 24 04 84 8e 11 	movl   $0x118e84,0x4(%esp)
  115852:	00 
  115853:	c7 04 24 68 8f 11 00 	movl   $0x118f68,(%esp)
  11585a:	e8 b5 cb ff ff       	call   0x112414
  11585f:	c9                   	leave  
  115860:	c3                   	ret    
  115861:	55                   	push   %ebp
  115862:	89 e5                	mov    %esp,%ebp
  115864:	83 ec 48             	sub    $0x48,%esp
  115867:	8b 45 08             	mov    0x8(%ebp),%eax
  11586a:	66 89 45 cc          	mov    %ax,0xffffffcc(%ebp)
  11586e:	c7 45 e0 ff ff ff ff 	movl   $0xffffffff,0xffffffe0(%ebp)
  115875:	c7 45 e4 02 00 00 00 	movl   $0x2,0xffffffe4(%ebp)
  11587c:	0f b7 45 cc          	movzwl 0xffffffcc(%ebp),%eax
  115880:	66 89 45 e8          	mov    %ax,0xffffffe8(%ebp)
  115884:	8b 45 0c             	mov    0xc(%ebp),%eax
  115887:	89 45 ec             	mov    %eax,0xffffffec(%ebp)
  11588a:	8b 45 10             	mov    0x10(%ebp),%eax
  11588d:	c1 e8 09             	shr    $0x9,%eax
  115890:	89 45 f0             	mov    %eax,0xfffffff0(%ebp)
  115893:	8b 45 14             	mov    0x14(%ebp),%eax
  115896:	66 89 45 ea          	mov    %ax,0xffffffea(%ebp)
  11589a:	8d 45 d8             	lea    0xffffffd8(%ebp),%eax
  11589d:	89 44 24 08          	mov    %eax,0x8(%esp)
  1158a1:	c7 44 24 04 02 00 00 	movl   $0x2,0x4(%esp)
  1158a8:	00 
  1158a9:	c7 04 24 02 00 00 00 	movl   $0x2,(%esp)
  1158b0:	e8 5e f1 ff ff       	call   0x114a13
  1158b5:	85 c0                	test   %eax,%eax
  1158b7:	74 24                	je     0x1158dd
  1158b9:	c7 44 24 0c 84 00 00 	movl   $0x84,0xc(%esp)
  1158c0:	00 
  1158c1:	c7 44 24 08 84 8e 11 	movl   $0x118e84,0x8(%esp)
  1158c8:	00 
  1158c9:	c7 44 24 04 84 8e 11 	movl   $0x118e84,0x4(%esp)
  1158d0:	00 
  1158d1:	c7 04 24 68 8f 11 00 	movl   $0x118f68,(%esp)
  1158d8:	e8 37 cb ff ff       	call   0x112414
  1158dd:	0f b7 45 ea          	movzwl 0xffffffea(%ebp),%eax
  1158e1:	0f b7 c0             	movzwl %ax,%eax
  1158e4:	c9                   	leave  
  1158e5:	c3                   	ret    
  1158e6:	55                   	push   %ebp
  1158e7:	89 e5                	mov    %esp,%ebp
  1158e9:	83 ec 48             	sub    $0x48,%esp
  1158ec:	8b 45 08             	mov    0x8(%ebp),%eax
  1158ef:	66 89 45 cc          	mov    %ax,0xffffffcc(%ebp)
  1158f3:	c7 45 e0 ff ff ff ff 	movl   $0xffffffff,0xffffffe0(%ebp)
  1158fa:	c7 45 e4 03 00 00 00 	movl   $0x3,0xffffffe4(%ebp)
  115901:	0f b7 45 cc          	movzwl 0xffffffcc(%ebp),%eax
  115905:	66 89 45 e8          	mov    %ax,0xffffffe8(%ebp)
  115909:	8b 45 0c             	mov    0xc(%ebp),%eax
  11590c:	89 45 ec             	mov    %eax,0xffffffec(%ebp)
  11590f:	8b 45 10             	mov    0x10(%ebp),%eax
  115912:	c1 e8 09             	shr    $0x9,%eax
  115915:	89 45 f0             	mov    %eax,0xfffffff0(%ebp)
  115918:	8b 45 14             	mov    0x14(%ebp),%eax
  11591b:	66 89 45 ea          	mov    %ax,0xffffffea(%ebp)
  11591f:	8d 45 d8             	lea    0xffffffd8(%ebp),%eax
  115922:	89 44 24 08          	mov    %eax,0x8(%esp)
  115926:	c7 44 24 04 02 00 00 	movl   $0x2,0x4(%esp)
  11592d:	00 
  11592e:	c7 04 24 02 00 00 00 	movl   $0x2,(%esp)
  115935:	e8 d9 f0 ff ff       	call   0x114a13
  11593a:	85 c0                	test   %eax,%eax
  11593c:	74 24                	je     0x115962
  11593e:	c7 44 24 0c 9b 00 00 	movl   $0x9b,0xc(%esp)
  115945:	00 
  115946:	c7 44 24 08 84 8e 11 	movl   $0x118e84,0x8(%esp)
  11594d:	00 
  11594e:	c7 44 24 04 84 8e 11 	movl   $0x118e84,0x4(%esp)
  115955:	00 
  115956:	c7 04 24 68 8f 11 00 	movl   $0x118f68,(%esp)
  11595d:	e8 b2 ca ff ff       	call   0x112414
  115962:	0f b7 45 ea          	movzwl 0xffffffea(%ebp),%eax
  115966:	0f b7 c0             	movzwl %ax,%eax
  115969:	c9                   	leave  
  11596a:	c3                   	ret    
  11596b:	55                   	push   %ebp
  11596c:	89 e5                	mov    %esp,%ebp
  11596e:	83 ec 48             	sub    $0x48,%esp
  115971:	8b 45 08             	mov    0x8(%ebp),%eax
  115974:	66 89 45 cc          	mov    %ax,0xffffffcc(%ebp)
  115978:	c7 45 e0 ff ff ff ff 	movl   $0xffffffff,0xffffffe0(%ebp)
  11597f:	c7 45 e4 04 00 00 00 	movl   $0x4,0xffffffe4(%ebp)
  115986:	0f b7 45 cc          	movzwl 0xffffffcc(%ebp),%eax
  11598a:	66 89 45 e8          	mov    %ax,0xffffffe8(%ebp)
  11598e:	0f b7 45 cc          	movzwl 0xffffffcc(%ebp),%eax
  115992:	89 44 24 04          	mov    %eax,0x4(%esp)
  115996:	c7 04 24 9f 8f 11 00 	movl   $0x118f9f,(%esp)
  11599d:	e8 52 dd ff ff       	call   0x1136f4
  1159a2:	8d 45 d8             	lea    0xffffffd8(%ebp),%eax
  1159a5:	89 44 24 08          	mov    %eax,0x8(%esp)
  1159a9:	c7 44 24 04 02 00 00 	movl   $0x2,0x4(%esp)
  1159b0:	00 
  1159b1:	c7 04 24 02 00 00 00 	movl   $0x2,(%esp)
  1159b8:	e8 56 f0 ff ff       	call   0x114a13
  1159bd:	85 c0                	test   %eax,%eax
  1159bf:	74 24                	je     0x1159e5
  1159c1:	c7 44 24 0c ab 00 00 	movl   $0xab,0xc(%esp)
  1159c8:	00 
  1159c9:	c7 44 24 08 84 8e 11 	movl   $0x118e84,0x8(%esp)
  1159d0:	00 
  1159d1:	c7 44 24 04 84 8e 11 	movl   $0x118e84,0x4(%esp)
  1159d8:	00 
  1159d9:	c7 04 24 68 8f 11 00 	movl   $0x118f68,(%esp)
  1159e0:	e8 2f ca ff ff       	call   0x112414
  1159e5:	c9                   	leave  
  1159e6:	c3                   	ret    
  1159e7:	55                   	push   %ebp
  1159e8:	89 e5                	mov    %esp,%ebp
  1159ea:	83 ec 18             	sub    $0x18,%esp
  1159ed:	e8 46 1e 00 00       	call   0x117838
  1159f2:	89 45 fc             	mov    %eax,0xfffffffc(%ebp)
  1159f5:	eb 20                	jmp    0x115a17
  1159f7:	c7 04 24 f7 01 00 00 	movl   $0x1f7,(%esp)
  1159fe:	e8 ba d8 ff ff       	call   0x1132bd
  115a03:	0f b6 c0             	movzbl %al,%eax
  115a06:	23 45 08             	and    0x8(%ebp),%eax
  115a09:	3b 45 0c             	cmp    0xc(%ebp),%eax
  115a0c:	75 09                	jne    0x115a17
  115a0e:	c7 45 ec 00 00 00 00 	movl   $0x0,0xffffffec(%ebp)
  115a15:	eb 1a                	jmp    0x115a31
  115a17:	e8 1c 1e 00 00       	call   0x117838
  115a1c:	89 c2                	mov    %eax,%edx
  115a1e:	8b 45 fc             	mov    0xfffffffc(%ebp),%eax
  115a21:	29 c2                	sub    %eax,%edx
  115a23:	8b 45 10             	mov    0x10(%ebp),%eax
  115a26:	39 c2                	cmp    %eax,%edx
  115a28:	72 cd                	jb     0x1159f7
  115a2a:	c7 45 ec ff ff ff ff 	movl   $0xffffffff,0xffffffec(%ebp)
  115a31:	8b 45 ec             	mov    0xffffffec(%ebp),%eax
  115a34:	c9                   	leave  
  115a35:	c3                   	ret    
  115a36:	55                   	push   %ebp
  115a37:	89 e5                	mov    %esp,%ebp
  115a39:	83 ec 18             	sub    $0x18,%esp
  115a3c:	c7 44 24 08 64 00 00 	movl   $0x64,0x8(%esp)
  115a43:	00 
  115a44:	c7 44 24 04 00 00 00 	movl   $0x0,0x4(%esp)
  115a4b:	00 
  115a4c:	c7 04 24 80 00 00 00 	movl   $0x80,(%esp)
  115a53:	e8 8f ff ff ff       	call   0x1159e7
  115a58:	83 f8 ff             	cmp    $0xffffffff,%eax
  115a5b:	75 0e                	jne    0x115a6b
  115a5d:	c7 04 24 b4 8f 11 00 	movl   $0x118fb4,(%esp)
  115a64:	e8 8b dc ff ff       	call   0x1136f4
  115a69:	eb fe                	jmp    0x115a69
  115a6b:	c7 44 24 04 00 00 00 	movl   $0x0,0x4(%esp)
  115a72:	00 
  115a73:	c7 04 24 f6 03 00 00 	movl   $0x3f6,(%esp)
  115a7a:	e8 2f d8 ff ff       	call   0x1132ae
  115a7f:	8b 45 08             	mov    0x8(%ebp),%eax
  115a82:	0f b6 00             	movzbl (%eax),%eax
  115a85:	0f b6 c0             	movzbl %al,%eax
  115a88:	89 44 24 04          	mov    %eax,0x4(%esp)
  115a8c:	c7 04 24 f1 01 00 00 	movl   $0x1f1,(%esp)
  115a93:	e8 16 d8 ff ff       	call   0x1132ae
  115a98:	8b 45 08             	mov    0x8(%ebp),%eax
  115a9b:	0f b6 40 01          	movzbl 0x1(%eax),%eax
  115a9f:	0f b6 c0             	movzbl %al,%eax
  115aa2:	89 44 24 04          	mov    %eax,0x4(%esp)
  115aa6:	c7 04 24 f2 01 00 00 	movl   $0x1f2,(%esp)
  115aad:	e8 fc d7 ff ff       	call   0x1132ae
  115ab2:	8b 45 08             	mov    0x8(%ebp),%eax
  115ab5:	0f b6 40 02          	movzbl 0x2(%eax),%eax
  115ab9:	0f b6 c0             	movzbl %al,%eax
  115abc:	89 44 24 04          	mov    %eax,0x4(%esp)
  115ac0:	c7 04 24 f3 01 00 00 	movl   $0x1f3,(%esp)
  115ac7:	e8 e2 d7 ff ff       	call   0x1132ae
  115acc:	8b 45 08             	mov    0x8(%ebp),%eax
  115acf:	0f b6 40 03          	movzbl 0x3(%eax),%eax
  115ad3:	0f b6 c0             	movzbl %al,%eax
  115ad6:	89 44 24 04          	mov    %eax,0x4(%esp)
  115ada:	c7 04 24 f4 01 00 00 	movl   $0x1f4,(%esp)
  115ae1:	e8 c8 d7 ff ff       	call   0x1132ae
  115ae6:	8b 45 08             	mov    0x8(%ebp),%eax
  115ae9:	0f b6 40 04          	movzbl 0x4(%eax),%eax
  115aed:	0f b6 c0             	movzbl %al,%eax
  115af0:	89 44 24 04          	mov    %eax,0x4(%esp)
  115af4:	c7 04 24 f5 01 00 00 	movl   $0x1f5,(%esp)
  115afb:	e8 ae d7 ff ff       	call   0x1132ae
  115b00:	8b 45 08             	mov    0x8(%ebp),%eax
  115b03:	0f b6 40 05          	movzbl 0x5(%eax),%eax
  115b07:	0f b6 c0             	movzbl %al,%eax
  115b0a:	89 44 24 04          	mov    %eax,0x4(%esp)
  115b0e:	c7 04 24 f6 01 00 00 	movl   $0x1f6,(%esp)
  115b15:	e8 94 d7 ff ff       	call   0x1132ae
  115b1a:	8b 45 08             	mov    0x8(%ebp),%eax
  115b1d:	0f b6 40 06          	movzbl 0x6(%eax),%eax
  115b21:	0f b6 c0             	movzbl %al,%eax
  115b24:	89 44 24 04          	mov    %eax,0x4(%esp)
  115b28:	c7 04 24 f7 01 00 00 	movl   $0x1f7,(%esp)
  115b2f:	e8 7a d7 ff ff       	call   0x1132ae
  115b34:	c9                   	leave  
  115b35:	c3                   	ret    
  115b36:	55                   	push   %ebp
  115b37:	89 e5                	mov    %esp,%ebp
  115b39:	83 ec 08             	sub    $0x8,%esp
  115b3c:	8b 45 08             	mov    0x8(%ebp),%eax
  115b3f:	66 89 45 fc          	mov    %ax,0xfffffffc(%ebp)
  115b43:	eb 18                	jmp    0x115b5d
  115b45:	0f b7 45 fc          	movzwl 0xfffffffc(%ebp),%eax
  115b49:	89 04 24             	mov    %eax,(%esp)
  115b4c:	e8 89 d7 ff ff       	call   0x1132da
  115b51:	89 c2                	mov    %eax,%edx
  115b53:	8b 45 0c             	mov    0xc(%ebp),%eax
  115b56:	66 89 10             	mov    %dx,(%eax)
  115b59:	83 45 0c 02          	addl   $0x2,0xc(%ebp)
  115b5d:	83 7d 10 00          	cmpl   $0x0,0x10(%ebp)
  115b61:	0f 9f c0             	setg   %al
  115b64:	83 6d 10 01          	subl   $0x1,0x10(%ebp)
  115b68:	84 c0                	test   %al,%al
  115b6a:	75 d9                	jne    0x115b45
  115b6c:	b8 00 00 00 00       	mov    $0x0,%eax
  115b71:	c9                   	leave  
  115b72:	c3                   	ret    
  115b73:	55                   	push   %ebp
  115b74:	89 e5                	mov    %esp,%ebp
  115b76:	83 ec 18             	sub    $0x18,%esp
  115b79:	8b 45 08             	mov    0x8(%ebp),%eax
  115b7c:	66 89 45 fc          	mov    %ax,0xfffffffc(%ebp)
  115b80:	eb 1d                	jmp    0x115b9f
  115b82:	8b 45 0c             	mov    0xc(%ebp),%eax
  115b85:	0f b7 00             	movzwl (%eax),%eax
  115b88:	0f b7 d0             	movzwl %ax,%edx
  115b8b:	83 45 0c 02          	addl   $0x2,0xc(%ebp)
  115b8f:	0f b7 45 fc          	movzwl 0xfffffffc(%ebp),%eax
  115b93:	89 54 24 04          	mov    %edx,0x4(%esp)
  115b97:	89 04 24             	mov    %eax,(%esp)
  115b9a:	e8 2b d7 ff ff       	call   0x1132ca
  115b9f:	83 7d 10 00          	cmpl   $0x0,0x10(%ebp)
  115ba3:	0f 9f c0             	setg   %al
  115ba6:	83 6d 10 01          	subl   $0x1,0x10(%ebp)
  115baa:	84 c0                	test   %al,%al
  115bac:	75 d4                	jne    0x115b82
  115bae:	b8 00 00 00 00       	mov    $0x0,%eax
  115bb3:	c9                   	leave  
  115bb4:	c3                   	ret    
  115bb5:	55                   	push   %ebp
  115bb6:	89 e5                	mov    %esp,%ebp
  115bb8:	81 ec 88 00 00 00    	sub    $0x88,%esp
  115bbe:	c7 45 90 0a 00 00 00 	movl   $0xa,0xffffff90(%ebp)
  115bc5:	c7 45 94 14 00 00 00 	movl   $0x14,0xffffff94(%ebp)
  115bcc:	c7 45 98 d5 8f 11 00 	movl   $0x118fd5,0xffffff98(%ebp)
  115bd3:	c7 45 9c 1b 00 00 00 	movl   $0x1b,0xffffff9c(%ebp)
  115bda:	c7 45 a0 28 00 00 00 	movl   $0x28,0xffffffa0(%ebp)
  115be1:	c7 45 a4 db 8f 11 00 	movl   $0x118fdb,0xffffffa4(%ebp)
  115be8:	c7 45 ec 00 00 00 00 	movl   $0x0,0xffffffec(%ebp)
  115bef:	e9 ab 00 00 00       	jmp    0x115c9f
  115bf4:	8b 55 ec             	mov    0xffffffec(%ebp),%edx
  115bf7:	89 d0                	mov    %edx,%eax
  115bf9:	01 c0                	add    %eax,%eax
  115bfb:	01 d0                	add    %edx,%eax
  115bfd:	c1 e0 02             	shl    $0x2,%eax
  115c00:	01 e8                	add    %ebp,%eax
  115c02:	83 e8 70             	sub    $0x70,%eax
  115c05:	8b 00                	mov    (%eax),%eax
  115c07:	01 c0                	add    %eax,%eax
  115c09:	03 45 08             	add    0x8(%ebp),%eax
  115c0c:	89 45 fc             	mov    %eax,0xfffffffc(%ebp)
  115c0f:	c7 45 e8 00 00 00 00 	movl   $0x0,0xffffffe8(%ebp)
  115c16:	eb 2e                	jmp    0x115c46
  115c18:	8b 45 e8             	mov    0xffffffe8(%ebp),%eax
  115c1b:	01 c0                	add    %eax,%eax
  115c1d:	8d 50 01             	lea    0x1(%eax),%edx
  115c20:	8b 45 fc             	mov    0xfffffffc(%ebp),%eax
  115c23:	0f b6 00             	movzbl (%eax),%eax
  115c26:	88 44 15 a8          	mov    %al,0xffffffa8(%ebp,%edx,1)
  115c2a:	83 45 fc 01          	addl   $0x1,0xfffffffc(%ebp)
  115c2e:	8b 45 e8             	mov    0xffffffe8(%ebp),%eax
  115c31:	8d 14 00             	lea    (%eax,%eax,1),%edx
  115c34:	8b 45 fc             	mov    0xfffffffc(%ebp),%eax
  115c37:	0f b6 00             	movzbl (%eax),%eax
  115c3a:	88 44 15 a8          	mov    %al,0xffffffa8(%ebp,%edx,1)
  115c3e:	83 45 fc 01          	addl   $0x1,0xfffffffc(%ebp)
  115c42:	83 45 e8 01          	addl   $0x1,0xffffffe8(%ebp)
  115c46:	8b 55 ec             	mov    0xffffffec(%ebp),%edx
  115c49:	89 d0                	mov    %edx,%eax
  115c4b:	01 c0                	add    %eax,%eax
  115c4d:	01 d0                	add    %edx,%eax
  115c4f:	c1 e0 02             	shl    $0x2,%eax
  115c52:	01 e8                	add    %ebp,%eax
  115c54:	83 e8 6c             	sub    $0x6c,%eax
  115c57:	8b 10                	mov    (%eax),%edx
  115c59:	89 d0                	mov    %edx,%eax
  115c5b:	c1 e8 1f             	shr    $0x1f,%eax
  115c5e:	01 d0                	add    %edx,%eax
  115c60:	d1 f8                	sar    %eax
  115c62:	3b 45 e8             	cmp    0xffffffe8(%ebp),%eax
  115c65:	7f b1                	jg     0x115c18
  115c67:	8b 45 e8             	mov    0xffffffe8(%ebp),%eax
  115c6a:	01 c0                	add    %eax,%eax
  115c6c:	c6 44 05 a8 00       	movb   $0x0,0xffffffa8(%ebp,%eax,1)
  115c71:	8b 55 ec             	mov    0xffffffec(%ebp),%edx
  115c74:	89 d0                	mov    %edx,%eax
  115c76:	01 c0                	add    %eax,%eax
  115c78:	01 d0                	add    %edx,%eax
  115c7a:	c1 e0 02             	shl    $0x2,%eax
  115c7d:	01 e8                	add    %ebp,%eax
  115c7f:	83 e8 68             	sub    $0x68,%eax
  115c82:	8b 10                	mov    (%eax),%edx
  115c84:	8d 45 a8             	lea    0xffffffa8(%ebp),%eax
  115c87:	89 44 24 08          	mov    %eax,0x8(%esp)
  115c8b:	89 54 24 04          	mov    %edx,0x4(%esp)
  115c8f:	c7 04 24 e4 8f 11 00 	movl   $0x118fe4,(%esp)
  115c96:	e8 59 da ff ff       	call   0x1136f4
  115c9b:	83 45 ec 01          	addl   $0x1,0xffffffec(%ebp)
  115c9f:	8b 45 ec             	mov    0xffffffec(%ebp),%eax
  115ca2:	83 f8 01             	cmp    $0x1,%eax
  115ca5:	0f 86 49 ff ff ff    	jbe    0x115bf4
  115cab:	8b 45 08             	mov    0x8(%ebp),%eax
  115cae:	83 c0 62             	add    $0x62,%eax
  115cb1:	0f b7 00             	movzwl (%eax),%eax
  115cb4:	0f b7 c0             	movzwl %ax,%eax
  115cb7:	89 45 f0             	mov    %eax,0xfffffff0(%ebp)
  115cba:	8b 45 f0             	mov    0xfffffff0(%ebp),%eax
  115cbd:	25 00 02 00 00       	and    $0x200,%eax
  115cc2:	85 c0                	test   %eax,%eax
  115cc4:	74 09                	je     0x115ccf
  115cc6:	c7 45 88 ec 8f 11 00 	movl   $0x118fec,0xffffff88(%ebp)
  115ccd:	eb 07                	jmp    0x115cd6
  115ccf:	c7 45 88 f0 8f 11 00 	movl   $0x118ff0,0xffffff88(%ebp)
  115cd6:	8b 45 88             	mov    0xffffff88(%ebp),%eax
  115cd9:	89 44 24 04          	mov    %eax,0x4(%esp)
  115cdd:	c7 04 24 f3 8f 11 00 	movl   $0x118ff3,(%esp)
  115ce4:	e8 0b da ff ff       	call   0x1136f4
  115ce9:	8b 45 08             	mov    0x8(%ebp),%eax
  115cec:	05 a6 00 00 00       	add    $0xa6,%eax
  115cf1:	0f b7 00             	movzwl (%eax),%eax
  115cf4:	0f b7 c0             	movzwl %ax,%eax
  115cf7:	89 45 f4             	mov    %eax,0xfffffff4(%ebp)
  115cfa:	8b 45 f4             	mov    0xfffffff4(%ebp),%eax
  115cfd:	25 00 04 00 00       	and    $0x400,%eax
  115d02:	85 c0                	test   %eax,%eax
  115d04:	74 09                	je     0x115d0f
  115d06:	c7 45 8c ec 8f 11 00 	movl   $0x118fec,0xffffff8c(%ebp)
  115d0d:	eb 07                	jmp    0x115d16
  115d0f:	c7 45 8c f0 8f 11 00 	movl   $0x118ff0,0xffffff8c(%ebp)
  115d16:	8b 4d 8c             	mov    0xffffff8c(%ebp),%ecx
  115d19:	89 4c 24 04          	mov    %ecx,0x4(%esp)
  115d1d:	c7 04 24 06 90 11 00 	movl   $0x119006,(%esp)
  115d24:	e8 cb d9 ff ff       	call   0x1136f4
  115d29:	8b 45 08             	mov    0x8(%ebp),%eax
  115d2c:	83 c0 7a             	add    $0x7a,%eax
  115d2f:	0f b7 00             	movzwl (%eax),%eax
  115d32:	0f b7 c0             	movzwl %ax,%eax
  115d35:	89 c2                	mov    %eax,%edx
  115d37:	c1 e2 10             	shl    $0x10,%edx
  115d3a:	8b 45 08             	mov    0x8(%ebp),%eax
  115d3d:	83 c0 78             	add    $0x78,%eax
  115d40:	0f b7 00             	movzwl (%eax),%eax
  115d43:	0f b7 c0             	movzwl %ax,%eax
  115d46:	8d 04 02             	lea    (%edx,%eax,1),%eax
  115d49:	89 45 f8             	mov    %eax,0xfffffff8(%ebp)
  115d4c:	8b 45 f8             	mov    0xfffffff8(%ebp),%eax
  115d4f:	89 c1                	mov    %eax,%ecx
  115d51:	c1 e1 09             	shl    $0x9,%ecx
  115d54:	c7 45 84 83 de 1b 43 	movl   $0x431bde83,0xffffff84(%ebp)
  115d5b:	8b 45 84             	mov    0xffffff84(%ebp),%eax
  115d5e:	f7 e9                	imul   %ecx
  115d60:	c1 fa 12             	sar    $0x12,%edx
  115d63:	89 c8                	mov    %ecx,%eax
  115d65:	c1 f8 1f             	sar    $0x1f,%eax
  115d68:	89 d1                	mov    %edx,%ecx
  115d6a:	29 c1                	sub    %eax,%ecx
  115d6c:	89 c8                	mov    %ecx,%eax
  115d6e:	89 44 24 04          	mov    %eax,0x4(%esp)
  115d72:	c7 04 24 1b 90 11 00 	movl   $0x11901b,(%esp)
  115d79:	e8 76 d9 ff ff       	call   0x1136f4
  115d7e:	c9                   	leave  
  115d7f:	c3                   	ret    
  115d80:	55                   	push   %ebp
  115d81:	89 e5                	mov    %esp,%ebp
  115d83:	53                   	push   %ebx
  115d84:	83 ec 44             	sub    $0x44,%esp
  115d87:	8b 45 08             	mov    0x8(%ebp),%eax
  115d8a:	88 45 c8             	mov    %al,0xffffffc8(%ebp)
  115d8d:	0f b6 45 c8          	movzbl 0xffffffc8(%ebp),%eax
  115d91:	69 c0 74 05 00 00    	imul   $0x574,%eax,%eax
  115d97:	05 40 bc 11 00       	add    $0x11bc40,%eax
  115d9c:	89 45 e0             	mov    %eax,0xffffffe0(%ebp)
  115d9f:	c6 45 da 01          	movb   $0x1,0xffffffda(%ebp)
  115da3:	c6 45 db 00          	movb   $0x0,0xffffffdb(%ebp)
  115da7:	c6 45 dc 00          	movb   $0x0,0xffffffdc(%ebp)
  115dab:	c6 45 dd 00          	movb   $0x0,0xffffffdd(%ebp)
  115daf:	0f b6 45 c8          	movzbl 0xffffffc8(%ebp),%eax
  115db3:	c1 e0 04             	shl    $0x4,%eax
  115db6:	89 c2                	mov    %eax,%edx
  115db8:	b8 e0 ff ff ff       	mov    $0xffffffe0,%eax
  115dbd:	09 d0                	or     %edx,%eax
  115dbf:	88 45 de             	mov    %al,0xffffffde(%ebp)
  115dc2:	c6 45 df 20          	movb   $0x20,0xffffffdf(%ebp)
  115dc6:	8d 45 d9             	lea    0xffffffd9(%ebp),%eax
  115dc9:	89 04 24             	mov    %eax,(%esp)
  115dcc:	e8 65 fc ff ff       	call   0x115a36
  115dd1:	e8 ca ec ff ff       	call   0x114aa0
  115dd6:	b8 00 d4 11 00       	mov    $0x11d400,%eax
  115ddb:	c7 44 24 08 00 01 00 	movl   $0x100,0x8(%esp)
  115de2:	00 
  115de3:	89 44 24 04          	mov    %eax,0x4(%esp)
  115de7:	c7 04 24 f0 01 00 00 	movl   $0x1f0,(%esp)
  115dee:	e8 43 fd ff ff       	call   0x115b36
  115df3:	b8 00 d4 11 00       	mov    $0x11d400,%eax
  115df8:	05 be 01 00 00       	add    $0x1be,%eax
  115dfd:	89 45 e4             	mov    %eax,0xffffffe4(%ebp)
  115e00:	c7 45 e8 01 00 00 00 	movl   $0x1,0xffffffe8(%ebp)
  115e07:	e9 f5 00 00 00       	jmp    0x115f01
  115e0c:	8b 45 e4             	mov    0xffffffe4(%ebp),%eax
  115e0f:	8b 40 0c             	mov    0xc(%eax),%eax
  115e12:	85 c0                	test   %eax,%eax
  115e14:	0f 84 df 00 00 00    	je     0x115ef9
  115e1a:	8b 55 e8             	mov    0xffffffe8(%ebp),%edx
  115e1d:	8b 45 e4             	mov    0xffffffe4(%ebp),%eax
  115e20:	8b 58 08             	mov    0x8(%eax),%ebx
  115e23:	8b 4d e0             	mov    0xffffffe0(%ebp),%ecx
  115e26:	89 d0                	mov    %edx,%eax
  115e28:	c1 e0 02             	shl    $0x2,%eax
  115e2b:	01 d0                	add    %edx,%eax
  115e2d:	c1 e0 02             	shl    $0x2,%eax
  115e30:	01 c8                	add    %ecx,%eax
  115e32:	83 c0 14             	add    $0x14,%eax
  115e35:	89 18                	mov    %ebx,(%eax)
  115e37:	8b 55 e8             	mov    0xffffffe8(%ebp),%edx
  115e3a:	8b 45 e4             	mov    0xffffffe4(%ebp),%eax
  115e3d:	8b 58 0c             	mov    0xc(%eax),%ebx
  115e40:	8b 4d e0             	mov    0xffffffe0(%ebp),%ecx
  115e43:	89 d0                	mov    %edx,%eax
  115e45:	c1 e0 02             	shl    $0x2,%eax
  115e48:	01 d0                	add    %edx,%eax
  115e4a:	c1 e0 02             	shl    $0x2,%eax
  115e4d:	01 c8                	add    %ecx,%eax
  115e4f:	83 c0 18             	add    $0x18,%eax
  115e52:	89 18                	mov    %ebx,(%eax)
  115e54:	8b 55 e8             	mov    0xffffffe8(%ebp),%edx
  115e57:	8b 45 e4             	mov    0xffffffe4(%ebp),%eax
  115e5a:	8b 40 08             	mov    0x8(%eax),%eax
  115e5d:	89 c3                	mov    %eax,%ebx
  115e5f:	c1 e3 09             	shl    $0x9,%ebx
  115e62:	8b 4d e0             	mov    0xffffffe0(%ebp),%ecx
  115e65:	89 d0                	mov    %edx,%eax
  115e67:	c1 e0 02             	shl    $0x2,%eax
  115e6a:	01 d0                	add    %edx,%eax
  115e6c:	c1 e0 02             	shl    $0x2,%eax
  115e6f:	01 c8                	add    %ecx,%eax
  115e71:	83 c0 1c             	add    $0x1c,%eax
  115e74:	89 18                	mov    %ebx,(%eax)
  115e76:	8b 55 e8             	mov    0xffffffe8(%ebp),%edx
  115e79:	8b 45 e4             	mov    0xffffffe4(%ebp),%eax
  115e7c:	8b 40 0c             	mov    0xc(%eax),%eax
  115e7f:	89 c3                	mov    %eax,%ebx
  115e81:	c1 e3 09             	shl    $0x9,%ebx
  115e84:	8b 4d e0             	mov    0xffffffe0(%ebp),%ecx
  115e87:	89 d0                	mov    %edx,%eax
  115e89:	c1 e0 02             	shl    $0x2,%eax
  115e8c:	01 d0                	add    %edx,%eax
  115e8e:	c1 e0 02             	shl    $0x2,%eax
  115e91:	01 c8                	add    %ecx,%eax
  115e93:	83 c0 20             	add    $0x20,%eax
  115e96:	89 18                	mov    %ebx,(%eax)
  115e98:	8b 45 e4             	mov    0xffffffe4(%ebp),%eax
  115e9b:	0f b6 40 04          	movzbl 0x4(%eax),%eax
  115e9f:	3c 05                	cmp    $0x5,%al
  115ea1:	74 2c                	je     0x115ecf
  115ea3:	8b 45 e0             	mov    0xffffffe0(%ebp),%eax
  115ea6:	8b 40 04             	mov    0x4(%eax),%eax
  115ea9:	8d 50 01             	lea    0x1(%eax),%edx
  115eac:	8b 45 e0             	mov    0xffffffe0(%ebp),%eax
  115eaf:	89 50 04             	mov    %edx,0x4(%eax)
  115eb2:	8b 55 e8             	mov    0xffffffe8(%ebp),%edx
  115eb5:	8b 4d e0             	mov    0xffffffe0(%ebp),%ecx
  115eb8:	89 d0                	mov    %edx,%eax
  115eba:	c1 e0 02             	shl    $0x2,%eax
  115ebd:	01 d0                	add    %edx,%eax
  115ebf:	c1 e0 02             	shl    $0x2,%eax
  115ec2:	01 c8                	add    %ecx,%eax
  115ec4:	83 c0 10             	add    $0x10,%eax
  115ec7:	c7 00 00 00 00 00    	movl   $0x0,(%eax)
  115ecd:	eb 2a                	jmp    0x115ef9
  115ecf:	8b 45 e0             	mov    0xffffffe0(%ebp),%eax
  115ed2:	8b 40 08             	mov    0x8(%eax),%eax
  115ed5:	8d 50 01             	lea    0x1(%eax),%edx
  115ed8:	8b 45 e0             	mov    0xffffffe0(%ebp),%eax
  115edb:	89 50 08             	mov    %edx,0x8(%eax)
  115ede:	8b 55 e8             	mov    0xffffffe8(%ebp),%edx
  115ee1:	8b 4d e0             	mov    0xffffffe0(%ebp),%ecx
  115ee4:	89 d0                	mov    %edx,%eax
  115ee6:	c1 e0 02             	shl    $0x2,%eax
  115ee9:	01 d0                	add    %edx,%eax
  115eeb:	c1 e0 02             	shl    $0x2,%eax
  115eee:	01 c8                	add    %ecx,%eax
  115ef0:	83 c0 10             	add    $0x10,%eax
  115ef3:	c7 00 01 00 00 00    	movl   $0x1,(%eax)
  115ef9:	83 45 e8 01          	addl   $0x1,0xffffffe8(%ebp)
  115efd:	83 45 e4 10          	addl   $0x10,0xffffffe4(%ebp)
  115f01:	83 7d e8 04          	cmpl   $0x4,0xffffffe8(%ebp)
  115f05:	0f 8e 01 ff ff ff    	jle    0x115e0c
  115f0b:	c7 45 e8 01 00 00 00 	movl   $0x1,0xffffffe8(%ebp)
  115f12:	e9 c4 01 00 00       	jmp    0x1160db
  115f17:	8b 55 e8             	mov    0xffffffe8(%ebp),%edx
  115f1a:	8b 4d e0             	mov    0xffffffe0(%ebp),%ecx
  115f1d:	89 d0                	mov    %edx,%eax
  115f1f:	c1 e0 02             	shl    $0x2,%eax
  115f22:	01 d0                	add    %edx,%eax
  115f24:	c1 e0 02             	shl    $0x2,%eax
  115f27:	01 c8                	add    %ecx,%eax
  115f29:	83 c0 10             	add    $0x10,%eax
  115f2c:	8b 00                	mov    (%eax),%eax
  115f2e:	83 f8 01             	cmp    $0x1,%eax
  115f31:	0f 85 a0 01 00 00    	jne    0x1160d7
  115f37:	8b 55 e8             	mov    0xffffffe8(%ebp),%edx
  115f3a:	8b 4d e0             	mov    0xffffffe0(%ebp),%ecx
  115f3d:	89 d0                	mov    %edx,%eax
  115f3f:	c1 e0 02             	shl    $0x2,%eax
  115f42:	01 d0                	add    %edx,%eax
  115f44:	c1 e0 02             	shl    $0x2,%eax
  115f47:	01 c8                	add    %ecx,%eax
  115f49:	83 c0 14             	add    $0x14,%eax
  115f4c:	8b 00                	mov    (%eax),%eax
  115f4e:	89 45 ec             	mov    %eax,0xffffffec(%ebp)
  115f51:	8b 45 ec             	mov    0xffffffec(%ebp),%eax
  115f54:	89 45 f0             	mov    %eax,0xfffffff0(%ebp)
  115f57:	c7 45 f4 00 00 00 00 	movl   $0x0,0xfffffff4(%ebp)
  115f5e:	c6 45 da 01          	movb   $0x1,0xffffffda(%ebp)
  115f62:	8b 45 f0             	mov    0xfffffff0(%ebp),%eax
  115f65:	89 c2                	mov    %eax,%edx
  115f67:	b8 ff ff ff ff       	mov    $0xffffffff,%eax
  115f6c:	21 d0                	and    %edx,%eax
  115f6e:	88 45 db             	mov    %al,0xffffffdb(%ebp)
  115f71:	8b 45 f0             	mov    0xfffffff0(%ebp),%eax
  115f74:	c1 f8 08             	sar    $0x8,%eax
  115f77:	89 c2                	mov    %eax,%edx
  115f79:	b8 ff ff ff ff       	mov    $0xffffffff,%eax
  115f7e:	21 d0                	and    %edx,%eax
  115f80:	88 45 dc             	mov    %al,0xffffffdc(%ebp)
  115f83:	8b 45 f0             	mov    0xfffffff0(%ebp),%eax
  115f86:	c1 f8 10             	sar    $0x10,%eax
  115f89:	89 c2                	mov    %eax,%edx
  115f8b:	b8 ff ff ff ff       	mov    $0xffffffff,%eax
  115f90:	21 d0                	and    %edx,%eax
  115f92:	88 45 dd             	mov    %al,0xffffffdd(%ebp)
  115f95:	0f b6 45 c8          	movzbl 0xffffffc8(%ebp),%eax
  115f99:	c1 e0 04             	shl    $0x4,%eax
  115f9c:	89 c2                	mov    %eax,%edx
  115f9e:	83 ca 40             	or     $0x40,%edx
  115fa1:	8b 45 f0             	mov    0xfffffff0(%ebp),%eax
  115fa4:	c1 f8 18             	sar    $0x18,%eax
  115fa7:	83 e0 0f             	and    $0xf,%eax
  115faa:	09 c2                	or     %eax,%edx
  115fac:	b8 a0 ff ff ff       	mov    $0xffffffa0,%eax
  115fb1:	09 d0                	or     %edx,%eax
  115fb3:	88 45 de             	mov    %al,0xffffffde(%ebp)
  115fb6:	c6 45 df 20          	movb   $0x20,0xffffffdf(%ebp)
  115fba:	8d 45 d9             	lea    0xffffffd9(%ebp),%eax
  115fbd:	89 04 24             	mov    %eax,(%esp)
  115fc0:	e8 71 fa ff ff       	call   0x115a36
  115fc5:	e8 d6 ea ff ff       	call   0x114aa0
  115fca:	b8 00 d4 11 00       	mov    $0x11d400,%eax
  115fcf:	c7 44 24 08 00 01 00 	movl   $0x100,0x8(%esp)
  115fd6:	00 
  115fd7:	89 44 24 04          	mov    %eax,0x4(%esp)
  115fdb:	c7 04 24 f0 01 00 00 	movl   $0x1f0,(%esp)
  115fe2:	e8 4f fb ff ff       	call   0x115b36
  115fe7:	b8 00 d4 11 00       	mov    $0x11d400,%eax
  115fec:	05 be 01 00 00       	add    $0x1be,%eax
  115ff1:	89 45 e4             	mov    %eax,0xffffffe4(%ebp)
  115ff4:	8b 45 e4             	mov    0xffffffe4(%ebp),%eax
  115ff7:	8b 40 0c             	mov    0xc(%eax),%eax
  115ffa:	85 c0                	test   %eax,%eax
  115ffc:	0f 84 d5 00 00 00    	je     0x1160d7
  116002:	8b 45 e8             	mov    0xffffffe8(%ebp),%eax
  116005:	c1 e0 04             	shl    $0x4,%eax
  116008:	83 e8 10             	sub    $0x10,%eax
  11600b:	03 45 f4             	add    0xfffffff4(%ebp),%eax
  11600e:	89 45 f8             	mov    %eax,0xfffffff8(%ebp)
  116011:	8b 55 f8             	mov    0xfffffff8(%ebp),%edx
  116014:	8b 4d e0             	mov    0xffffffe0(%ebp),%ecx
  116017:	89 d0                	mov    %edx,%eax
  116019:	c1 e0 02             	shl    $0x2,%eax
  11601c:	01 d0                	add    %edx,%eax
  11601e:	c1 e0 02             	shl    $0x2,%eax
  116021:	01 c8                	add    %ecx,%eax
  116023:	83 c0 74             	add    $0x74,%eax
  116026:	c7 00 02 00 00 00    	movl   $0x2,(%eax)
  11602c:	8b 55 f8             	mov    0xfffffff8(%ebp),%edx
  11602f:	8b 45 e4             	mov    0xffffffe4(%ebp),%eax
  116032:	8b 40 08             	mov    0x8(%eax),%eax
  116035:	89 c3                	mov    %eax,%ebx
  116037:	03 5d f0             	add    0xfffffff0(%ebp),%ebx
  11603a:	8b 4d e0             	mov    0xffffffe0(%ebp),%ecx
  11603d:	89 d0                	mov    %edx,%eax
  11603f:	c1 e0 02             	shl    $0x2,%eax
  116042:	01 d0                	add    %edx,%eax
  116044:	c1 e0 02             	shl    $0x2,%eax
  116047:	01 c8                	add    %ecx,%eax
  116049:	83 c0 78             	add    $0x78,%eax
  11604c:	89 18                	mov    %ebx,(%eax)
  11604e:	8b 55 f8             	mov    0xfffffff8(%ebp),%edx
  116051:	8b 45 e4             	mov    0xffffffe4(%ebp),%eax
  116054:	8b 58 0c             	mov    0xc(%eax),%ebx
  116057:	8b 4d e0             	mov    0xffffffe0(%ebp),%ecx
  11605a:	89 d0                	mov    %edx,%eax
  11605c:	c1 e0 02             	shl    $0x2,%eax
  11605f:	01 d0                	add    %edx,%eax
  116061:	c1 e0 02             	shl    $0x2,%eax
  116064:	01 c8                	add    %ecx,%eax
  116066:	83 c0 7c             	add    $0x7c,%eax
  116069:	89 18                	mov    %ebx,(%eax)
  11606b:	8b 4d f8             	mov    0xfffffff8(%ebp),%ecx
  11606e:	8b 45 e4             	mov    0xffffffe4(%ebp),%eax
  116071:	8b 40 08             	mov    0x8(%eax),%eax
  116074:	03 45 f0             	add    0xfffffff0(%ebp),%eax
  116077:	89 c3                	mov    %eax,%ebx
  116079:	c1 e3 09             	shl    $0x9,%ebx
  11607c:	8b 55 e0             	mov    0xffffffe0(%ebp),%edx
  11607f:	89 c8                	mov    %ecx,%eax
  116081:	c1 e0 02             	shl    $0x2,%eax
  116084:	01 c8                	add    %ecx,%eax
  116086:	c1 e0 02             	shl    $0x2,%eax
  116089:	01 d0                	add    %edx,%eax
  11608b:	83 e8 80             	sub    $0xffffff80,%eax
  11608e:	89 18                	mov    %ebx,(%eax)
  116090:	8b 55 f8             	mov    0xfffffff8(%ebp),%edx
  116093:	8b 45 e4             	mov    0xffffffe4(%ebp),%eax
  116096:	8b 40 0c             	mov    0xc(%eax),%eax
  116099:	89 c3                	mov    %eax,%ebx
  11609b:	c1 e3 09             	shl    $0x9,%ebx
  11609e:	8b 4d e0             	mov    0xffffffe0(%ebp),%ecx
  1160a1:	89 d0                	mov    %edx,%eax
  1160a3:	c1 e0 02             	shl    $0x2,%eax
  1160a6:	01 d0                	add    %edx,%eax
  1160a8:	c1 e0 02             	shl    $0x2,%eax
  1160ab:	01 c8                	add    %ecx,%eax
  1160ad:	05 84 00 00 00       	add    $0x84,%eax
  1160b2:	89 18                	mov    %ebx,(%eax)
  1160b4:	83 45 f4 01          	addl   $0x1,0xfffffff4(%ebp)
  1160b8:	83 45 e4 10          	addl   $0x10,0xffffffe4(%ebp)
  1160bc:	8b 45 e4             	mov    0xffffffe4(%ebp),%eax
  1160bf:	8b 40 0c             	mov    0xc(%eax),%eax
  1160c2:	85 c0                	test   %eax,%eax
  1160c4:	74 11                	je     0x1160d7
  1160c6:	8b 45 e4             	mov    0xffffffe4(%ebp),%eax
  1160c9:	8b 40 08             	mov    0x8(%eax),%eax
  1160cc:	03 45 ec             	add    0xffffffec(%ebp),%eax
  1160cf:	89 45 f0             	mov    %eax,0xfffffff0(%ebp)
  1160d2:	e9 87 fe ff ff       	jmp    0x115f5e
  1160d7:	83 45 e8 01          	addl   $0x1,0xffffffe8(%ebp)
  1160db:	83 7d e8 04          	cmpl   $0x4,0xffffffe8(%ebp)
  1160df:	0f 8e 32 fe ff ff    	jle    0x115f17
  1160e5:	83 c4 44             	add    $0x44,%esp
  1160e8:	5b                   	pop    %ebx
  1160e9:	5d                   	pop    %ebp
  1160ea:	c3                   	ret    
  1160eb:	55                   	push   %ebp
  1160ec:	89 e5                	mov    %esp,%ebp
  1160ee:	83 ec 58             	sub    $0x58,%esp
  1160f1:	8b 45 08             	mov    0x8(%ebp),%eax
  1160f4:	66 89 45 cc          	mov    %ax,0xffffffcc(%ebp)
  1160f8:	0f b7 45 cc          	movzwl 0xffffffcc(%ebp),%eax
  1160fc:	69 c0 74 05 00 00    	imul   $0x574,%eax,%eax
  116102:	05 40 bc 11 00       	add    $0x11bc40,%eax
  116107:	89 45 d0             	mov    %eax,0xffffffd0(%ebp)
  11610a:	c7 45 d4 00 00 00 00 	movl   $0x0,0xffffffd4(%ebp)
  116111:	e9 e3 00 00 00       	jmp    0x1161f9
  116116:	8b 55 d4             	mov    0xffffffd4(%ebp),%edx
  116119:	8b 4d d0             	mov    0xffffffd0(%ebp),%ecx
  11611c:	89 d0                	mov    %edx,%eax
  11611e:	c1 e0 02             	shl    $0x2,%eax
  116121:	01 d0                	add    %edx,%eax
  116123:	c1 e0 02             	shl    $0x2,%eax
  116126:	01 c8                	add    %ecx,%eax
  116128:	83 c0 10             	add    $0x10,%eax
  11612b:	8b 00                	mov    (%eax),%eax
  11612d:	83 f8 ff             	cmp    $0xffffffff,%eax
  116130:	0f 84 bf 00 00 00    	je     0x1161f5
  116136:	0f b7 55 cc          	movzwl 0xffffffcc(%ebp),%edx
  11613a:	89 d0                	mov    %edx,%eax
  11613c:	c1 e0 02             	shl    $0x2,%eax
  11613f:	01 d0                	add    %edx,%eax
  116141:	03 45 d4             	add    0xffffffd4(%ebp),%eax
  116144:	89 45 d8             	mov    %eax,0xffffffd8(%ebp)
  116147:	8b 55 d4             	mov    0xffffffd4(%ebp),%edx
  11614a:	8b 4d d0             	mov    0xffffffd0(%ebp),%ecx
  11614d:	89 d0                	mov    %edx,%eax
  11614f:	c1 e0 02             	shl    $0x2,%eax
  116152:	01 d0                	add    %edx,%eax
  116154:	c1 e0 02             	shl    $0x2,%eax
  116157:	01 c8                	add    %ecx,%eax
  116159:	83 c0 10             	add    $0x10,%eax
  11615c:	8b 00                	mov    (%eax),%eax
  11615e:	85 c0                	test   %eax,%eax
  116160:	75 09                	jne    0x11616b
  116162:	c7 45 c8 2a 90 11 00 	movl   $0x11902a,0xffffffc8(%ebp)
  116169:	eb 07                	jmp    0x116172
  11616b:	c7 45 c8 39 90 11 00 	movl   $0x119039,0xffffffc8(%ebp)
  116172:	8b 45 c8             	mov    0xffffffc8(%ebp),%eax
  116175:	89 45 dc             	mov    %eax,0xffffffdc(%ebp)
  116178:	8b 55 d4             	mov    0xffffffd4(%ebp),%edx
  11617b:	8b 4d d0             	mov    0xffffffd0(%ebp),%ecx
  11617e:	89 d0                	mov    %edx,%eax
  116180:	c1 e0 02             	shl    $0x2,%eax
  116183:	01 d0                	add    %edx,%eax
  116185:	c1 e0 02             	shl    $0x2,%eax
  116188:	01 c8                	add    %ecx,%eax
  11618a:	83 c0 14             	add    $0x14,%eax
  11618d:	8b 00                	mov    (%eax),%eax
  11618f:	89 45 e0             	mov    %eax,0xffffffe0(%ebp)
  116192:	8b 55 d4             	mov    0xffffffd4(%ebp),%edx
  116195:	8b 4d d0             	mov    0xffffffd0(%ebp),%ecx
  116198:	89 d0                	mov    %edx,%eax
  11619a:	c1 e0 02             	shl    $0x2,%eax
  11619d:	01 d0                	add    %edx,%eax
  11619f:	c1 e0 02             	shl    $0x2,%eax
  1161a2:	01 c8                	add    %ecx,%eax
  1161a4:	83 c0 1c             	add    $0x1c,%eax
  1161a7:	8b 00                	mov    (%eax),%eax
  1161a9:	89 45 e4             	mov    %eax,0xffffffe4(%ebp)
  1161ac:	8b 55 d4             	mov    0xffffffd4(%ebp),%edx
  1161af:	8b 4d d0             	mov    0xffffffd0(%ebp),%ecx
  1161b2:	89 d0                	mov    %edx,%eax
  1161b4:	c1 e0 02             	shl    $0x2,%eax
  1161b7:	01 d0                	add    %edx,%eax
  1161b9:	c1 e0 02             	shl    $0x2,%eax
  1161bc:	01 c8                	add    %ecx,%eax
  1161be:	83 c0 20             	add    $0x20,%eax
  1161c1:	8b 00                	mov    (%eax),%eax
  1161c3:	89 45 e8             	mov    %eax,0xffffffe8(%ebp)
  1161c6:	8b 45 e8             	mov    0xffffffe8(%ebp),%eax
  1161c9:	89 44 24 14          	mov    %eax,0x14(%esp)
  1161cd:	8b 45 e4             	mov    0xffffffe4(%ebp),%eax
  1161d0:	89 44 24 10          	mov    %eax,0x10(%esp)
  1161d4:	8b 45 e0             	mov    0xffffffe0(%ebp),%eax
  1161d7:	89 44 24 0c          	mov    %eax,0xc(%esp)
  1161db:	8b 45 dc             	mov    0xffffffdc(%ebp),%eax
  1161de:	89 44 24 08          	mov    %eax,0x8(%esp)
  1161e2:	8b 45 d8             	mov    0xffffffd8(%ebp),%eax
  1161e5:	89 44 24 04          	mov    %eax,0x4(%esp)
  1161e9:	c7 04 24 48 90 11 00 	movl   $0x119048,(%esp)
  1161f0:	e8 ff d4 ff ff       	call   0x1136f4
  1161f5:	83 45 d4 01          	addl   $0x1,0xffffffd4(%ebp)
  1161f9:	83 7d d4 04          	cmpl   $0x4,0xffffffd4(%ebp)
  1161fd:	0f 8e 13 ff ff ff    	jle    0x116116
  116203:	c7 45 d4 00 00 00 00 	movl   $0x0,0xffffffd4(%ebp)
  11620a:	e9 ba 00 00 00       	jmp    0x1162c9
  11620f:	8b 55 d4             	mov    0xffffffd4(%ebp),%edx
  116212:	8b 4d d0             	mov    0xffffffd0(%ebp),%ecx
  116215:	89 d0                	mov    %edx,%eax
  116217:	c1 e0 02             	shl    $0x2,%eax
  11621a:	01 d0                	add    %edx,%eax
  11621c:	c1 e0 02             	shl    $0x2,%eax
  11621f:	01 c8                	add    %ecx,%eax
  116221:	83 c0 74             	add    $0x74,%eax
  116224:	8b 00                	mov    (%eax),%eax
  116226:	83 f8 ff             	cmp    $0xffffffff,%eax
  116229:	0f 84 96 00 00 00    	je     0x1162c5
  11622f:	0f b7 45 cc          	movzwl 0xffffffcc(%ebp),%eax
  116233:	c1 e0 06             	shl    $0x6,%eax
  116236:	03 45 d4             	add    0xffffffd4(%ebp),%eax
  116239:	83 c0 0a             	add    $0xa,%eax
  11623c:	89 45 ec             	mov    %eax,0xffffffec(%ebp)
  11623f:	c7 45 f0 6b 90 11 00 	movl   $0x11906b,0xfffffff0(%ebp)
  116246:	8b 55 d4             	mov    0xffffffd4(%ebp),%edx
  116249:	8b 4d d0             	mov    0xffffffd0(%ebp),%ecx
  11624c:	89 d0                	mov    %edx,%eax
  11624e:	c1 e0 02             	shl    $0x2,%eax
  116251:	01 d0                	add    %edx,%eax
  116253:	c1 e0 02             	shl    $0x2,%eax
  116256:	01 c8                	add    %ecx,%eax
  116258:	83 c0 78             	add    $0x78,%eax
  11625b:	8b 00                	mov    (%eax),%eax
  11625d:	89 45 f4             	mov    %eax,0xfffffff4(%ebp)
  116260:	8b 55 d4             	mov    0xffffffd4(%ebp),%edx
  116263:	8b 4d d0             	mov    0xffffffd0(%ebp),%ecx
  116266:	89 d0                	mov    %edx,%eax
  116268:	c1 e0 02             	shl    $0x2,%eax
  11626b:	01 d0                	add    %edx,%eax
  11626d:	c1 e0 02             	shl    $0x2,%eax
  116270:	01 c8                	add    %ecx,%eax
  116272:	83 e8 80             	sub    $0xffffff80,%eax
  116275:	8b 00                	mov    (%eax),%eax
  116277:	89 45 f8             	mov    %eax,0xfffffff8(%ebp)
  11627a:	8b 55 d4             	mov    0xffffffd4(%ebp),%edx
  11627d:	8b 4d d0             	mov    0xffffffd0(%ebp),%ecx
  116280:	89 d0                	mov    %edx,%eax
  116282:	c1 e0 02             	shl    $0x2,%eax
  116285:	01 d0                	add    %edx,%eax
  116287:	c1 e0 02             	shl    $0x2,%eax
  11628a:	01 c8                	add    %ecx,%eax
  11628c:	05 84 00 00 00       	add    $0x84,%eax
  116291:	8b 00                	mov    (%eax),%eax
  116293:	89 45 fc             	mov    %eax,0xfffffffc(%ebp)
  116296:	8b 45 fc             	mov    0xfffffffc(%ebp),%eax
  116299:	89 44 24 14          	mov    %eax,0x14(%esp)
  11629d:	8b 45 f8             	mov    0xfffffff8(%ebp),%eax
  1162a0:	89 44 24 10          	mov    %eax,0x10(%esp)
  1162a4:	8b 45 f4             	mov    0xfffffff4(%ebp),%eax
  1162a7:	89 44 24 0c          	mov    %eax,0xc(%esp)
  1162ab:	8b 45 f0             	mov    0xfffffff0(%ebp),%eax
  1162ae:	89 44 24 08          	mov    %eax,0x8(%esp)
  1162b2:	8b 45 ec             	mov    0xffffffec(%ebp),%eax
  1162b5:	89 44 24 04          	mov    %eax,0x4(%esp)
  1162b9:	c7 04 24 48 90 11 00 	movl   $0x119048,(%esp)
  1162c0:	e8 2f d4 ff ff       	call   0x1136f4
  1162c5:	83 45 d4 01          	addl   $0x1,0xffffffd4(%ebp)
  1162c9:	83 7d d4 3f          	cmpl   $0x3f,0xffffffd4(%ebp)
  1162cd:	0f 8e 3c ff ff ff    	jle    0x11620f
  1162d3:	c9                   	leave  
  1162d4:	c3                   	ret    
  1162d5:	55                   	push   %ebp
  1162d6:	89 e5                	mov    %esp,%ebp
  1162d8:	83 ec 28             	sub    $0x28,%esp
  1162db:	8b 45 08             	mov    0x8(%ebp),%eax
  1162de:	66 89 45 ec          	mov    %ax,0xffffffec(%ebp)
  1162e2:	0f b7 45 ec          	movzwl 0xffffffec(%ebp),%eax
  1162e6:	25 ff 00 00 00       	and    $0xff,%eax
  1162eb:	83 f8 09             	cmp    $0x9,%eax
  1162ee:	7f 23                	jg     0x116313
  1162f0:	0f b7 45 ec          	movzwl 0xffffffec(%ebp),%eax
  1162f4:	0f b6 c8             	movzbl %al,%ecx
  1162f7:	c7 45 e4 67 66 66 66 	movl   $0x66666667,0xffffffe4(%ebp)
  1162fe:	8b 45 e4             	mov    0xffffffe4(%ebp),%eax
  116301:	f7 e9                	imul   %ecx
  116303:	d1 fa                	sar    %edx
  116305:	89 c8                	mov    %ecx,%eax
  116307:	c1 f8 1f             	sar    $0x1f,%eax
  11630a:	89 d1                	mov    %edx,%ecx
  11630c:	29 c1                	sub    %eax,%ecx
  11630e:	89 4d e8             	mov    %ecx,0xffffffe8(%ebp)
  116311:	eb 1c                	jmp    0x11632f
  116313:	0f b7 45 ec          	movzwl 0xffffffec(%ebp),%eax
  116317:	25 ff 00 00 00       	and    $0xff,%eax
  11631c:	8d 50 f6             	lea    0xfffffff6(%eax),%edx
  11631f:	89 d0                	mov    %edx,%eax
  116321:	c1 f8 1f             	sar    $0x1f,%eax
  116324:	c1 e8 1a             	shr    $0x1a,%eax
  116327:	01 d0                	add    %edx,%eax
  116329:	c1 f8 06             	sar    $0x6,%eax
  11632c:	89 45 e8             	mov    %eax,0xffffffe8(%ebp)
  11632f:	8b 45 e8             	mov    0xffffffe8(%ebp),%eax
  116332:	89 45 f8             	mov    %eax,0xfffffff8(%ebp)
  116335:	8b 45 f8             	mov    0xfffffff8(%ebp),%eax
  116338:	69 c0 74 05 00 00    	imul   $0x574,%eax,%eax
  11633e:	05 40 bc 11 00       	add    $0x11bc40,%eax
  116343:	89 45 fc             	mov    %eax,0xfffffffc(%ebp)
  116346:	8b 45 fc             	mov    0xfffffffc(%ebp),%eax
  116349:	8b 00                	mov    (%eax),%eax
  11634b:	8d 50 01             	lea    0x1(%eax),%edx
  11634e:	8b 45 fc             	mov    0xfffffffc(%ebp),%eax
  116351:	89 10                	mov    %edx,(%eax)
  116353:	8b 45 fc             	mov    0xfffffffc(%ebp),%eax
  116356:	8b 00                	mov    (%eax),%eax
  116358:	83 f8 01             	cmp    $0x1,%eax
  11635b:	74 0e                	je     0x11636b
  11635d:	c7 04 24 7c 90 11 00 	movl   $0x11907c,(%esp)
  116364:	e8 8b d3 ff ff       	call   0x1136f4
  116369:	eb 6c                	jmp    0x1163d7
  11636b:	8b 45 f8             	mov    0xfffffff8(%ebp),%eax
  11636e:	c1 e0 04             	shl    $0x4,%eax
  116371:	89 c2                	mov    %eax,%edx
  116373:	b8 e0 ff ff ff       	mov    $0xffffffe0,%eax
  116378:	09 d0                	or     %edx,%eax
  11637a:	88 45 f6             	mov    %al,0xfffffff6(%ebp)
  11637d:	c6 45 f7 ec          	movb   $0xec,0xfffffff7(%ebp)
  116381:	8d 45 f1             	lea    0xfffffff1(%ebp),%eax
  116384:	89 04 24             	mov    %eax,(%esp)
  116387:	e8 aa f6 ff ff       	call   0x115a36
  11638c:	e8 0f e7 ff ff       	call   0x114aa0
  116391:	b8 00 d4 11 00       	mov    $0x11d400,%eax
  116396:	c7 44 24 08 00 01 00 	movl   $0x100,0x8(%esp)
  11639d:	00 
  11639e:	89 44 24 04          	mov    %eax,0x4(%esp)
  1163a2:	c7 04 24 f0 01 00 00 	movl   $0x1f0,(%esp)
  1163a9:	e8 88 f7 ff ff       	call   0x115b36
  1163ae:	b8 00 d4 11 00       	mov    $0x11d400,%eax
  1163b3:	89 04 24             	mov    %eax,(%esp)
  1163b6:	e8 fa f7 ff ff       	call   0x115bb5
  1163bb:	8b 45 f8             	mov    0xfffffff8(%ebp),%eax
  1163be:	0f b6 c0             	movzbl %al,%eax
  1163c1:	89 04 24             	mov    %eax,(%esp)
  1163c4:	e8 b7 f9 ff ff       	call   0x115d80
  1163c9:	8b 45 f8             	mov    0xfffffff8(%ebp),%eax
  1163cc:	0f b7 c0             	movzwl %ax,%eax
  1163cf:	89 04 24             	mov    %eax,(%esp)
  1163d2:	e8 14 fd ff ff       	call   0x1160eb
  1163d7:	c9                   	leave  
  1163d8:	c3                   	ret    
  1163d9:	55                   	push   %ebp
  1163da:	89 e5                	mov    %esp,%ebp
  1163dc:	83 ec 28             	sub    $0x28,%esp
  1163df:	8b 45 08             	mov    0x8(%ebp),%eax
  1163e2:	66 89 45 ec          	mov    %ax,0xffffffec(%ebp)
  1163e6:	0f b7 45 ec          	movzwl 0xffffffec(%ebp),%eax
  1163ea:	25 ff 00 00 00       	and    $0xff,%eax
  1163ef:	83 f8 09             	cmp    $0x9,%eax
  1163f2:	7f 23                	jg     0x116417
  1163f4:	0f b7 45 ec          	movzwl 0xffffffec(%ebp),%eax
  1163f8:	0f b6 c8             	movzbl %al,%ecx
  1163fb:	c7 45 e4 67 66 66 66 	movl   $0x66666667,0xffffffe4(%ebp)
  116402:	8b 45 e4             	mov    0xffffffe4(%ebp),%eax
  116405:	f7 e9                	imul   %ecx
  116407:	d1 fa                	sar    %edx
  116409:	89 c8                	mov    %ecx,%eax
  11640b:	c1 f8 1f             	sar    $0x1f,%eax
  11640e:	89 d1                	mov    %edx,%ecx
  116410:	29 c1                	sub    %eax,%ecx
  116412:	89 4d e8             	mov    %ecx,0xffffffe8(%ebp)
  116415:	eb 1c                	jmp    0x116433
  116417:	0f b7 45 ec          	movzwl 0xffffffec(%ebp),%eax
  11641b:	25 ff 00 00 00       	and    $0xff,%eax
  116420:	8d 50 f6             	lea    0xfffffff6(%eax),%edx
  116423:	89 d0                	mov    %edx,%eax
  116425:	c1 f8 1f             	sar    $0x1f,%eax
  116428:	c1 e8 1a             	shr    $0x1a,%eax
  11642b:	01 d0                	add    %edx,%eax
  11642d:	c1 f8 06             	sar    $0x6,%eax
  116430:	89 45 e8             	mov    %eax,0xffffffe8(%ebp)
  116433:	8b 45 e8             	mov    0xffffffe8(%ebp),%eax
  116436:	89 45 f8             	mov    %eax,0xfffffff8(%ebp)
  116439:	8b 45 f8             	mov    0xfffffff8(%ebp),%eax
  11643c:	69 c0 74 05 00 00    	imul   $0x574,%eax,%eax
  116442:	05 40 bc 11 00       	add    $0x11bc40,%eax
  116447:	89 45 fc             	mov    %eax,0xfffffffc(%ebp)
  11644a:	8b 45 fc             	mov    0xfffffffc(%ebp),%eax
  11644d:	8b 00                	mov    (%eax),%eax
  11644f:	85 c0                	test   %eax,%eax
  116451:	7f 0c                	jg     0x11645f
  116453:	c7 04 24 a8 90 11 00 	movl   $0x1190a8,(%esp)
  11645a:	e8 95 d2 ff ff       	call   0x1136f4
  11645f:	8b 45 fc             	mov    0xfffffffc(%ebp),%eax
  116462:	c7 00 00 00 00 00    	movl   $0x0,(%eax)
  116468:	c9                   	leave  
  116469:	c3                   	ret    
  11646a:	55                   	push   %ebp
  11646b:	89 e5                	mov    %esp,%ebp
  11646d:	53                   	push   %ebx
  11646e:	83 ec 54             	sub    $0x54,%esp
  116471:	8b 45 10             	mov    0x10(%ebp),%eax
  116474:	8b 55 14             	mov    0x14(%ebp),%edx
  116477:	66 89 45 c8          	mov    %ax,0xffffffc8(%ebp)
  11647b:	66 89 55 c4          	mov    %dx,0xffffffc4(%ebp)
  11647f:	83 7d 08 02          	cmpl   $0x2,0x8(%ebp)
  116483:	75 06                	jne    0x11648b
  116485:	c6 45 df 20          	movb   $0x20,0xffffffdf(%ebp)
  116489:	eb 1a                	jmp    0x1164a5
  11648b:	83 7d 08 03          	cmpl   $0x3,0x8(%ebp)
  11648f:	75 06                	jne    0x116497
  116491:	c6 45 df 30          	movb   $0x30,0xffffffdf(%ebp)
  116495:	eb 0e                	jmp    0x1164a5
  116497:	c7 04 24 d3 90 11 00 	movl   $0x1190d3,(%esp)
  11649e:	e8 51 d2 ff ff       	call   0x1136f4
  1164a3:	eb fe                	jmp    0x1164a3
  1164a5:	0f b7 45 c8          	movzwl 0xffffffc8(%ebp),%eax
  1164a9:	25 ff 00 00 00       	and    $0xff,%eax
  1164ae:	83 f8 09             	cmp    $0x9,%eax
  1164b1:	7f 23                	jg     0x1164d6
  1164b3:	0f b7 45 c8          	movzwl 0xffffffc8(%ebp),%eax
  1164b7:	0f b6 c8             	movzbl %al,%ecx
  1164ba:	c7 45 b8 67 66 66 66 	movl   $0x66666667,0xffffffb8(%ebp)
  1164c1:	8b 45 b8             	mov    0xffffffb8(%ebp),%eax
  1164c4:	f7 e9                	imul   %ecx
  1164c6:	d1 fa                	sar    %edx
  1164c8:	89 c8                	mov    %ecx,%eax
  1164ca:	c1 f8 1f             	sar    $0x1f,%eax
  1164cd:	89 d1                	mov    %edx,%ecx
  1164cf:	29 c1                	sub    %eax,%ecx
  1164d1:	89 4d bc             	mov    %ecx,0xffffffbc(%ebp)
  1164d4:	eb 1c                	jmp    0x1164f2
  1164d6:	0f b7 45 c8          	movzwl 0xffffffc8(%ebp),%eax
  1164da:	25 ff 00 00 00       	and    $0xff,%eax
  1164df:	8d 50 f6             	lea    0xfffffff6(%eax),%edx
  1164e2:	89 d0                	mov    %edx,%eax
  1164e4:	c1 f8 1f             	sar    $0x1f,%eax
  1164e7:	c1 e8 1a             	shr    $0x1a,%eax
  1164ea:	01 d0                	add    %edx,%eax
  1164ec:	c1 f8 06             	sar    $0x6,%eax
  1164ef:	89 45 bc             	mov    %eax,0xffffffbc(%ebp)
  1164f2:	8b 45 bc             	mov    0xffffffbc(%ebp),%eax
  1164f5:	89 45 e0             	mov    %eax,0xffffffe0(%ebp)
  1164f8:	8b 45 e0             	mov    0xffffffe0(%ebp),%eax
  1164fb:	69 c0 74 05 00 00    	imul   $0x574,%eax,%eax
  116501:	05 40 bc 11 00       	add    $0x11bc40,%eax
  116506:	89 45 e4             	mov    %eax,0xffffffe4(%ebp)
  116509:	0f b7 45 c8          	movzwl 0xffffffc8(%ebp),%eax
  11650d:	89 c2                	mov    %eax,%edx
  11650f:	b8 ff ff ff ff       	mov    $0xffffffff,%eax
  116514:	21 d0                	and    %edx,%eax
  116516:	88 45 eb             	mov    %al,0xffffffeb(%ebp)
  116519:	80 7d eb 09          	cmpb   $0x9,0xffffffeb(%ebp)
  11651d:	0f 87 d1 00 00 00    	ja     0x1165f4
  116523:	0f b6 55 eb          	movzbl 0xffffffeb(%ebp),%edx
  116527:	b8 cd ff ff ff       	mov    $0xffffffcd,%eax
  11652c:	f6 e2                	mul    %dl
  11652e:	66 c1 e8 08          	shr    $0x8,%ax
  116532:	89 c1                	mov    %eax,%ecx
  116534:	c0 e9 02             	shr    $0x2,%cl
  116537:	88 4d c0             	mov    %cl,0xffffffc0(%ebp)
  11653a:	0f b6 45 c0          	movzbl 0xffffffc0(%ebp),%eax
  11653e:	c1 e0 02             	shl    $0x2,%eax
  116541:	02 45 c0             	add    0xffffffc0(%ebp),%al
  116544:	89 d1                	mov    %edx,%ecx
  116546:	28 c1                	sub    %al,%cl
  116548:	88 4d c0             	mov    %cl,0xffffffc0(%ebp)
  11654b:	0f b6 55 c0          	movzbl 0xffffffc0(%ebp),%edx
  11654f:	8b 4d e4             	mov    0xffffffe4(%ebp),%ecx
  116552:	89 d0                	mov    %edx,%eax
  116554:	c1 e0 02             	shl    $0x2,%eax
  116557:	01 d0                	add    %edx,%eax
  116559:	c1 e0 02             	shl    $0x2,%eax
  11655c:	01 c8                	add    %ecx,%eax
  11655e:	83 c0 14             	add    $0x14,%eax
  116561:	8b 00                	mov    (%eax),%eax
  116563:	89 45 ec             	mov    %eax,0xffffffec(%ebp)
  116566:	0f b6 55 eb          	movzbl 0xffffffeb(%ebp),%edx
  11656a:	b8 cd ff ff ff       	mov    $0xffffffcd,%eax
  11656f:	f6 e2                	mul    %dl
  116571:	66 c1 e8 08          	shr    $0x8,%ax
  116575:	89 c1                	mov    %eax,%ecx
  116577:	c0 e9 02             	shr    $0x2,%cl
  11657a:	88 4d c1             	mov    %cl,0xffffffc1(%ebp)
  11657d:	0f b6 45 c1          	movzbl 0xffffffc1(%ebp),%eax
  116581:	c1 e0 02             	shl    $0x2,%eax
  116584:	02 45 c1             	add    0xffffffc1(%ebp),%al
  116587:	89 d1                	mov    %edx,%ecx
  116589:	28 c1                	sub    %al,%cl
  11658b:	88 4d c1             	mov    %cl,0xffffffc1(%ebp)
  11658e:	0f b6 55 c1          	movzbl 0xffffffc1(%ebp),%edx
  116592:	8b 4d e4             	mov    0xffffffe4(%ebp),%ecx
  116595:	89 d0                	mov    %edx,%eax
  116597:	c1 e0 02             	shl    $0x2,%eax
  11659a:	01 d0                	add    %edx,%eax
  11659c:	c1 e0 02             	shl    $0x2,%eax
  11659f:	01 c8                	add    %ecx,%eax
  1165a1:	83 c0 14             	add    $0x14,%eax
  1165a4:	8b 18                	mov    (%eax),%ebx
  1165a6:	0f b6 55 eb          	movzbl 0xffffffeb(%ebp),%edx
  1165aa:	b8 cd ff ff ff       	mov    $0xffffffcd,%eax
  1165af:	f6 e2                	mul    %dl
  1165b1:	66 c1 e8 08          	shr    $0x8,%ax
  1165b5:	89 c1                	mov    %eax,%ecx
  1165b7:	c0 e9 02             	shr    $0x2,%cl
  1165ba:	88 4d c2             	mov    %cl,0xffffffc2(%ebp)
  1165bd:	0f b6 45 c2          	movzbl 0xffffffc2(%ebp),%eax
  1165c1:	c1 e0 02             	shl    $0x2,%eax
  1165c4:	02 45 c2             	add    0xffffffc2(%ebp),%al
  1165c7:	89 d1                	mov    %edx,%ecx
  1165c9:	28 c1                	sub    %al,%cl
  1165cb:	88 4d c2             	mov    %cl,0xffffffc2(%ebp)
  1165ce:	0f b6 55 c2          	movzbl 0xffffffc2(%ebp),%edx
  1165d2:	8b 4d e4             	mov    0xffffffe4(%ebp),%ecx
  1165d5:	89 d0                	mov    %edx,%eax
  1165d7:	c1 e0 02             	shl    $0x2,%eax
  1165da:	01 d0                	add    %edx,%eax
  1165dc:	c1 e0 02             	shl    $0x2,%eax
  1165df:	01 c8                	add    %ecx,%eax
  1165e1:	83 c0 18             	add    $0x18,%eax
  1165e4:	8b 00                	mov    (%eax),%eax
  1165e6:	8d 04 03             	lea    (%ebx,%eax,1),%eax
  1165e9:	83 e8 01             	sub    $0x1,%eax
  1165ec:	89 45 f0             	mov    %eax,0xfffffff0(%ebp)
  1165ef:	e9 aa 00 00 00       	jmp    0x11669e
  1165f4:	0f b6 45 eb          	movzbl 0xffffffeb(%ebp),%eax
  1165f8:	8d 50 f6             	lea    0xfffffff6(%eax),%edx
  1165fb:	89 d0                	mov    %edx,%eax
  1165fd:	c1 f8 1f             	sar    $0x1f,%eax
  116600:	89 c1                	mov    %eax,%ecx
  116602:	c1 e9 1a             	shr    $0x1a,%ecx
  116605:	8d 04 0a             	lea    (%edx,%ecx,1),%eax
  116608:	83 e0 3f             	and    $0x3f,%eax
  11660b:	29 c8                	sub    %ecx,%eax
  11660d:	89 c2                	mov    %eax,%edx
  11660f:	8b 4d e4             	mov    0xffffffe4(%ebp),%ecx
  116612:	89 d0                	mov    %edx,%eax
  116614:	c1 e0 02             	shl    $0x2,%eax
  116617:	01 d0                	add    %edx,%eax
  116619:	c1 e0 02             	shl    $0x2,%eax
  11661c:	01 c8                	add    %ecx,%eax
  11661e:	83 c0 78             	add    $0x78,%eax
  116621:	8b 00                	mov    (%eax),%eax
  116623:	89 45 ec             	mov    %eax,0xffffffec(%ebp)
  116626:	0f b6 45 eb          	movzbl 0xffffffeb(%ebp),%eax
  11662a:	8d 50 f6             	lea    0xfffffff6(%eax),%edx
  11662d:	89 d0                	mov    %edx,%eax
  11662f:	c1 f8 1f             	sar    $0x1f,%eax
  116632:	89 c1                	mov    %eax,%ecx
  116634:	c1 e9 1a             	shr    $0x1a,%ecx
  116637:	8d 04 0a             	lea    (%edx,%ecx,1),%eax
  11663a:	83 e0 3f             	and    $0x3f,%eax
  11663d:	29 c8                	sub    %ecx,%eax
  11663f:	89 c2                	mov    %eax,%edx
  116641:	8b 4d e4             	mov    0xffffffe4(%ebp),%ecx
  116644:	89 d0                	mov    %edx,%eax
  116646:	c1 e0 02             	shl    $0x2,%eax
  116649:	01 d0                	add    %edx,%eax
  11664b:	c1 e0 02             	shl    $0x2,%eax
  11664e:	01 c8                	add    %ecx,%eax
  116650:	83 c0 78             	add    $0x78,%eax
  116653:	8b 18                	mov    (%eax),%ebx
  116655:	0f b6 55 eb          	movzbl 0xffffffeb(%ebp),%edx
  116659:	b8 cd ff ff ff       	mov    $0xffffffcd,%eax
  11665e:	f6 e2                	mul    %dl
  116660:	66 c1 e8 08          	shr    $0x8,%ax
  116664:	89 c1                	mov    %eax,%ecx
  116666:	c0 e9 02             	shr    $0x2,%cl
  116669:	88 4d c3             	mov    %cl,0xffffffc3(%ebp)
  11666c:	0f b6 45 c3          	movzbl 0xffffffc3(%ebp),%eax
  116670:	c1 e0 02             	shl    $0x2,%eax
  116673:	02 45 c3             	add    0xffffffc3(%ebp),%al
  116676:	89 d1                	mov    %edx,%ecx
  116678:	28 c1                	sub    %al,%cl
  11667a:	88 4d c3             	mov    %cl,0xffffffc3(%ebp)
  11667d:	0f b6 55 c3          	movzbl 0xffffffc3(%ebp),%edx
  116681:	8b 4d e4             	mov    0xffffffe4(%ebp),%ecx
  116684:	89 d0                	mov    %edx,%eax
  116686:	c1 e0 02             	shl    $0x2,%eax
  116689:	01 d0                	add    %edx,%eax
  11668b:	c1 e0 02             	shl    $0x2,%eax
  11668e:	01 c8                	add    %ecx,%eax
  116690:	83 c0 18             	add    $0x18,%eax
  116693:	8b 00                	mov    (%eax),%eax
  116695:	8d 04 03             	lea    (%ebx,%eax,1),%eax
  116698:	83 e8 01             	sub    $0x1,%eax
  11669b:	89 45 f0             	mov    %eax,0xfffffff0(%ebp)
  11669e:	8b 45 ec             	mov    0xffffffec(%ebp),%eax
  1166a1:	03 45 18             	add    0x18(%ebp),%eax
  1166a4:	89 45 f4             	mov    %eax,0xfffffff4(%ebp)
  1166a7:	66 c7 45 fa 00 00    	movw   $0x0,0xfffffffa(%ebp)
  1166ad:	e9 c9 00 00 00       	jmp    0x11677b
  1166b2:	c6 45 da 01          	movb   $0x1,0xffffffda(%ebp)
  1166b6:	8b 45 f4             	mov    0xfffffff4(%ebp),%eax
  1166b9:	89 c2                	mov    %eax,%edx
  1166bb:	b8 ff ff ff ff       	mov    $0xffffffff,%eax
  1166c0:	21 d0                	and    %edx,%eax
  1166c2:	88 45 db             	mov    %al,0xffffffdb(%ebp)
  1166c5:	8b 45 f4             	mov    0xfffffff4(%ebp),%eax
  1166c8:	c1 f8 08             	sar    $0x8,%eax
  1166cb:	89 c2                	mov    %eax,%edx
  1166cd:	b8 ff ff ff ff       	mov    $0xffffffff,%eax
  1166d2:	21 d0                	and    %edx,%eax
  1166d4:	88 45 dc             	mov    %al,0xffffffdc(%ebp)
  1166d7:	8b 45 f4             	mov    0xfffffff4(%ebp),%eax
  1166da:	c1 f8 10             	sar    $0x10,%eax
  1166dd:	89 c2                	mov    %eax,%edx
  1166df:	b8 ff ff ff ff       	mov    $0xffffffff,%eax
  1166e4:	21 d0                	and    %edx,%eax
  1166e6:	88 45 dd             	mov    %al,0xffffffdd(%ebp)
  1166e9:	8b 45 e0             	mov    0xffffffe0(%ebp),%eax
  1166ec:	c1 e0 04             	shl    $0x4,%eax
  1166ef:	89 c2                	mov    %eax,%edx
  1166f1:	83 ca 40             	or     $0x40,%edx
  1166f4:	8b 45 f4             	mov    0xfffffff4(%ebp),%eax
  1166f7:	c1 f8 18             	sar    $0x18,%eax
  1166fa:	83 e0 0f             	and    $0xf,%eax
  1166fd:	09 c2                	or     %eax,%edx
  1166ff:	b8 a0 ff ff ff       	mov    $0xffffffa0,%eax
  116704:	09 d0                	or     %edx,%eax
  116706:	88 45 de             	mov    %al,0xffffffde(%ebp)
  116709:	8d 45 d9             	lea    0xffffffd9(%ebp),%eax
  11670c:	89 04 24             	mov    %eax,(%esp)
  11670f:	e8 22 f3 ff ff       	call   0x115a36
  116714:	83 7d 08 02          	cmpl   $0x2,0x8(%ebp)
  116718:	75 29                	jne    0x116743
  11671a:	e8 81 e3 ff ff       	call   0x114aa0
  11671f:	8b 45 0c             	mov    0xc(%ebp),%eax
  116722:	c7 44 24 08 00 01 00 	movl   $0x100,0x8(%esp)
  116729:	00 
  11672a:	89 44 24 04          	mov    %eax,0x4(%esp)
  11672e:	c7 04 24 f0 01 00 00 	movl   $0x1f0,(%esp)
  116735:	e8 fc f3 ff ff       	call   0x115b36
  11673a:	81 45 0c 00 02 00 00 	addl   $0x200,0xc(%ebp)
  116741:	eb 27                	jmp    0x11676a
  116743:	8b 45 0c             	mov    0xc(%ebp),%eax
  116746:	c7 44 24 08 00 01 00 	movl   $0x100,0x8(%esp)
  11674d:	00 
  11674e:	89 44 24 04          	mov    %eax,0x4(%esp)
  116752:	c7 04 24 f0 01 00 00 	movl   $0x1f0,(%esp)
  116759:	e8 15 f4 ff ff       	call   0x115b73
  11675e:	e8 3d e3 ff ff       	call   0x114aa0
  116763:	81 45 0c 00 02 00 00 	addl   $0x200,0xc(%ebp)
  11676a:	66 83 45 fa 01       	addw   $0x1,0xfffffffa(%ebp)
  11676f:	83 45 f4 01          	addl   $0x1,0xfffffff4(%ebp)
  116773:	8b 45 f4             	mov    0xfffffff4(%ebp),%eax
  116776:	3b 45 f0             	cmp    0xfffffff0(%ebp),%eax
  116779:	7f 10                	jg     0x11678b
  11677b:	66 83 6d c4 01       	subw   $0x1,0xffffffc4(%ebp)
  116780:	66 83 7d c4 ff       	cmpw   $0xffffffff,0xffffffc4(%ebp)
  116785:	0f 85 27 ff ff ff    	jne    0x1166b2
  11678b:	0f b7 45 fa          	movzwl 0xfffffffa(%ebp),%eax
  11678f:	83 c4 54             	add    $0x54,%esp
  116792:	5b                   	pop    %ebx
  116793:	5d                   	pop    %ebp
  116794:	c3                   	ret    
  116795:	55                   	push   %ebp
  116796:	89 e5                	mov    %esp,%ebp
  116798:	5d                   	pop    %ebp
  116799:	c3                   	ret    
  11679a:	90                   	nop    
  11679b:	90                   	nop    
  11679c:	55                   	push   %ebp
  11679d:	89 e5                	mov    %esp,%ebp
  11679f:	83 ec 18             	sub    $0x18,%esp
  1167a2:	c7 04 24 fb 90 11 00 	movl   $0x1190fb,(%esp)
  1167a9:	e8 46 cf ff ff       	call   0x1136f4
  1167ae:	a1 54 a7 11 00       	mov    0x11a754,%eax
  1167b3:	89 04 24             	mov    %eax,(%esp)
  1167b6:	e8 39 cf ff ff       	call   0x1136f4
  1167bb:	c7 04 24 02 91 11 00 	movl   $0x119102,(%esp)
  1167c2:	e8 2d cf ff ff       	call   0x1136f4
  1167c7:	c7 44 24 08 cd 3a 02 	movl   $0x1023acd,0x8(%esp)
  1167ce:	01 
  1167cf:	c7 44 24 04 16 91 11 	movl   $0x119116,0x4(%esp)
  1167d6:	00 
  1167d7:	c7 04 24 2a 91 11 00 	movl   $0x11912a,(%esp)
  1167de:	e8 11 cf ff ff       	call   0x1136f4
  1167e3:	c7 04 24 3d 91 11 00 	movl   $0x11913d,(%esp)
  1167ea:	e8 05 cf ff ff       	call   0x1136f4
  1167ef:	c7 04 24 48 91 11 00 	movl   $0x119148,(%esp)
  1167f6:	e8 f9 ce ff ff       	call   0x1136f4
  1167fb:	c7 44 24 04 08 00 00 	movl   $0x8,0x4(%esp)
  116802:	00 
  116803:	c7 04 24 54 91 11 00 	movl   $0x119154,(%esp)
  11680a:	e8 e5 ce ff ff       	call   0x1136f4
  11680f:	c7 44 24 04 08 00 00 	movl   $0x8,0x4(%esp)
  116816:	00 
  116817:	c7 04 24 70 91 11 00 	movl   $0x119170,(%esp)
  11681e:	e8 d1 ce ff ff       	call   0x1136f4
  116823:	c7 44 24 04 15 cd 5b 	movl   $0x75bcd15,0x4(%esp)
  11682a:	07 
  11682b:	c7 04 24 8c 91 11 00 	movl   $0x11918c,(%esp)
  116832:	e8 bd ce ff ff       	call   0x1136f4
  116837:	a1 08 d2 11 00       	mov    0x11d208,%eax
  11683c:	8b 80 84 00 00 00    	mov    0x84(%eax),%eax
  116842:	8b 50 08             	mov    0x8(%eax),%edx
  116845:	a1 08 d2 11 00       	mov    0x11d208,%eax
  11684a:	8b 80 84 00 00 00    	mov    0x84(%eax),%eax
  116850:	8b 40 04             	mov    0x4(%eax),%eax
  116853:	8d 0c 02             	lea    (%edx,%eax,1),%ecx
  116856:	c7 45 fc 67 66 66 66 	movl   $0x66666667,0xfffffffc(%ebp)
  11685d:	8b 45 fc             	mov    0xfffffffc(%ebp),%eax
  116860:	f7 e9                	imul   %ecx
  116862:	c1 fa 06             	sar    $0x6,%edx
  116865:	89 c8                	mov    %ecx,%eax
  116867:	c1 f8 1f             	sar    $0x1f,%eax
  11686a:	89 d1                	mov    %edx,%ecx
  11686c:	29 c1                	sub    %eax,%ecx
  11686e:	89 c8                	mov    %ecx,%eax
  116870:	89 44 24 04          	mov    %eax,0x4(%esp)
  116874:	c7 04 24 90 91 11 00 	movl   $0x119190,(%esp)
  11687b:	e8 74 ce ff ff       	call   0x1136f4
  116880:	b8 00 00 00 00       	mov    $0x0,%eax
  116885:	c9                   	leave  
  116886:	c3                   	ret    
  116887:	90                   	nop    
  116888:	55                   	push   %ebp
  116889:	89 e5                	mov    %esp,%ebp
  11688b:	83 ec 38             	sub    $0x38,%esp
  11688e:	c7 45 e8 00 d9 11 00 	movl   $0x11d900,0xffffffe8(%ebp)
  116895:	c7 45 ec 60 a7 11 00 	movl   $0x11a760,0xffffffec(%ebp)
  11689c:	b8 c0 ff 11 00       	mov    $0x11ffc0,%eax
  1168a1:	89 45 f0             	mov    %eax,0xfffffff0(%ebp)
  1168a4:	c7 45 e4 00 00 00 00 	movl   $0x0,0xffffffe4(%ebp)
  1168ab:	e9 98 02 00 00       	jmp    0x116b48
  1168b0:	8b 45 e4             	mov    0xffffffe4(%ebp),%eax
  1168b3:	c1 e0 03             	shl    $0x3,%eax
  1168b6:	8d 50 28             	lea    0x28(%eax),%edx
  1168b9:	8b 45 e8             	mov    0xffffffe8(%ebp),%eax
  1168bc:	66 89 50 44          	mov    %dx,0x44(%eax)
  1168c0:	8b 55 e4             	mov    0xffffffe4(%ebp),%edx
  1168c3:	8b 45 e8             	mov    0xffffffe8(%ebp),%eax
  1168c6:	89 50 5c             	mov    %edx,0x5c(%eax)
  1168c9:	8b 45 e8             	mov    0xffffffe8(%ebp),%eax
  1168cc:	c7 40 60 01 00 00 00 	movl   $0x1,0x60(%eax)
  1168d3:	83 7d e4 0a          	cmpl   $0xa,0xffffffe4(%ebp)
  1168d7:	0f 8f 5c 02 00 00    	jg     0x116b39
  1168dd:	8b 45 e8             	mov    0xffffffe8(%ebp),%eax
  1168e0:	c7 40 60 00 00 00 00 	movl   $0x0,0x60(%eax)
  1168e7:	8b 45 e8             	mov    0xffffffe8(%ebp),%eax
  1168ea:	c7 40 48 00 00 00 00 	movl   $0x0,0x48(%eax)
  1168f1:	83 7d e4 05          	cmpl   $0x5,0xffffffe4(%ebp)
  1168f5:	7f 11                	jg     0x116908
  1168f7:	c6 45 f6 01          	movb   $0x1,0xfffffff6(%ebp)
  1168fb:	c6 45 f7 01          	movb   $0x1,0xfffffff7(%ebp)
  1168ff:	c7 45 f8 00 40 00 00 	movl   $0x4000,0xfffffff8(%ebp)
  116906:	eb 0f                	jmp    0x116917
  116908:	c6 45 f6 03          	movb   $0x3,0xfffffff6(%ebp)
  11690c:	c6 45 f7 00          	movb   $0x0,0xfffffff7(%ebp)
  116910:	c7 45 f8 00 40 00 00 	movl   $0x4000,0xfffffff8(%ebp)
  116917:	b8 50 b8 11 00       	mov    $0x11b850,%eax
  11691c:	89 c2                	mov    %eax,%edx
  11691e:	8b 45 e8             	mov    0xffffffe8(%ebp),%eax
  116921:	83 c0 4c             	add    $0x4c,%eax
  116924:	c7 44 24 08 08 00 00 	movl   $0x8,0x8(%esp)
  11692b:	00 
  11692c:	89 54 24 04          	mov    %edx,0x4(%esp)
  116930:	89 04 24             	mov    %eax,(%esp)
  116933:	e8 88 ca ff ff       	call   0x1133c0
  116938:	b8 58 b8 11 00       	mov    $0x11b858,%eax
  11693d:	89 c2                	mov    %eax,%edx
  11693f:	8b 45 e8             	mov    0xffffffe8(%ebp),%eax
  116942:	83 c0 4c             	add    $0x4c,%eax
  116945:	83 c0 08             	add    $0x8,%eax
  116948:	c7 44 24 08 08 00 00 	movl   $0x8,0x8(%esp)
  11694f:	00 
  116950:	89 54 24 04          	mov    %edx,0x4(%esp)
  116954:	89 04 24             	mov    %eax,(%esp)
  116957:	e8 64 ca ff ff       	call   0x1133c0
  11695c:	0f b6 45 f6          	movzbl 0xfffffff6(%ebp),%eax
  116960:	c1 e0 05             	shl    $0x5,%eax
  116963:	89 c2                	mov    %eax,%edx
  116965:	b8 93 ff ff ff       	mov    $0xffffff93,%eax
  11696a:	09 d0                	or     %edx,%eax
  11696c:	89 c2                	mov    %eax,%edx
  11696e:	8b 45 e8             	mov    0xffffffe8(%ebp),%eax
  116971:	88 50 51             	mov    %dl,0x51(%eax)
  116974:	0f b6 45 f6          	movzbl 0xfffffff6(%ebp),%eax
  116978:	c1 e0 05             	shl    $0x5,%eax
  11697b:	89 c2                	mov    %eax,%edx
  11697d:	b8 99 ff ff ff       	mov    $0xffffff99,%eax
  116982:	09 d0                	or     %edx,%eax
  116984:	89 c2                	mov    %eax,%edx
  116986:	8b 45 e8             	mov    0xffffffe8(%ebp),%eax
  116989:	88 50 59             	mov    %dl,0x59(%eax)
  11698c:	0f b6 45 f6          	movzbl 0xfffffff6(%ebp),%eax
  116990:	83 c0 08             	add    $0x8,%eax
  116993:	89 c2                	mov    %eax,%edx
  116995:	8b 45 e8             	mov    0xffffffe8(%ebp),%eax
  116998:	89 10                	mov    %edx,(%eax)
  11699a:	0f b6 45 f6          	movzbl 0xfffffff6(%ebp),%eax
  11699e:	83 c0 04             	add    $0x4,%eax
  1169a1:	89 c2                	mov    %eax,%edx
  1169a3:	8b 45 e8             	mov    0xffffffe8(%ebp),%eax
  1169a6:	89 50 04             	mov    %edx,0x4(%eax)
  1169a9:	0f b6 45 f6          	movzbl 0xfffffff6(%ebp),%eax
  1169ad:	83 c0 04             	add    $0x4,%eax
  1169b0:	89 c2                	mov    %eax,%edx
  1169b2:	8b 45 e8             	mov    0xffffffe8(%ebp),%eax
  1169b5:	89 50 08             	mov    %edx,0x8(%eax)
  1169b8:	0f b6 45 f6          	movzbl 0xfffffff6(%ebp),%eax
  1169bc:	83 c0 04             	add    $0x4,%eax
  1169bf:	89 c2                	mov    %eax,%edx
  1169c1:	8b 45 e8             	mov    0xffffffe8(%ebp),%eax
  1169c4:	89 50 0c             	mov    %edx,0xc(%eax)
  1169c7:	8b 45 e8             	mov    0xffffffe8(%ebp),%eax
  1169ca:	c7 40 10 00 00 00 00 	movl   $0x0,0x10(%eax)
  1169d1:	8b 45 e8             	mov    0xffffffe8(%ebp),%eax
  1169d4:	c7 40 14 00 00 00 00 	movl   $0x0,0x14(%eax)
  1169db:	8b 45 e8             	mov    0xffffffe8(%ebp),%eax
  1169de:	c7 40 18 00 00 00 00 	movl   $0x0,0x18(%eax)
  1169e5:	8b 45 e8             	mov    0xffffffe8(%ebp),%eax
  1169e8:	c7 40 1c 00 00 00 00 	movl   $0x0,0x1c(%eax)
  1169ef:	8b 45 e8             	mov    0xffffffe8(%ebp),%eax
  1169f2:	c7 40 20 00 00 00 00 	movl   $0x0,0x20(%eax)
  1169f9:	8b 45 e8             	mov    0xffffffe8(%ebp),%eax
  1169fc:	c7 40 24 00 00 00 00 	movl   $0x0,0x24(%eax)
  116a03:	8b 45 e8             	mov    0xffffffe8(%ebp),%eax
  116a06:	c7 40 28 00 00 00 00 	movl   $0x0,0x28(%eax)
  116a0d:	8b 45 e8             	mov    0xffffffe8(%ebp),%eax
  116a10:	c7 40 2c 00 00 00 00 	movl   $0x0,0x2c(%eax)
  116a17:	8b 45 ec             	mov    0xffffffec(%ebp),%eax
  116a1a:	8b 00                	mov    (%eax),%eax
  116a1c:	89 c2                	mov    %eax,%edx
  116a1e:	8b 45 e8             	mov    0xffffffe8(%ebp),%eax
  116a21:	89 50 30             	mov    %edx,0x30(%eax)
  116a24:	0f b6 45 f6          	movzbl 0xfffffff6(%ebp),%eax
  116a28:	83 c0 0c             	add    $0xc,%eax
  116a2b:	89 c2                	mov    %eax,%edx
  116a2d:	8b 45 e8             	mov    0xffffffe8(%ebp),%eax
  116a30:	89 50 34             	mov    %edx,0x34(%eax)
  116a33:	0f b6 45 f7          	movzbl 0xfffffff7(%ebp),%eax
  116a37:	c1 e0 0c             	shl    $0xc,%eax
  116a3a:	0d 02 02 00 00       	or     $0x202,%eax
  116a3f:	89 c2                	mov    %eax,%edx
  116a41:	8b 45 e8             	mov    0xffffffe8(%ebp),%eax
  116a44:	89 50 38             	mov    %edx,0x38(%eax)
  116a47:	83 7d e4 06          	cmpl   $0x6,0xffffffe4(%ebp)
  116a4b:	74 11                	je     0x116a5e
  116a4d:	8b 45 f8             	mov    0xfffffff8(%ebp),%eax
  116a50:	01 45 f0             	add    %eax,0xfffffff0(%ebp)
  116a53:	8b 55 e8             	mov    0xffffffe8(%ebp),%edx
  116a56:	8b 45 f0             	mov    0xfffffff0(%ebp),%eax
  116a59:	89 42 3c             	mov    %eax,0x3c(%edx)
  116a5c:	eb 0a                	jmp    0x116a68
  116a5e:	8b 45 e8             	mov    0xffffffe8(%ebp),%eax
  116a61:	c7 40 3c 00 10 11 00 	movl   $0x111000,0x3c(%eax)
  116a68:	0f b6 45 f6          	movzbl 0xfffffff6(%ebp),%eax
  116a6c:	83 c0 04             	add    $0x4,%eax
  116a6f:	89 c2                	mov    %eax,%edx
  116a71:	8b 45 e8             	mov    0xffffffe8(%ebp),%eax
  116a74:	89 50 40             	mov    %edx,0x40(%eax)
  116a77:	8b 45 e8             	mov    0xffffffe8(%ebp),%eax
  116a7a:	c7 40 64 00 00 00 00 	movl   $0x0,0x64(%eax)
  116a81:	8b 45 e8             	mov    0xffffffe8(%ebp),%eax
  116a84:	c6 40 68 00          	movb   $0x0,0x68(%eax)
  116a88:	8b 45 e8             	mov    0xffffffe8(%ebp),%eax
  116a8b:	c7 40 6c 00 00 00 00 	movl   $0x0,0x6c(%eax)
  116a92:	8b 45 e8             	mov    0xffffffe8(%ebp),%eax
  116a95:	c7 40 70 00 00 00 00 	movl   $0x0,0x70(%eax)
  116a9c:	8b 45 e8             	mov    0xffffffe8(%ebp),%eax
  116a9f:	c7 40 74 00 00 00 00 	movl   $0x0,0x74(%eax)
  116aa6:	8b 45 e8             	mov    0xffffffe8(%ebp),%eax
  116aa9:	c7 40 78 00 00 00 00 	movl   $0x0,0x78(%eax)
  116ab0:	8b 45 e8             	mov    0xffffffe8(%ebp),%eax
  116ab3:	c7 40 7c 00 00 00 00 	movl   $0x0,0x7c(%eax)
  116aba:	c7 45 fc 00 00 00 00 	movl   $0x0,0xfffffffc(%ebp)
  116ac1:	eb 15                	jmp    0x116ad8
  116ac3:	8b 55 fc             	mov    0xfffffffc(%ebp),%edx
  116ac6:	8b 45 e8             	mov    0xffffffe8(%ebp),%eax
  116ac9:	c7 84 90 80 00 00 00 	movl   $0x0,0x80(%eax,%edx,4)
  116ad0:	00 00 00 00 
  116ad4:	83 45 fc 01          	addl   $0x1,0xfffffffc(%ebp)
  116ad8:	83 7d fc 1f          	cmpl   $0x1f,0xfffffffc(%ebp)
  116adc:	7e e5                	jle    0x116ac3
  116ade:	8b 45 ec             	mov    0xffffffec(%ebp),%eax
  116ae1:	8b 50 08             	mov    0x8(%eax),%edx
  116ae4:	8b 45 e8             	mov    0xffffffe8(%ebp),%eax
  116ae7:	89 90 00 01 00 00    	mov    %edx,0x100(%eax)
  116aed:	8b 45 ec             	mov    0xffffffec(%ebp),%eax
  116af0:	8b 50 08             	mov    0x8(%eax),%edx
  116af3:	8b 45 e8             	mov    0xffffffe8(%ebp),%eax
  116af6:	89 90 04 01 00 00    	mov    %edx,0x104(%eax)
  116afc:	8b 45 e8             	mov    0xffffffe8(%ebp),%eax
  116aff:	c7 80 08 01 00 00 00 	movl   $0x0,0x108(%eax)
  116b06:	00 00 00 
  116b09:	8b 45 e8             	mov    0xffffffe8(%ebp),%eax
  116b0c:	c7 80 0c 01 00 00 06 	movl   $0x6,0x10c(%eax)
  116b13:	00 00 00 
  116b16:	8b 45 ec             	mov    0xffffffec(%ebp),%eax
  116b19:	8b 40 04             	mov    0x4(%eax),%eax
  116b1c:	8b 55 e8             	mov    0xffffffe8(%ebp),%edx
  116b1f:	81 c2 10 01 00 00    	add    $0x110,%edx
  116b25:	c7 44 24 08 10 00 00 	movl   $0x10,0x8(%esp)
  116b2c:	00 
  116b2d:	89 44 24 04          	mov    %eax,0x4(%esp)
  116b31:	89 14 24             	mov    %edx,(%esp)
  116b34:	e8 87 c8 ff ff       	call   0x1133c0
  116b39:	83 45 e4 01          	addl   $0x1,0xffffffe4(%ebp)
  116b3d:	81 45 e8 28 01 00 00 	addl   $0x128,0xffffffe8(%ebp)
  116b44:	83 45 ec 0c          	addl   $0xc,0xffffffec(%ebp)
  116b48:	83 7d e4 20          	cmpl   $0x20,0xffffffe4(%ebp)
  116b4c:	0f 8e 5e fd ff ff    	jle    0x1168b0
  116b52:	c7 45 e4 00 00 00 00 	movl   $0x0,0xffffffe4(%ebp)
  116b59:	e9 9a 00 00 00       	jmp    0x116bf8
  116b5e:	8b 45 e4             	mov    0xffffffe4(%ebp),%eax
  116b61:	83 c0 05             	add    $0x5,%eax
  116b64:	66 c7 04 c5 40 b8 11 	movw   $0x10,0x11b840(,%eax,8)
  116b6b:	00 10 00 
  116b6e:	8b 55 e4             	mov    0xffffffe4(%ebp),%edx
  116b71:	83 c2 05             	add    $0x5,%edx
  116b74:	8b 45 e4             	mov    0xffffffe4(%ebp),%eax
  116b77:	69 c0 28 01 00 00    	imul   $0x128,%eax,%eax
  116b7d:	83 c0 40             	add    $0x40,%eax
  116b80:	05 00 d9 11 00       	add    $0x11d900,%eax
  116b85:	83 c0 0c             	add    $0xc,%eax
  116b88:	66 89 04 d5 42 b8 11 	mov    %ax,0x11b842(,%edx,8)
  116b8f:	00 
  116b90:	8b 55 e4             	mov    0xffffffe4(%ebp),%edx
  116b93:	83 c2 05             	add    $0x5,%edx
  116b96:	8b 45 e4             	mov    0xffffffe4(%ebp),%eax
  116b99:	69 c0 28 01 00 00    	imul   $0x128,%eax,%eax
  116b9f:	83 c0 40             	add    $0x40,%eax
  116ba2:	05 00 d9 11 00       	add    $0x11d900,%eax
  116ba7:	83 c0 0c             	add    $0xc,%eax
  116baa:	c1 e8 10             	shr    $0x10,%eax
  116bad:	88 04 d5 44 b8 11 00 	mov    %al,0x11b844(,%edx,8)
  116bb4:	8b 45 e4             	mov    0xffffffe4(%ebp),%eax
  116bb7:	83 c0 05             	add    $0x5,%eax
  116bba:	c6 04 c5 45 b8 11 00 	movb   $0x82,0x11b845(,%eax,8)
  116bc1:	82 
  116bc2:	8b 45 e4             	mov    0xffffffe4(%ebp),%eax
  116bc5:	83 c0 05             	add    $0x5,%eax
  116bc8:	c6 04 c5 46 b8 11 00 	movb   $0x40,0x11b846(,%eax,8)
  116bcf:	40 
  116bd0:	8b 55 e4             	mov    0xffffffe4(%ebp),%edx
  116bd3:	83 c2 05             	add    $0x5,%edx
  116bd6:	8b 45 e4             	mov    0xffffffe4(%ebp),%eax
  116bd9:	69 c0 28 01 00 00    	imul   $0x128,%eax,%eax
  116bdf:	83 c0 40             	add    $0x40,%eax
  116be2:	05 00 d9 11 00       	add    $0x11d900,%eax
  116be7:	83 c0 0c             	add    $0xc,%eax
  116bea:	c1 e8 18             	shr    $0x18,%eax
  116bed:	88 04 d5 47 b8 11 00 	mov    %al,0x11b847(,%edx,8)
  116bf4:	83 45 e4 01          	addl   $0x1,0xffffffe4(%ebp)
  116bf8:	83 7d e4 20          	cmpl   $0x20,0xffffffe4(%ebp)
  116bfc:	0f 8e 5c ff ff ff    	jle    0x116b5e
  116c02:	66 c7 05 60 b8 11 00 	movw   $0x6c,0x11b860
  116c09:	6c 00 
  116c0b:	b8 80 c7 11 00       	mov    $0x11c780,%eax
  116c10:	66 a3 62 b8 11 00    	mov    %ax,0x11b862
  116c16:	b8 80 c7 11 00       	mov    $0x11c780,%eax
  116c1b:	c1 e8 10             	shr    $0x10,%eax
  116c1e:	a2 64 b8 11 00       	mov    %al,0x11b864
  116c23:	c6 05 65 b8 11 00 89 	movb   $0x89,0x11b865
  116c2a:	c6 05 66 b8 11 00 00 	movb   $0x0,0x11b866
  116c31:	b8 80 c7 11 00       	mov    $0x11c780,%eax
  116c36:	c1 e8 18             	shr    $0x18,%eax
  116c39:	a2 67 b8 11 00       	mov    %al,0x11b867
  116c3e:	c7 05 a8 ac 11 00 00 	movl   $0x11d900,0x11aca8
  116c45:	d9 11 00 
  116c48:	a1 a8 ac 11 00       	mov    0x11aca8,%eax
  116c4d:	83 c0 44             	add    $0x44,%eax
  116c50:	a3 84 c7 11 00       	mov    %eax,0x11c784
  116c55:	c7 05 88 c7 11 00 10 	movl   $0x10,0x11c788
  116c5c:	00 00 00 
  116c5f:	c9                   	leave  
  116c60:	c3                   	ret    
  116c61:	55                   	push   %ebp
  116c62:	89 e5                	mov    %esp,%ebp
  116c64:	83 ec 28             	sub    $0x28,%esp
  116c67:	e8 ae c6 ff ff       	call   0x11331a
  116c6c:	25 00 02 00 00       	and    $0x200,%eax
  116c71:	85 c0                	test   %eax,%eax
  116c73:	75 09                	jne    0x116c7e
  116c75:	a1 04 33 11 00       	mov    0x113304,%eax
  116c7a:	85 c0                	test   %eax,%eax
  116c7c:	75 24                	jne    0x116ca2
  116c7e:	c7 44 24 0c 8b 00 00 	movl   $0x8b,0xc(%esp)
  116c85:	00 
  116c86:	c7 44 24 08 ee 91 11 	movl   $0x1191ee,0x8(%esp)
  116c8d:	00 
  116c8e:	c7 44 24 04 ee 91 11 	movl   $0x1191ee,0x4(%esp)
  116c95:	00 
  116c96:	c7 04 24 f5 91 11 00 	movl   $0x1191f5,(%esp)
  116c9d:	e8 72 b7 ff ff       	call   0x112414
  116ca2:	c7 45 fc 00 00 00 00 	movl   $0x0,0xfffffffc(%ebp)
  116ca9:	e9 d1 00 00 00       	jmp    0x116d7f
  116cae:	b8 a0 dd 11 00       	mov    $0x11dda0,%eax
  116cb3:	8b 40 64             	mov    0x64(%eax),%eax
  116cb6:	85 c0                	test   %eax,%eax
  116cb8:	74 24                	je     0x116cde
  116cba:	c7 44 24 0c 8f 00 00 	movl   $0x8f,0xc(%esp)
  116cc1:	00 
  116cc2:	c7 44 24 08 ee 91 11 	movl   $0x1191ee,0x8(%esp)
  116cc9:	00 
  116cca:	c7 44 24 04 ee 91 11 	movl   $0x1191ee,0x4(%esp)
  116cd1:	00 
  116cd2:	c7 04 24 fc 91 11 00 	movl   $0x1191fc,(%esp)
  116cd9:	e8 36 b7 ff ff       	call   0x112414
  116cde:	c7 45 f0 00 d9 11 00 	movl   $0x11d900,0xfffffff0(%ebp)
  116ce5:	c7 45 f8 00 00 00 00 	movl   $0x0,0xfffffff8(%ebp)
  116cec:	eb 3c                	jmp    0x116d2a
  116cee:	8b 45 f0             	mov    0xfffffff0(%ebp),%eax
  116cf1:	8b 40 60             	mov    0x60(%eax),%eax
  116cf4:	83 f8 01             	cmp    $0x1,%eax
  116cf7:	74 2a                	je     0x116d23
  116cf9:	8b 45 f0             	mov    0xfffffff0(%ebp),%eax
  116cfc:	8b 40 64             	mov    0x64(%eax),%eax
  116cff:	85 c0                	test   %eax,%eax
  116d01:	75 20                	jne    0x116d23
  116d03:	8b 45 f0             	mov    0xfffffff0(%ebp),%eax
  116d06:	8b 80 04 01 00 00    	mov    0x104(%eax),%eax
  116d0c:	3b 45 f8             	cmp    0xfffffff8(%ebp),%eax
  116d0f:	7e 12                	jle    0x116d23
  116d11:	8b 45 f0             	mov    0xfffffff0(%ebp),%eax
  116d14:	8b 80 04 01 00 00    	mov    0x104(%eax),%eax
  116d1a:	89 45 f8             	mov    %eax,0xfffffff8(%ebp)
  116d1d:	8b 45 f0             	mov    0xfffffff0(%ebp),%eax
  116d20:	89 45 f4             	mov    %eax,0xfffffff4(%ebp)
  116d23:	81 45 f0 28 01 00 00 	addl   $0x128,0xfffffff0(%ebp)
  116d2a:	b8 28 ff 11 00       	mov    $0x11ff28,%eax
  116d2f:	39 45 f0             	cmp    %eax,0xfffffff0(%ebp)
  116d32:	72 ba                	jb     0x116cee
  116d34:	83 7d f8 00          	cmpl   $0x0,0xfffffff8(%ebp)
  116d38:	75 39                	jne    0x116d73
  116d3a:	c7 45 f0 00 d9 11 00 	movl   $0x11d900,0xfffffff0(%ebp)
  116d41:	eb 24                	jmp    0x116d67
  116d43:	8b 45 f0             	mov    0xfffffff0(%ebp),%eax
  116d46:	8b 40 60             	mov    0x60(%eax),%eax
  116d49:	83 f8 01             	cmp    $0x1,%eax
  116d4c:	74 12                	je     0x116d60
  116d4e:	8b 45 f0             	mov    0xfffffff0(%ebp),%eax
  116d51:	8b 90 00 01 00 00    	mov    0x100(%eax),%edx
  116d57:	8b 45 f0             	mov    0xfffffff0(%ebp),%eax
  116d5a:	89 90 04 01 00 00    	mov    %edx,0x104(%eax)
  116d60:	81 45 f0 28 01 00 00 	addl   $0x128,0xfffffff0(%ebp)
  116d67:	b8 28 ff 11 00       	mov    $0x11ff28,%eax
  116d6c:	39 45 f0             	cmp    %eax,0xfffffff0(%ebp)
  116d6f:	72 d2                	jb     0x116d43
  116d71:	eb 08                	jmp    0x116d7b
  116d73:	8b 45 f4             	mov    0xfffffff4(%ebp),%eax
  116d76:	a3 a8 ac 11 00       	mov    %eax,0x11aca8
  116d7b:	83 45 fc 01          	addl   $0x1,0xfffffffc(%ebp)
  116d7f:	83 7d fc 01          	cmpl   $0x1,0xfffffffc(%ebp)
  116d83:	0f 8e 25 ff ff ff    	jle    0x116cae
  116d89:	e8 8c c5 ff ff       	call   0x11331a
  116d8e:	25 00 02 00 00       	and    $0x200,%eax
  116d93:	85 c0                	test   %eax,%eax
  116d95:	75 09                	jne    0x116da0
  116d97:	a1 04 33 11 00       	mov    0x113304,%eax
  116d9c:	85 c0                	test   %eax,%eax
  116d9e:	75 24                	jne    0x116dc4
  116da0:	c7 44 24 0c aa 00 00 	movl   $0xaa,0xc(%esp)
  116da7:	00 
  116da8:	c7 44 24 08 ee 91 11 	movl   $0x1191ee,0x8(%esp)
  116daf:	00 
  116db0:	c7 44 24 04 ee 91 11 	movl   $0x1191ee,0x4(%esp)
  116db7:	00 
  116db8:	c7 04 24 f5 91 11 00 	movl   $0x1191f5,(%esp)
  116dbf:	e8 50 b6 ff ff       	call   0x112414
  116dc4:	c9                   	leave  
  116dc5:	c3                   	ret    
  116dc6:	55                   	push   %ebp
  116dc7:	89 e5                	mov    %esp,%ebp
  116dc9:	c7 05 ac ac 11 00 00 	movl   $0x0,0x11acac
  116dd0:	00 00 00 
  116dd3:	a1 ac ac 11 00       	mov    0x11acac,%eax
  116dd8:	83 c0 01             	add    $0x1,%eax
  116ddb:	a3 ac ac 11 00       	mov    %eax,0x11acac
  116de0:	eb f1                	jmp    0x116dd3
  116de2:	90                   	nop    
  116de3:	90                   	nop    
  116de4:	55                   	push   %ebp
  116de5:	89 e5                	mov    %esp,%ebp
  116de7:	83 ec 08             	sub    $0x8,%esp
  116dea:	c6 05 8a ac 11 00 00 	movb   $0x0,0x11ac8a
  116df1:	e8 69 00 00 00       	call   0x116e5f
  116df6:	c7 05 c0 b7 11 00 00 	movl   $0x0,0x11b7c0
  116dfd:	00 00 00 
  116e00:	c7 05 c4 b7 11 00 cc 	movl   $0x11b7cc,0x11b7c4
  116e07:	b7 11 00 
  116e0a:	c7 05 c8 b7 11 00 cc 	movl   $0x11b7cc,0x11b7c8
  116e11:	b7 11 00 
  116e14:	c6 05 80 ac 11 00 00 	movb   $0x0,0x11ac80
  116e1b:	c6 05 81 ac 11 00 00 	movb   $0x0,0x11ac81
  116e22:	c6 05 82 ac 11 00 00 	movb   $0x0,0x11ac82
  116e29:	c6 05 83 ac 11 00 00 	movb   $0x0,0x11ac83
  116e30:	c6 05 84 ac 11 00 00 	movb   $0x0,0x11ac84
  116e37:	c6 05 85 ac 11 00 00 	movb   $0x0,0x11ac85
  116e3e:	c6 05 86 ac 11 00 00 	movb   $0x0,0x11ac86
  116e45:	c6 05 87 ac 11 00 00 	movb   $0x0,0x11ac87
  116e4c:	c6 05 88 ac 11 00 00 	movb   $0x0,0x11ac88
  116e53:	c7 05 04 d2 11 00 00 	movl   $0x0,0x11d204
  116e5a:	00 00 00 
  116e5d:	c9                   	leave  
  116e5e:	c3                   	ret    
  116e5f:	55                   	push   %ebp
  116e60:	89 e5                	mov    %esp,%ebp
  116e62:	5d                   	pop    %ebp
  116e63:	c3                   	ret    
  116e64:	55                   	push   %ebp
  116e65:	89 e5                	mov    %esp,%ebp
  116e67:	83 ec 18             	sub    $0x18,%esp
  116e6a:	c7 04 24 60 00 00 00 	movl   $0x60,(%esp)
  116e71:	e8 47 c4 ff ff       	call   0x1132bd
  116e76:	88 45 ff             	mov    %al,0xffffffff(%ebp)
  116e79:	a1 c0 b7 11 00       	mov    0x11b7c0,%eax
  116e7e:	83 f8 63             	cmp    $0x63,%eax
  116e81:	7f 4c                	jg     0x116ecf
  116e83:	e8 8a c4 ff ff       	call   0x113312
  116e88:	a1 c0 b7 11 00       	mov    0x11b7c0,%eax
  116e8d:	83 c0 01             	add    $0x1,%eax
  116e90:	a3 c0 b7 11 00       	mov    %eax,0x11b7c0
  116e95:	8b 15 c4 b7 11 00    	mov    0x11b7c4,%edx
  116e9b:	0f b6 45 ff          	movzbl 0xffffffff(%ebp),%eax
  116e9f:	88 02                	mov    %al,(%edx)
  116ea1:	a1 c4 b7 11 00       	mov    0x11b7c4,%eax
  116ea6:	83 c0 01             	add    $0x1,%eax
  116ea9:	a3 c4 b7 11 00       	mov    %eax,0x11b7c4
  116eae:	8b 15 c4 b7 11 00    	mov    0x11b7c4,%edx
  116eb4:	b8 30 b8 11 00       	mov    $0x11b830,%eax
  116eb9:	39 c2                	cmp    %eax,%edx
  116ebb:	72 0d                	jb     0x116eca
  116ebd:	a1 c4 b7 11 00       	mov    0x11b7c4,%eax
  116ec2:	83 e8 64             	sub    $0x64,%eax
  116ec5:	a3 c4 b7 11 00       	mov    %eax,0x11b7c4
  116eca:	e8 39 c4 ff ff       	call   0x113308
  116ecf:	c7 05 04 d2 11 00 01 	movl   $0x1,0x11d204
  116ed6:	00 00 00 
  116ed9:	c9                   	leave  
  116eda:	c3                   	ret    
  116edb:	55                   	push   %ebp
  116edc:	89 e5                	mov    %esp,%ebp
  116ede:	83 ec 18             	sub    $0x18,%esp
  116ee1:	eb 00                	jmp    0x116ee3
  116ee3:	a1 c0 b7 11 00       	mov    0x11b7c0,%eax
  116ee8:	85 c0                	test   %eax,%eax
  116eea:	7e f7                	jle    0x116ee3
  116eec:	e8 21 c4 ff ff       	call   0x113312
  116ef1:	a1 c0 b7 11 00       	mov    0x11b7c0,%eax
  116ef6:	85 c0                	test   %eax,%eax
  116ef8:	7f 07                	jg     0x116f01
  116efa:	e8 09 c4 ff ff       	call   0x113308
  116eff:	eb e2                	jmp    0x116ee3
  116f01:	a1 c8 b7 11 00       	mov    0x11b7c8,%eax
  116f06:	0f b6 00             	movzbl (%eax),%eax
  116f09:	89 c2                	mov    %eax,%edx
  116f0b:	b8 ff ff ff ff       	mov    $0xffffffff,%eax
  116f10:	21 d0                	and    %edx,%eax
  116f12:	88 45 ff             	mov    %al,0xffffffff(%ebp)
  116f15:	a1 c0 b7 11 00       	mov    0x11b7c0,%eax
  116f1a:	83 e8 01             	sub    $0x1,%eax
  116f1d:	a3 c0 b7 11 00       	mov    %eax,0x11b7c0
  116f22:	a1 c8 b7 11 00       	mov    0x11b7c8,%eax
  116f27:	83 c0 01             	add    $0x1,%eax
  116f2a:	a3 c8 b7 11 00       	mov    %eax,0x11b7c8
  116f2f:	8b 15 c8 b7 11 00    	mov    0x11b7c8,%edx
  116f35:	b8 30 b8 11 00       	mov    $0x11b830,%eax
  116f3a:	39 c2                	cmp    %eax,%edx
  116f3c:	72 0d                	jb     0x116f4b
  116f3e:	a1 c8 b7 11 00       	mov    0x11b7c8,%eax
  116f43:	83 e8 64             	sub    $0x64,%eax
  116f46:	a3 c8 b7 11 00       	mov    %eax,0x11b7c8
  116f4b:	e8 b8 c3 ff ff       	call   0x113308
  116f50:	0f b6 45 ff          	movzbl 0xffffffff(%ebp),%eax
  116f54:	c9                   	leave  
  116f55:	c3                   	ret    
  116f56:	55                   	push   %ebp
  116f57:	89 e5                	mov    %esp,%ebp
  116f59:	83 ec 18             	sub    $0x18,%esp
  116f5c:	c6 45 ff 00          	movb   $0x0,0xffffffff(%ebp)
  116f60:	eb 00                	jmp    0x116f62
  116f62:	e8 74 ff ff ff       	call   0x116edb
  116f67:	0f b6 c0             	movzbl %al,%eax
  116f6a:	89 45 f8             	mov    %eax,0xfffffff8(%ebp)
  116f6d:	81 7d f8 e1 00 00 00 	cmpl   $0xe1,0xfffffff8(%ebp)
  116f74:	75 22                	jne    0x116f98
  116f76:	a1 c0 b7 11 00       	mov    0x11b7c0,%eax
  116f7b:	83 f8 02             	cmp    $0x2,%eax
  116f7e:	7e e2                	jle    0x116f62
  116f80:	e8 56 ff ff ff       	call   0x116edb
  116f85:	0f b6 c0             	movzbl %al,%eax
  116f88:	89 45 f8             	mov    %eax,0xfffffff8(%ebp)
  116f8b:	e8 4b ff ff ff       	call   0x116edb
  116f90:	0f b6 c0             	movzbl %al,%eax
  116f93:	89 45 f8             	mov    %eax,0xfffffff8(%ebp)
  116f96:	eb ca                	jmp    0x116f62
  116f98:	81 7d f8 e0 00 00 00 	cmpl   $0xe0,0xfffffff8(%ebp)
  116f9f:	75 11                	jne    0x116fb2
  116fa1:	c6 45 ff 02          	movb   $0x2,0xffffffff(%ebp)
  116fa5:	e8 31 ff ff ff       	call   0x116edb
  116faa:	0f b6 c0             	movzbl %al,%eax
  116fad:	89 45 f8             	mov    %eax,0xfffffff8(%ebp)
  116fb0:	eb 31                	jmp    0x116fe3
  116fb2:	c6 45 ff 00          	movb   $0x0,0xffffffff(%ebp)
  116fb6:	0f b6 05 82 ac 11 00 	movzbl 0x11ac82,%eax
  116fbd:	84 c0                	test   %al,%al
  116fbf:	74 04                	je     0x116fc5
  116fc1:	c6 45 ff 01          	movb   $0x1,0xffffffff(%ebp)
  116fc5:	0f b6 05 80 ac 11 00 	movzbl 0x11ac80,%eax
  116fcc:	84 c0                	test   %al,%al
  116fce:	74 04                	je     0x116fd4
  116fd0:	c6 45 ff 01          	movb   $0x1,0xffffffff(%ebp)
  116fd4:	0f b6 05 81 ac 11 00 	movzbl 0x11ac81,%eax
  116fdb:	84 c0                	test   %al,%al
  116fdd:	74 04                	je     0x116fe3
  116fdf:	c6 45 ff 01          	movb   $0x1,0xffffffff(%ebp)
  116fe3:	8b 45 f8             	mov    0xfffffff8(%ebp),%eax
  116fe6:	25 80 00 00 00       	and    $0x80,%eax
  116feb:	85 c0                	test   %eax,%eax
  116fed:	74 0d                	je     0x116ffc
  116fef:	c6 05 89 ac 11 00 00 	movb   $0x0,0x11ac89
  116ff6:	83 65 f8 7f          	andl   $0x7f,0xfffffff8(%ebp)
  116ffa:	eb 07                	jmp    0x117003
  116ffc:	c6 05 89 ac 11 00 01 	movb   $0x1,0x11ac89
  117003:	0f b6 05 8a ac 11 00 	movzbl 0x11ac8a,%eax
  11700a:	0f b6 c0             	movzbl %al,%eax
  11700d:	83 e0 02             	and    $0x2,%eax
  117010:	85 c0                	test   %eax,%eax
  117012:	74 16                	je     0x11702a
  117014:	83 7d f8 46          	cmpl   $0x46,0xfffffff8(%ebp)
  117018:	76 10                	jbe    0x11702a
  11701a:	83 7d f8 53          	cmpl   $0x53,0xfffffff8(%ebp)
  11701e:	77 0a                	ja     0x11702a
  117020:	80 7d ff 00          	cmpb   $0x0,0xffffffff(%ebp)
  117024:	75 04                	jne    0x11702a
  117026:	c6 45 ff 01          	movb   $0x1,0xffffffff(%ebp)
  11702a:	8b 55 f8             	mov    0xfffffff8(%ebp),%edx
  11702d:	0f b6 4d ff          	movzbl 0xffffffff(%ebp),%ecx
  117031:	89 d0                	mov    %edx,%eax
  117033:	01 c0                	add    %eax,%eax
  117035:	01 d0                	add    %edx,%eax
  117037:	01 c8                	add    %ecx,%eax
  117039:	8b 04 85 00 a8 11 00 	mov    0x11a800(,%eax,4),%eax
  117040:	89 45 f8             	mov    %eax,0xfffffff8(%ebp)
  117043:	0f b6 05 8a ac 11 00 	movzbl 0x11ac8a,%eax
  11704a:	0f b6 c0             	movzbl %al,%eax
  11704d:	83 e0 04             	and    $0x4,%eax
  117050:	85 c0                	test   %eax,%eax
  117052:	74 22                	je     0x117076
  117054:	83 7d f8 40          	cmpl   $0x40,0xfffffff8(%ebp)
  117058:	76 0c                	jbe    0x117066
  11705a:	83 7d f8 5a          	cmpl   $0x5a,0xfffffff8(%ebp)
  11705e:	77 06                	ja     0x117066
  117060:	83 45 f8 20          	addl   $0x20,0xfffffff8(%ebp)
  117064:	eb 10                	jmp    0x117076
  117066:	83 7d f8 60          	cmpl   $0x60,0xfffffff8(%ebp)
  11706a:	76 0a                	jbe    0x117076
  11706c:	83 7d f8 7a          	cmpl   $0x7a,0xfffffff8(%ebp)
  117070:	77 04                	ja     0x117076
  117072:	83 6d f8 20          	subl   $0x20,0xfffffff8(%ebp)
  117076:	e8 97 c2 ff ff       	call   0x113312
  11707b:	8b 45 08             	mov    0x8(%ebp),%eax
  11707e:	8b 80 80 00 00 00    	mov    0x80(%eax),%eax
  117084:	83 f8 1d             	cmp    $0x1d,%eax
  117087:	7f 4e                	jg     0x1170d7
  117089:	8b 45 08             	mov    0x8(%ebp),%eax
  11708c:	8b 80 80 00 00 00    	mov    0x80(%eax),%eax
  117092:	8d 50 01             	lea    0x1(%eax),%edx
  117095:	8b 45 08             	mov    0x8(%ebp),%eax
  117098:	89 90 80 00 00 00    	mov    %edx,0x80(%eax)
  11709e:	8b 45 08             	mov    0x8(%ebp),%eax
  1170a1:	8b 50 78             	mov    0x78(%eax),%edx
  1170a4:	8b 45 f8             	mov    0xfffffff8(%ebp),%eax
  1170a7:	89 02                	mov    %eax,(%edx)
  1170a9:	8b 45 08             	mov    0x8(%ebp),%eax
  1170ac:	8b 40 78             	mov    0x78(%eax),%eax
  1170af:	8d 50 04             	lea    0x4(%eax),%edx
  1170b2:	8b 45 08             	mov    0x8(%ebp),%eax
  1170b5:	89 50 78             	mov    %edx,0x78(%eax)
  1170b8:	8b 45 08             	mov    0x8(%ebp),%eax
  1170bb:	8b 50 78             	mov    0x78(%eax),%edx
  1170be:	8b 45 08             	mov    0x8(%ebp),%eax
  1170c1:	83 c0 78             	add    $0x78,%eax
  1170c4:	39 c2                	cmp    %eax,%edx
  1170c6:	72 0f                	jb     0x1170d7
  1170c8:	8b 45 08             	mov    0x8(%ebp),%eax
  1170cb:	8b 40 78             	mov    0x78(%eax),%eax
  1170ce:	8d 50 88             	lea    0xffffff88(%eax),%edx
  1170d1:	8b 45 08             	mov    0x8(%ebp),%eax
  1170d4:	89 50 78             	mov    %edx,0x78(%eax)
  1170d7:	e8 2c c2 ff ff       	call   0x113308
  1170dc:	c9                   	leave  
  1170dd:	c3                   	ret    
  1170de:	90                   	nop    
  1170df:	90                   	nop    
  1170e0:	55                   	push   %ebp
  1170e1:	89 e5                	mov    %esp,%ebp
  1170e3:	83 ec 48             	sub    $0x48,%esp
  1170e6:	c7 44 24 04 01 00 00 	movl   $0x1,0x4(%esp)
  1170ed:	00 
  1170ee:	c7 04 24 2c 92 11 00 	movl   $0x11922c,(%esp)
  1170f5:	e8 91 b0 ff ff       	call   0x11218b
  1170fa:	89 45 f8             	mov    %eax,0xfffffff8(%ebp)
  1170fd:	83 7d f8 00          	cmpl   $0x0,0xfffffff8(%ebp)
  117101:	74 24                	je     0x117127
  117103:	c7 44 24 0c 07 00 00 	movl   $0x7,0xc(%esp)
  11710a:	00 
  11710b:	c7 44 24 08 31 92 11 	movl   $0x119231,0x8(%esp)
  117112:	00 
  117113:	c7 44 24 04 31 92 11 	movl   $0x119231,0x4(%esp)
  11711a:	00 
  11711b:	c7 04 24 38 92 11 00 	movl   $0x119238,(%esp)
  117122:	e8 ed b2 ff ff       	call   0x112414
  117127:	c7 44 24 04 01 00 00 	movl   $0x1,0x4(%esp)
  11712e:	00 
  11712f:	c7 04 24 2c 92 11 00 	movl   $0x11922c,(%esp)
  117136:	e8 50 b0 ff ff       	call   0x11218b
  11713b:	89 45 fc             	mov    %eax,0xfffffffc(%ebp)
  11713e:	83 7d fc 01          	cmpl   $0x1,0xfffffffc(%ebp)
  117142:	74 26                	je     0x11716a
  117144:	c7 44 24 0c 09 00 00 	movl   $0x9,0xc(%esp)
  11714b:	00 
  11714c:	c7 44 24 08 31 92 11 	movl   $0x119231,0x8(%esp)
  117153:	00 
  117154:	c7 44 24 04 31 92 11 	movl   $0x119231,0x4(%esp)
  11715b:	00 
  11715c:	c7 04 24 43 92 11 00 	movl   $0x119243,(%esp)
  117163:	e8 ac b2 ff ff       	call   0x112414
  117168:	eb 00                	jmp    0x11716a
  11716a:	8d 45 d0             	lea    0xffffffd0(%ebp),%eax
  11716d:	89 44 24 08          	mov    %eax,0x8(%esp)
  117171:	c7 44 24 04 ff ff ff 	movl   $0xffffffff,0x4(%esp)
  117178:	ff 
  117179:	c7 04 24 01 00 00 00 	movl   $0x1,(%esp)
  117180:	e8 8e d8 ff ff       	call   0x114a13
  117185:	85 c0                	test   %eax,%eax
  117187:	74 24                	je     0x1171ad
  117189:	c7 44 24 0c 0f 00 00 	movl   $0xf,0xc(%esp)
  117190:	00 
  117191:	c7 44 24 08 31 92 11 	movl   $0x119231,0x8(%esp)
  117198:	00 
  117199:	c7 44 24 04 31 92 11 	movl   $0x119231,0x4(%esp)
  1171a0:	00 
  1171a1:	c7 04 24 4f 92 11 00 	movl   $0x11924f,(%esp)
  1171a8:	e8 67 b2 ff ff       	call   0x112414
  1171ad:	8b 45 d0             	mov    0xffffffd0(%ebp),%eax
  1171b0:	8d 55 d0             	lea    0xffffffd0(%ebp),%edx
  1171b3:	89 54 24 08          	mov    %edx,0x8(%esp)
  1171b7:	89 44 24 04          	mov    %eax,0x4(%esp)
  1171bb:	c7 04 24 00 00 00 00 	movl   $0x0,(%esp)
  1171c2:	e8 4c d8 ff ff       	call   0x114a13
  1171c7:	85 c0                	test   %eax,%eax
  1171c9:	74 9f                	je     0x11716a
  1171cb:	c7 44 24 0c 11 00 00 	movl   $0x11,0xc(%esp)
  1171d2:	00 
  1171d3:	c7 44 24 08 31 92 11 	movl   $0x119231,0x8(%esp)
  1171da:	00 
  1171db:	c7 44 24 04 31 92 11 	movl   $0x119231,0x4(%esp)
  1171e2:	00 
  1171e3:	c7 04 24 63 92 11 00 	movl   $0x119263,(%esp)
  1171ea:	e8 25 b2 ff ff       	call   0x112414
  1171ef:	e9 76 ff ff ff       	jmp    0x11716a
  1171f4:	55                   	push   %ebp
  1171f5:	89 e5                	mov    %esp,%ebp
  1171f7:	83 ec 48             	sub    $0x48,%esp
  1171fa:	c7 44 24 04 00 00 00 	movl   $0x0,0x4(%esp)
  117201:	00 
  117202:	c7 04 24 7e 92 11 00 	movl   $0x11927e,(%esp)
  117209:	e8 7d af ff ff       	call   0x11218b
  11720e:	89 45 f8             	mov    %eax,0xfffffff8(%ebp)
  117211:	83 7d f8 00          	cmpl   $0x0,0xfffffff8(%ebp)
  117215:	74 24                	je     0x11723b
  117217:	c7 44 24 0c 19 00 00 	movl   $0x19,0xc(%esp)
  11721e:	00 
  11721f:	c7 44 24 08 31 92 11 	movl   $0x119231,0x8(%esp)
  117226:	00 
  117227:	c7 44 24 04 31 92 11 	movl   $0x119231,0x4(%esp)
  11722e:	00 
  11722f:	c7 04 24 38 92 11 00 	movl   $0x119238,(%esp)
  117236:	e8 d9 b1 ff ff       	call   0x112414
  11723b:	c7 44 24 04 00 00 00 	movl   $0x0,0x4(%esp)
  117242:	00 
  117243:	c7 04 24 7e 92 11 00 	movl   $0x11927e,(%esp)
  11724a:	e8 3c af ff ff       	call   0x11218b
  11724f:	89 45 fc             	mov    %eax,0xfffffffc(%ebp)
  117252:	83 7d fc 01          	cmpl   $0x1,0xfffffffc(%ebp)
  117256:	74 24                	je     0x11727c
  117258:	c7 44 24 0c 1b 00 00 	movl   $0x1b,0xc(%esp)
  11725f:	00 
  117260:	c7 44 24 08 31 92 11 	movl   $0x119231,0x8(%esp)
  117267:	00 
  117268:	c7 44 24 04 31 92 11 	movl   $0x119231,0x4(%esp)
  11726f:	00 
  117270:	c7 04 24 43 92 11 00 	movl   $0x119243,(%esp)
  117277:	e8 98 b1 ff ff       	call   0x112414
  11727c:	e8 b7 05 00 00       	call   0x117838
  117281:	89 44 24 04          	mov    %eax,0x4(%esp)
  117285:	c7 04 24 84 92 11 00 	movl   $0x119284,(%esp)
  11728c:	e8 a4 c4 ff ff       	call   0x113735
  117291:	8d 45 d0             	lea    0xffffffd0(%ebp),%eax
  117294:	89 44 24 08          	mov    %eax,0x8(%esp)
  117298:	c7 44 24 04 07 00 00 	movl   $0x7,0x4(%esp)
  11729f:	00 
  1172a0:	c7 04 24 02 00 00 00 	movl   $0x2,(%esp)
  1172a7:	e8 67 d7 ff ff       	call   0x114a13
  1172ac:	85 c0                	test   %eax,%eax
  1172ae:	74 24                	je     0x1172d4
  1172b0:	c7 44 24 0c 1f 00 00 	movl   $0x1f,0xc(%esp)
  1172b7:	00 
  1172b8:	c7 44 24 08 31 92 11 	movl   $0x119231,0x8(%esp)
  1172bf:	00 
  1172c0:	c7 44 24 04 31 92 11 	movl   $0x119231,0x4(%esp)
  1172c7:	00 
  1172c8:	c7 04 24 a8 92 11 00 	movl   $0x1192a8,(%esp)
  1172cf:	e8 40 b1 ff ff       	call   0x112414
  1172d4:	c7 04 24 04 00 00 00 	movl   $0x4,(%esp)
  1172db:	e8 fb 08 00 00       	call   0x117bdb
  1172e0:	eb 9a                	jmp    0x11727c
  1172e2:	55                   	push   %ebp
  1172e3:	89 e5                	mov    %esp,%ebp
  1172e5:	81 ec 88 00 00 00    	sub    $0x88,%esp
  1172eb:	c7 44 24 04 00 00 00 	movl   $0x0,0x4(%esp)
  1172f2:	00 
  1172f3:	c7 04 24 7e 92 11 00 	movl   $0x11927e,(%esp)
  1172fa:	e8 8c ae ff ff       	call   0x11218b
  1172ff:	89 45 f8             	mov    %eax,0xfffffff8(%ebp)
  117302:	83 7d f8 00          	cmpl   $0x0,0xfffffff8(%ebp)
  117306:	74 24                	je     0x11732c
  117308:	c7 44 24 0c 28 00 00 	movl   $0x28,0xc(%esp)
  11730f:	00 
  117310:	c7 44 24 08 31 92 11 	movl   $0x119231,0x8(%esp)
  117317:	00 
  117318:	c7 44 24 04 31 92 11 	movl   $0x119231,0x4(%esp)
  11731f:	00 
  117320:	c7 04 24 38 92 11 00 	movl   $0x119238,(%esp)
  117327:	e8 e8 b0 ff ff       	call   0x112414
  11732c:	c7 44 24 04 00 00 00 	movl   $0x0,0x4(%esp)
  117333:	00 
  117334:	c7 04 24 7e 92 11 00 	movl   $0x11927e,(%esp)
  11733b:	e8 4b ae ff ff       	call   0x11218b
  117340:	89 45 fc             	mov    %eax,0xfffffffc(%ebp)
  117343:	83 7d fc 01          	cmpl   $0x1,0xfffffffc(%ebp)
  117347:	74 26                	je     0x11736f
  117349:	c7 44 24 0c 2a 00 00 	movl   $0x2a,0xc(%esp)
  117350:	00 
  117351:	c7 44 24 08 31 92 11 	movl   $0x119231,0x8(%esp)
  117358:	00 
  117359:	c7 44 24 04 31 92 11 	movl   $0x119231,0x4(%esp)
  117360:	00 
  117361:	c7 04 24 43 92 11 00 	movl   $0x119243,(%esp)
  117368:	e8 a7 b0 ff ff       	call   0x112414
  11736d:	eb 00                	jmp    0x11736f
  11736f:	c7 44 24 0c 5a 00 00 	movl   $0x5a,0xc(%esp)
  117376:	00 
  117377:	c7 44 24 08 00 00 00 	movl   $0x0,0x8(%esp)
  11737e:	00 
  11737f:	8d 45 94             	lea    0xffffff94(%ebp),%eax
  117382:	89 44 24 04          	mov    %eax,0x4(%esp)
  117386:	8b 45 f8             	mov    0xfffffff8(%ebp),%eax
  117389:	89 04 24             	mov    %eax,(%esp)
  11738c:	e8 d6 ae ff ff       	call   0x112267
  117391:	83 f8 ff             	cmp    $0xffffffff,%eax
  117394:	75 0e                	jne    0x1173a4
  117396:	c7 04 24 32 00 00 00 	movl   $0x32,(%esp)
  11739d:	e8 26 08 00 00       	call   0x117bc8
  1173a2:	eb cb                	jmp    0x11736f
  1173a4:	c7 44 24 04 cc 92 11 	movl   $0x1192cc,0x4(%esp)
  1173ab:	00 
  1173ac:	8d 45 94             	lea    0xffffff94(%ebp),%eax
  1173af:	89 04 24             	mov    %eax,(%esp)
  1173b2:	e8 98 bf ff ff       	call   0x11334f
  1173b7:	85 c0                	test   %eax,%eax
  1173b9:	75 0e                	jne    0x1173c9
  1173bb:	c7 04 24 d2 92 11 00 	movl   $0x1192d2,(%esp)
  1173c2:	e8 6e c3 ff ff       	call   0x113735
  1173c7:	eb a6                	jmp    0x11736f
  1173c9:	8d 45 94             	lea    0xffffff94(%ebp),%eax
  1173cc:	89 44 24 04          	mov    %eax,0x4(%esp)
  1173d0:	c7 04 24 e3 92 11 00 	movl   $0x1192e3,(%esp)
  1173d7:	e8 59 c3 ff ff       	call   0x113735
  1173dc:	eb 91                	jmp    0x11736f
  1173de:	55                   	push   %ebp
  1173df:	89 e5                	mov    %esp,%ebp
  1173e1:	83 ec 58             	sub    $0x58,%esp
  1173e4:	c7 44 24 04 00 00 00 	movl   $0x0,0x4(%esp)
  1173eb:	00 
  1173ec:	c7 04 24 7e 92 11 00 	movl   $0x11927e,(%esp)
  1173f3:	e8 93 ad ff ff       	call   0x11218b
  1173f8:	89 45 f0             	mov    %eax,0xfffffff0(%ebp)
  1173fb:	83 7d f0 00          	cmpl   $0x0,0xfffffff0(%ebp)
  1173ff:	74 24                	je     0x117425
  117401:	c7 44 24 0c 41 00 00 	movl   $0x41,0xc(%esp)
  117408:	00 
  117409:	c7 44 24 08 31 92 11 	movl   $0x119231,0x8(%esp)
  117410:	00 
  117411:	c7 44 24 04 31 92 11 	movl   $0x119231,0x4(%esp)
  117418:	00 
  117419:	c7 04 24 38 92 11 00 	movl   $0x119238,(%esp)
  117420:	e8 ef af ff ff       	call   0x112414
  117425:	c7 44 24 04 00 00 00 	movl   $0x0,0x4(%esp)
  11742c:	00 
  11742d:	c7 04 24 7e 92 11 00 	movl   $0x11927e,(%esp)
  117434:	e8 52 ad ff ff       	call   0x11218b
  117439:	89 45 f4             	mov    %eax,0xfffffff4(%ebp)
  11743c:	83 7d f4 01          	cmpl   $0x1,0xfffffff4(%ebp)
  117440:	74 24                	je     0x117466
  117442:	c7 44 24 0c 43 00 00 	movl   $0x43,0xc(%esp)
  117449:	00 
  11744a:	c7 44 24 08 31 92 11 	movl   $0x119231,0x8(%esp)
  117451:	00 
  117452:	c7 44 24 04 31 92 11 	movl   $0x119231,0x4(%esp)
  117459:	00 
  11745a:	c7 04 24 43 92 11 00 	movl   $0x119243,(%esp)
  117461:	e8 ae af ff ff       	call   0x112414
  117466:	c7 45 f8 00 00 00 00 	movl   $0x0,0xfffffff8(%ebp)
  11746d:	c7 45 fc 00 00 00 00 	movl   $0x0,0xfffffffc(%ebp)
  117474:	e8 bf 03 00 00       	call   0x117838
  117479:	83 45 f8 01          	addl   $0x1,0xfffffff8(%ebp)
  11747d:	89 44 24 08          	mov    %eax,0x8(%esp)
  117481:	8b 45 f8             	mov    0xfffffff8(%ebp),%eax
  117484:	89 44 24 04          	mov    %eax,0x4(%esp)
  117488:	c7 04 24 f0 92 11 00 	movl   $0x1192f0,(%esp)
  11748f:	e8 a1 c2 ff ff       	call   0x113735
  117494:	e8 fb 03 00 00       	call   0x117894
  117499:	2b 45 fc             	sub    0xfffffffc(%ebp),%eax
  11749c:	89 44 24 04          	mov    %eax,0x4(%esp)
  1174a0:	c7 04 24 19 93 11 00 	movl   $0x119319,(%esp)
  1174a7:	e8 89 c2 ff ff       	call   0x113735
  1174ac:	e8 e3 03 00 00       	call   0x117894
  1174b1:	89 45 fc             	mov    %eax,0xfffffffc(%ebp)
  1174b4:	8d 45 c8             	lea    0xffffffc8(%ebp),%eax
  1174b7:	89 44 24 08          	mov    %eax,0x8(%esp)
  1174bb:	c7 44 24 04 07 00 00 	movl   $0x7,0x4(%esp)
  1174c2:	00 
  1174c3:	c7 04 24 02 00 00 00 	movl   $0x2,(%esp)
  1174ca:	e8 44 d5 ff ff       	call   0x114a13
  1174cf:	85 c0                	test   %eax,%eax
  1174d1:	74 24                	je     0x1174f7
  1174d3:	c7 44 24 0c 4d 00 00 	movl   $0x4d,0xc(%esp)
  1174da:	00 
  1174db:	c7 44 24 08 31 92 11 	movl   $0x119231,0x8(%esp)
  1174e2:	00 
  1174e3:	c7 44 24 04 31 92 11 	movl   $0x119231,0x4(%esp)
  1174ea:	00 
  1174eb:	c7 04 24 a8 92 11 00 	movl   $0x1192a8,(%esp)
  1174f2:	e8 1d af ff ff       	call   0x112414
  1174f7:	c7 04 24 07 00 00 00 	movl   $0x7,(%esp)
  1174fe:	e8 d8 06 00 00       	call   0x117bdb
  117503:	e9 6c ff ff ff       	jmp    0x117474
  117508:	55                   	push   %ebp
  117509:	89 e5                	mov    %esp,%ebp
  11750b:	83 ec 48             	sub    $0x48,%esp
  11750e:	eb 00                	jmp    0x117510
  117510:	8d 45 d4             	lea    0xffffffd4(%ebp),%eax
  117513:	89 44 24 08          	mov    %eax,0x8(%esp)
  117517:	c7 44 24 04 ff ff ff 	movl   $0xffffffff,0x4(%esp)
  11751e:	ff 
  11751f:	c7 04 24 01 00 00 00 	movl   $0x1,(%esp)
  117526:	e8 e8 d4 ff ff       	call   0x114a13
  11752b:	85 c0                	test   %eax,%eax
  11752d:	74 24                	je     0x117553
  11752f:	c7 44 24 0c 0c 00 00 	movl   $0xc,0xc(%esp)
  117536:	00 
  117537:	c7 44 24 08 30 93 11 	movl   $0x119330,0x8(%esp)
  11753e:	00 
  11753f:	c7 44 24 04 30 93 11 	movl   $0x119330,0x4(%esp)
  117546:	00 
  117547:	c7 04 24 3b 93 11 00 	movl   $0x11933b,(%esp)
  11754e:	e8 c1 ae ff ff       	call   0x112414
  117553:	8b 45 dc             	mov    0xffffffdc(%ebp),%eax
  117556:	83 f8 fc             	cmp    $0xfffffffc,%eax
  117559:	74 24                	je     0x11757f
  11755b:	c7 44 24 0c 0d 00 00 	movl   $0xd,0xc(%esp)
  117562:	00 
  117563:	c7 44 24 08 30 93 11 	movl   $0x119330,0x8(%esp)
  11756a:	00 
  11756b:	c7 44 24 04 30 93 11 	movl   $0x119330,0x4(%esp)
  117572:	00 
  117573:	c7 04 24 58 93 11 00 	movl   $0x119358,(%esp)
  11757a:	e8 95 ae ff ff       	call   0x112414
  11757f:	8d 45 d4             	lea    0xffffffd4(%ebp),%eax
  117582:	83 c0 0c             	add    $0xc,%eax
  117585:	89 45 fc             	mov    %eax,0xfffffffc(%ebp)
  117588:	8b 45 fc             	mov    0xfffffffc(%ebp),%eax
  11758b:	8b 00                	mov    (%eax),%eax
  11758d:	89 45 cc             	mov    %eax,0xffffffcc(%ebp)
  117590:	83 7d cc 05          	cmpl   $0x5,0xffffffcc(%ebp)
  117594:	0f 87 b9 00 00 00    	ja     0x117653
  11759a:	8b 55 cc             	mov    0xffffffcc(%ebp),%edx
  11759d:	8b 04 95 98 93 11 00 	mov    0x119398(,%edx,4),%eax
  1175a4:	ff e0                	jmp    *%eax
  1175a6:	e8 67 bd ff ff       	call   0x113312
  1175ab:	a1 00 d2 11 00       	mov    0x11d200,%eax
  1175b0:	89 c2                	mov    %eax,%edx
  1175b2:	8b 45 fc             	mov    0xfffffffc(%ebp),%eax
  1175b5:	89 10                	mov    %edx,(%eax)
  1175b7:	e8 4c bd ff ff       	call   0x113308
  1175bc:	e9 92 00 00 00       	jmp    0x117653
  1175c1:	e8 4c bd ff ff       	call   0x113312
  1175c6:	8b 15 ac ac 11 00    	mov    0x11acac,%edx
  1175cc:	8b 45 fc             	mov    0xfffffffc(%ebp),%eax
  1175cf:	89 10                	mov    %edx,(%eax)
  1175d1:	e8 32 bd ff ff       	call   0x113308
  1175d6:	eb 7b                	jmp    0x117653
  1175d8:	8b 45 fc             	mov    0xfffffffc(%ebp),%eax
  1175db:	89 04 24             	mov    %eax,(%esp)
  1175de:	e8 bb 00 00 00       	call   0x11769e
  1175e3:	eb 6e                	jmp    0x117653
  1175e5:	e8 28 bd ff ff       	call   0x113312
  1175ea:	8b 45 d4             	mov    0xffffffd4(%ebp),%eax
  1175ed:	69 c0 28 01 00 00    	imul   $0x128,%eax,%eax
  1175f3:	05 00 d9 11 00       	add    $0x11d900,%eax
  1175f8:	8b 80 0c 01 00 00    	mov    0x10c(%eax),%eax
  1175fe:	89 c2                	mov    %eax,%edx
  117600:	8b 45 fc             	mov    0xfffffffc(%ebp),%eax
  117603:	89 10                	mov    %edx,(%eax)
  117605:	e8 fe bc ff ff       	call   0x113308
  11760a:	eb 47                	jmp    0x117653
  11760c:	e8 01 bd ff ff       	call   0x113312
  117611:	8b 45 d4             	mov    0xffffffd4(%ebp),%eax
  117614:	69 c0 28 01 00 00    	imul   $0x128,%eax,%eax
  11761a:	05 00 d9 11 00       	add    $0x11d900,%eax
  11761f:	8b 50 5c             	mov    0x5c(%eax),%edx
  117622:	8b 45 fc             	mov    0xfffffffc(%ebp),%eax
  117625:	89 10                	mov    %edx,(%eax)
  117627:	e8 dc bc ff ff       	call   0x113308
  11762c:	eb 25                	jmp    0x117653
  11762e:	e8 df bc ff ff       	call   0x113312
  117633:	8b 45 d4             	mov    0xffffffd4(%ebp),%eax
  117636:	69 c0 28 01 00 00    	imul   $0x128,%eax,%eax
  11763c:	8d 90 00 d9 11 00    	lea    0x11d900(%eax),%edx
  117642:	8b 45 fc             	mov    0xfffffffc(%ebp),%eax
  117645:	8b 40 0c             	mov    0xc(%eax),%eax
  117648:	89 82 0c 01 00 00    	mov    %eax,0x10c(%edx)
  11764e:	e8 b5 bc ff ff       	call   0x113308
  117653:	8b 45 d4             	mov    0xffffffd4(%ebp),%eax
  117656:	8d 55 d4             	lea    0xffffffd4(%ebp),%edx
  117659:	89 54 24 08          	mov    %edx,0x8(%esp)
  11765d:	89 44 24 04          	mov    %eax,0x4(%esp)
  117661:	c7 04 24 00 00 00 00 	movl   $0x0,(%esp)
  117668:	e8 a6 d3 ff ff       	call   0x114a13
  11766d:	85 c0                	test   %eax,%eax
  11766f:	0f 84 9b fe ff ff    	je     0x117510
  117675:	c7 44 24 0c 2f 00 00 	movl   $0x2f,0xc(%esp)
  11767c:	00 
  11767d:	c7 44 24 08 30 93 11 	movl   $0x119330,0x8(%esp)
  117684:	00 
  117685:	c7 44 24 04 30 93 11 	movl   $0x119330,0x4(%esp)
  11768c:	00 
  11768d:	c7 04 24 74 93 11 00 	movl   $0x119374,(%esp)
  117694:	e8 7b ad ff ff       	call   0x112414
  117699:	e9 72 fe ff ff       	jmp    0x117510
  11769e:	55                   	push   %ebp
  11769f:	89 e5                	mov    %esp,%ebp
  1176a1:	53                   	push   %ebx
  1176a2:	83 ec 14             	sub    $0x14,%esp
  1176a5:	8b 45 08             	mov    0x8(%ebp),%eax
  1176a8:	0f b6 40 04          	movzbl 0x4(%eax),%eax
  1176ac:	3c 0a                	cmp    $0xa,%al
  1176ae:	0f 85 92 00 00 00    	jne    0x117746
  1176b4:	e8 59 bc ff ff       	call   0x113312
  1176b9:	8b 45 08             	mov    0x8(%ebp),%eax
  1176bc:	8b 40 08             	mov    0x8(%eax),%eax
  1176bf:	8b 90 84 00 00 00    	mov    0x84(%eax),%edx
  1176c5:	8b 45 08             	mov    0x8(%ebp),%eax
  1176c8:	8b 40 08             	mov    0x8(%eax),%eax
  1176cb:	8b 80 84 00 00 00    	mov    0x84(%eax),%eax
  1176d1:	8b 40 08             	mov    0x8(%eax),%eax
  1176d4:	05 a0 00 00 00       	add    $0xa0,%eax
  1176d9:	89 42 08             	mov    %eax,0x8(%edx)
  1176dc:	8b 45 08             	mov    0x8(%ebp),%eax
  1176df:	8b 40 08             	mov    0x8(%eax),%eax
  1176e2:	8b 98 84 00 00 00    	mov    0x84(%eax),%ebx
  1176e8:	8b 45 08             	mov    0x8(%ebp),%eax
  1176eb:	8b 40 08             	mov    0x8(%eax),%eax
  1176ee:	8b 80 84 00 00 00    	mov    0x84(%eax),%eax
  1176f4:	8b 48 08             	mov    0x8(%eax),%ecx
  1176f7:	c7 45 e8 67 66 66 66 	movl   $0x66666667,0xffffffe8(%ebp)
  1176fe:	8b 45 e8             	mov    0xffffffe8(%ebp),%eax
  117701:	f7 e9                	imul   %ecx
  117703:	c1 fa 06             	sar    $0x6,%edx
  117706:	89 c8                	mov    %ecx,%eax
  117708:	c1 f8 1f             	sar    $0x1f,%eax
  11770b:	89 d1                	mov    %edx,%ecx
  11770d:	29 c1                	sub    %eax,%ecx
  11770f:	89 c8                	mov    %ecx,%eax
  117711:	89 43 08             	mov    %eax,0x8(%ebx)
  117714:	8b 45 08             	mov    0x8(%ebp),%eax
  117717:	8b 40 08             	mov    0x8(%eax),%eax
  11771a:	8b 88 84 00 00 00    	mov    0x84(%eax),%ecx
  117720:	8b 45 08             	mov    0x8(%ebp),%eax
  117723:	8b 40 08             	mov    0x8(%eax),%eax
  117726:	8b 80 84 00 00 00    	mov    0x84(%eax),%eax
  11772c:	8b 50 08             	mov    0x8(%eax),%edx
  11772f:	89 d0                	mov    %edx,%eax
  117731:	c1 e0 02             	shl    $0x2,%eax
  117734:	01 d0                	add    %edx,%eax
  117736:	c1 e0 05             	shl    $0x5,%eax
  117739:	89 41 08             	mov    %eax,0x8(%ecx)
  11773c:	e8 c7 bb ff ff       	call   0x113308
  117741:	e9 c1 00 00 00       	jmp    0x117807
  117746:	8b 45 08             	mov    0x8(%ebp),%eax
  117749:	8b 40 08             	mov    0x8(%eax),%eax
  11774c:	8b 80 84 00 00 00    	mov    0x84(%eax),%eax
  117752:	8b 00                	mov    (%eax),%eax
  117754:	8d 90 00 80 0b 00    	lea    0xb8000(%eax),%edx
  11775a:	8b 45 08             	mov    0x8(%ebp),%eax
  11775d:	8b 40 08             	mov    0x8(%eax),%eax
  117760:	8b 80 84 00 00 00    	mov    0x84(%eax),%eax
  117766:	8b 40 04             	mov    0x4(%eax),%eax
  117769:	01 c2                	add    %eax,%edx
  11776b:	8b 45 08             	mov    0x8(%ebp),%eax
  11776e:	8b 40 08             	mov    0x8(%eax),%eax
  117771:	8b 80 84 00 00 00    	mov    0x84(%eax),%eax
  117777:	8b 40 08             	mov    0x8(%eax),%eax
  11777a:	8d 04 02             	lea    (%edx,%eax,1),%eax
  11777d:	89 45 f8             	mov    %eax,0xfffffff8(%ebp)
  117780:	e8 8d bb ff ff       	call   0x113312
  117785:	8b 45 08             	mov    0x8(%ebp),%eax
  117788:	0f b6 40 04          	movzbl 0x4(%eax),%eax
  11778c:	3c 08                	cmp    $0x8,%al
  11778e:	75 2d                	jne    0x1177bd
  117790:	83 6d f8 02          	subl   $0x2,0xfffffff8(%ebp)
  117794:	8b 45 f8             	mov    0xfffffff8(%ebp),%eax
  117797:	c6 00 20             	movb   $0x20,(%eax)
  11779a:	8b 45 08             	mov    0x8(%ebp),%eax
  11779d:	8b 40 08             	mov    0x8(%eax),%eax
  1177a0:	8b 90 84 00 00 00    	mov    0x84(%eax),%edx
  1177a6:	8b 45 08             	mov    0x8(%ebp),%eax
  1177a9:	8b 40 08             	mov    0x8(%eax),%eax
  1177ac:	8b 80 84 00 00 00    	mov    0x84(%eax),%eax
  1177b2:	8b 40 08             	mov    0x8(%eax),%eax
  1177b5:	83 e8 02             	sub    $0x2,%eax
  1177b8:	89 42 08             	mov    %eax,0x8(%edx)
  1177bb:	eb 45                	jmp    0x117802
  1177bd:	8b 55 f8             	mov    0xfffffff8(%ebp),%edx
  1177c0:	8b 45 08             	mov    0x8(%ebp),%eax
  1177c3:	0f b6 40 04          	movzbl 0x4(%eax),%eax
  1177c7:	88 02                	mov    %al,(%edx)
  1177c9:	83 45 f8 01          	addl   $0x1,0xfffffff8(%ebp)
  1177cd:	8b 55 f8             	mov    0xfffffff8(%ebp),%edx
  1177d0:	8b 45 08             	mov    0x8(%ebp),%eax
  1177d3:	8b 40 08             	mov    0x8(%eax),%eax
  1177d6:	8b 80 84 00 00 00    	mov    0x84(%eax),%eax
  1177dc:	8b 40 0c             	mov    0xc(%eax),%eax
  1177df:	88 02                	mov    %al,(%edx)
  1177e1:	8b 45 08             	mov    0x8(%ebp),%eax
  1177e4:	8b 40 08             	mov    0x8(%eax),%eax
  1177e7:	8b 90 84 00 00 00    	mov    0x84(%eax),%edx
  1177ed:	8b 45 08             	mov    0x8(%ebp),%eax
  1177f0:	8b 40 08             	mov    0x8(%eax),%eax
  1177f3:	8b 80 84 00 00 00    	mov    0x84(%eax),%eax
  1177f9:	8b 40 08             	mov    0x8(%eax),%eax
  1177fc:	83 c0 02             	add    $0x2,%eax
  1177ff:	89 42 08             	mov    %eax,0x8(%edx)
  117802:	e8 01 bb ff ff       	call   0x113308
  117807:	c7 05 04 d2 11 00 01 	movl   $0x1,0x11d204
  11780e:	00 00 00 
  117811:	8b 45 08             	mov    0x8(%ebp),%eax
  117814:	8b 40 08             	mov    0x8(%eax),%eax
  117817:	8b 90 84 00 00 00    	mov    0x84(%eax),%edx
  11781d:	a1 08 d2 11 00       	mov    0x11d208,%eax
  117822:	8b 80 84 00 00 00    	mov    0x84(%eax),%eax
  117828:	39 c2                	cmp    %eax,%edx
  11782a:	75 05                	jne    0x117831
  11782c:	e8 9f cf ff ff       	call   0x1147d0
  117831:	83 c4 14             	add    $0x14,%esp
  117834:	5b                   	pop    %ebx
  117835:	5d                   	pop    %ebp
  117836:	c3                   	ret    
  117837:	90                   	nop    
  117838:	55                   	push   %ebp
  117839:	89 e5                	mov    %esp,%ebp
  11783b:	83 ec 48             	sub    $0x48,%esp
  11783e:	c7 45 e0 fc ff ff ff 	movl   $0xfffffffc,0xffffffe0(%ebp)
  117845:	c7 45 e4 00 00 00 00 	movl   $0x0,0xffffffe4(%ebp)
  11784c:	8d 45 d8             	lea    0xffffffd8(%ebp),%eax
  11784f:	89 44 24 08          	mov    %eax,0x8(%esp)
  117853:	c7 44 24 04 01 00 00 	movl   $0x1,0x4(%esp)
  11785a:	00 
  11785b:	c7 04 24 02 00 00 00 	movl   $0x2,(%esp)
  117862:	e8 ac d1 ff ff       	call   0x114a13
  117867:	85 c0                	test   %eax,%eax
  117869:	74 24                	je     0x11788f
  11786b:	c7 44 24 0c 09 00 00 	movl   $0x9,0xc(%esp)
  117872:	00 
  117873:	c7 44 24 08 b0 93 11 	movl   $0x1193b0,0x8(%esp)
  11787a:	00 
  11787b:	c7 44 24 04 b0 93 11 	movl   $0x1193b0,0x4(%esp)
  117882:	00 
  117883:	c7 04 24 bc 93 11 00 	movl   $0x1193bc,(%esp)
  11788a:	e8 85 ab ff ff       	call   0x112414
  11788f:	8b 45 e4             	mov    0xffffffe4(%ebp),%eax
  117892:	c9                   	leave  
  117893:	c3                   	ret    
  117894:	55                   	push   %ebp
  117895:	89 e5                	mov    %esp,%ebp
  117897:	83 ec 48             	sub    $0x48,%esp
  11789a:	c7 45 e0 fc ff ff ff 	movl   $0xfffffffc,0xffffffe0(%ebp)
  1178a1:	c7 45 e4 01 00 00 00 	movl   $0x1,0xffffffe4(%ebp)
  1178a8:	8d 45 d8             	lea    0xffffffd8(%ebp),%eax
  1178ab:	89 44 24 08          	mov    %eax,0x8(%esp)
  1178af:	c7 44 24 04 01 00 00 	movl   $0x1,0x4(%esp)
  1178b6:	00 
  1178b7:	c7 04 24 02 00 00 00 	movl   $0x2,(%esp)
  1178be:	e8 50 d1 ff ff       	call   0x114a13
  1178c3:	85 c0                	test   %eax,%eax
  1178c5:	74 24                	je     0x1178eb
  1178c7:	c7 44 24 0c 13 00 00 	movl   $0x13,0xc(%esp)
  1178ce:	00 
  1178cf:	c7 44 24 08 b0 93 11 	movl   $0x1193b0,0x8(%esp)
  1178d6:	00 
  1178d7:	c7 44 24 04 b0 93 11 	movl   $0x1193b0,0x4(%esp)
  1178de:	00 
  1178df:	c7 04 24 bc 93 11 00 	movl   $0x1193bc,(%esp)
  1178e6:	e8 29 ab ff ff       	call   0x112414
  1178eb:	8b 45 e4             	mov    0xffffffe4(%ebp),%eax
  1178ee:	c9                   	leave  
  1178ef:	c3                   	ret    
  1178f0:	55                   	push   %ebp
  1178f1:	89 e5                	mov    %esp,%ebp
  1178f3:	83 ec 48             	sub    $0x48,%esp
  1178f6:	c7 45 e0 fc ff ff ff 	movl   $0xfffffffc,0xffffffe0(%ebp)
  1178fd:	c7 45 e4 03 00 00 00 	movl   $0x3,0xffffffe4(%ebp)
  117904:	8d 45 d8             	lea    0xffffffd8(%ebp),%eax
  117907:	89 44 24 08          	mov    %eax,0x8(%esp)
  11790b:	c7 44 24 04 01 00 00 	movl   $0x1,0x4(%esp)
  117912:	00 
  117913:	c7 04 24 02 00 00 00 	movl   $0x2,(%esp)
  11791a:	e8 f4 d0 ff ff       	call   0x114a13
  11791f:	85 c0                	test   %eax,%eax
  117921:	74 24                	je     0x117947
  117923:	c7 44 24 0c 1d 00 00 	movl   $0x1d,0xc(%esp)
  11792a:	00 
  11792b:	c7 44 24 08 b0 93 11 	movl   $0x1193b0,0x8(%esp)
  117932:	00 
  117933:	c7 44 24 04 b0 93 11 	movl   $0x1193b0,0x4(%esp)
  11793a:	00 
  11793b:	c7 04 24 bc 93 11 00 	movl   $0x1193bc,(%esp)
  117942:	e8 cd aa ff ff       	call   0x112414
  117947:	8b 45 e4             	mov    0xffffffe4(%ebp),%eax
  11794a:	c9                   	leave  
  11794b:	c3                   	ret    
  11794c:	55                   	push   %ebp
  11794d:	89 e5                	mov    %esp,%ebp
  11794f:	83 ec 48             	sub    $0x48,%esp
  117952:	c7 45 e0 fc ff ff ff 	movl   $0xfffffffc,0xffffffe0(%ebp)
  117959:	c7 45 e4 04 00 00 00 	movl   $0x4,0xffffffe4(%ebp)
  117960:	8d 45 d8             	lea    0xffffffd8(%ebp),%eax
  117963:	89 44 24 08          	mov    %eax,0x8(%esp)
  117967:	c7 44 24 04 01 00 00 	movl   $0x1,0x4(%esp)
  11796e:	00 
  11796f:	c7 04 24 02 00 00 00 	movl   $0x2,(%esp)
  117976:	e8 98 d0 ff ff       	call   0x114a13
  11797b:	85 c0                	test   %eax,%eax
  11797d:	74 24                	je     0x1179a3
  11797f:	c7 44 24 0c 27 00 00 	movl   $0x27,0xc(%esp)
  117986:	00 
  117987:	c7 44 24 08 b0 93 11 	movl   $0x1193b0,0x8(%esp)
  11798e:	00 
  11798f:	c7 44 24 04 b0 93 11 	movl   $0x1193b0,0x4(%esp)
  117996:	00 
  117997:	c7 04 24 bc 93 11 00 	movl   $0x1193bc,(%esp)
  11799e:	e8 71 aa ff ff       	call   0x112414
  1179a3:	8b 45 e4             	mov    0xffffffe4(%ebp),%eax
  1179a6:	c9                   	leave  
  1179a7:	c3                   	ret    
  1179a8:	55                   	push   %ebp
  1179a9:	89 e5                	mov    %esp,%ebp
  1179ab:	83 ec 48             	sub    $0x48,%esp
  1179ae:	c7 45 e0 fc ff ff ff 	movl   $0xfffffffc,0xffffffe0(%ebp)
  1179b5:	c7 45 e4 05 00 00 00 	movl   $0x5,0xffffffe4(%ebp)
  1179bc:	8b 45 08             	mov    0x8(%ebp),%eax
  1179bf:	89 45 f0             	mov    %eax,0xfffffff0(%ebp)
  1179c2:	8d 45 d8             	lea    0xffffffd8(%ebp),%eax
  1179c5:	89 44 24 08          	mov    %eax,0x8(%esp)
  1179c9:	c7 44 24 04 01 00 00 	movl   $0x1,0x4(%esp)
  1179d0:	00 
  1179d1:	c7 04 24 02 00 00 00 	movl   $0x2,(%esp)
  1179d8:	e8 36 d0 ff ff       	call   0x114a13
  1179dd:	85 c0                	test   %eax,%eax
  1179df:	74 24                	je     0x117a05
  1179e1:	c7 44 24 0c 32 00 00 	movl   $0x32,0xc(%esp)
  1179e8:	00 
  1179e9:	c7 44 24 08 b0 93 11 	movl   $0x1193b0,0x8(%esp)
  1179f0:	00 
  1179f1:	c7 44 24 04 b0 93 11 	movl   $0x1193b0,0x4(%esp)
  1179f8:	00 
  1179f9:	c7 04 24 bc 93 11 00 	movl   $0x1193bc,(%esp)
  117a00:	e8 0f aa ff ff       	call   0x112414
  117a05:	c9                   	leave  
  117a06:	c3                   	ret    
  117a07:	90                   	nop    
  117a08:	55                   	push   %ebp
  117a09:	89 e5                	mov    %esp,%ebp
  117a0b:	83 ec 38             	sub    $0x38,%esp
  117a0e:	c7 44 24 04 01 00 00 	movl   $0x1,0x4(%esp)
  117a15:	00 
  117a16:	c7 04 24 e4 93 11 00 	movl   $0x1193e4,(%esp)
  117a1d:	e8 69 a7 ff ff       	call   0x11218b
  117a22:	89 45 f0             	mov    %eax,0xfffffff0(%ebp)
  117a25:	83 7d f0 00          	cmpl   $0x0,0xfffffff0(%ebp)
  117a29:	74 24                	je     0x117a4f
  117a2b:	c7 44 24 0c 10 00 00 	movl   $0x10,0xc(%esp)
  117a32:	00 
  117a33:	c7 44 24 08 e9 93 11 	movl   $0x1193e9,0x8(%esp)
  117a3a:	00 
  117a3b:	c7 44 24 04 e9 93 11 	movl   $0x1193e9,0x4(%esp)
  117a42:	00 
  117a43:	c7 04 24 f0 93 11 00 	movl   $0x1193f0,(%esp)
  117a4a:	e8 c5 a9 ff ff       	call   0x112414
  117a4f:	c7 44 24 04 01 00 00 	movl   $0x1,0x4(%esp)
  117a56:	00 
  117a57:	c7 04 24 e4 93 11 00 	movl   $0x1193e4,(%esp)
  117a5e:	e8 28 a7 ff ff       	call   0x11218b
  117a63:	89 45 f4             	mov    %eax,0xfffffff4(%ebp)
  117a66:	83 7d f4 01          	cmpl   $0x1,0xfffffff4(%ebp)
  117a6a:	74 24                	je     0x117a90
  117a6c:	c7 44 24 0c 12 00 00 	movl   $0x12,0xc(%esp)
  117a73:	00 
  117a74:	c7 44 24 08 e9 93 11 	movl   $0x1193e9,0x8(%esp)
  117a7b:	00 
  117a7c:	c7 44 24 04 e9 93 11 	movl   $0x1193e9,0x4(%esp)
  117a83:	00 
  117a84:	c7 04 24 fb 93 11 00 	movl   $0x1193fb,(%esp)
  117a8b:	e8 84 a9 ff ff       	call   0x112414
  117a90:	c7 44 24 04 01 00 00 	movl   $0x1,0x4(%esp)
  117a97:	00 
  117a98:	c7 04 24 07 94 11 00 	movl   $0x119407,(%esp)
  117a9f:	e8 e7 a6 ff ff       	call   0x11218b
  117aa4:	89 45 f8             	mov    %eax,0xfffffff8(%ebp)
  117aa7:	c7 44 24 0c 01 00 00 	movl   $0x1,0xc(%esp)
  117aae:	00 
  117aaf:	c7 44 24 08 00 00 00 	movl   $0x0,0x8(%esp)
  117ab6:	00 
  117ab7:	8d 45 ef             	lea    0xffffffef(%ebp),%eax
  117aba:	89 44 24 04          	mov    %eax,0x4(%esp)
  117abe:	8b 45 f8             	mov    0xfffffff8(%ebp),%eax
  117ac1:	89 04 24             	mov    %eax,(%esp)
  117ac4:	e8 9e a7 ff ff       	call   0x112267
  117ac9:	0f b6 45 ef          	movzbl 0xffffffef(%ebp),%eax
  117acd:	84 c0                	test   %al,%al
  117acf:	74 5a                	je     0x117b2b
  117ad1:	c7 04 24 07 94 11 00 	movl   $0x119407,(%esp)
  117ad8:	e8 b7 03 00 00       	call   0x117e94
  117add:	85 c0                	test   %eax,%eax
  117adf:	74 24                	je     0x117b05
  117ae1:	c7 44 24 0c 1a 00 00 	movl   $0x1a,0xc(%esp)
  117ae8:	00 
  117ae9:	c7 44 24 08 e9 93 11 	movl   $0x1193e9,0x8(%esp)
  117af0:	00 
  117af1:	c7 44 24 04 e9 93 11 	movl   $0x1193e9,0x4(%esp)
  117af8:	00 
  117af9:	c7 04 24 0f 94 11 00 	movl   $0x11940f,(%esp)
  117b00:	e8 0f a9 ff ff       	call   0x112414
  117b05:	c6 45 ef 00          	movb   $0x0,0xffffffef(%ebp)
  117b09:	c7 44 24 0c 01 00 00 	movl   $0x1,0xc(%esp)
  117b10:	00 
  117b11:	c7 44 24 08 ff ff ff 	movl   $0xffffffff,0x8(%esp)
  117b18:	ff 
  117b19:	8d 45 ef             	lea    0xffffffef(%ebp),%eax
  117b1c:	89 44 24 04          	mov    %eax,0x4(%esp)
  117b20:	8b 45 f8             	mov    0xfffffff8(%ebp),%eax
  117b23:	89 04 24             	mov    %eax,(%esp)
  117b26:	e8 c8 a6 ff ff       	call   0x1121f3
  117b2b:	8b 45 f8             	mov    0xfffffff8(%ebp),%eax
  117b2e:	89 04 24             	mov    %eax,(%esp)
  117b31:	e8 a5 a7 ff ff       	call   0x1122db
  117b36:	e8 74 b5 ff ff       	call   0x1130af
  117b3b:	89 45 fc             	mov    %eax,0xfffffffc(%ebp)
  117b3e:	83 7d fc 00          	cmpl   $0x0,0xfffffffc(%ebp)
  117b42:	74 36                	je     0x117b7a
  117b44:	c7 04 24 27 94 11 00 	movl   $0x119427,(%esp)
  117b4b:	e8 e5 bb ff ff       	call   0x113735
  117b50:	8d 45 e8             	lea    0xffffffe8(%ebp),%eax
  117b53:	89 04 24             	mov    %eax,(%esp)
  117b56:	e8 0f b6 ff ff       	call   0x11316a
  117b5b:	89 45 fc             	mov    %eax,0xfffffffc(%ebp)
  117b5e:	8b 45 e8             	mov    0xffffffe8(%ebp),%eax
  117b61:	89 44 24 08          	mov    %eax,0x8(%esp)
  117b65:	8b 45 fc             	mov    0xfffffffc(%ebp),%eax
  117b68:	89 44 24 04          	mov    %eax,0x4(%esp)
  117b6c:	c7 04 24 30 94 11 00 	movl   $0x119430,(%esp)
  117b73:	e8 bd bb ff ff       	call   0x113735
  117b78:	eb ca                	jmp    0x117b44
  117b7a:	e8 cd fd ff ff       	call   0x11794c
  117b7f:	89 44 24 04          	mov    %eax,0x4(%esp)
  117b83:	c7 04 24 61 94 11 00 	movl   $0x119461,(%esp)
  117b8a:	e8 a6 bb ff ff       	call   0x113735
  117b8f:	c7 45 e0 71 94 11 00 	movl   $0x119471,0xffffffe0(%ebp)
  117b96:	c7 45 e4 77 94 11 00 	movl   $0x119477,0xffffffe4(%ebp)
  117b9d:	8d 45 e0             	lea    0xffffffe0(%ebp),%eax
  117ba0:	89 44 24 08          	mov    %eax,0x8(%esp)
  117ba4:	c7 44 24 04 02 00 00 	movl   $0x2,0x4(%esp)
  117bab:	00 
  117bac:	c7 04 24 71 94 11 00 	movl   $0x119471,(%esp)
  117bb3:	e8 14 b6 ff ff       	call   0x1131cc
  117bb8:	c7 04 24 00 00 00 00 	movl   $0x0,(%esp)
  117bbf:	e8 47 b5 ff ff       	call   0x11310b
  117bc4:	eb b4                	jmp    0x117b7a
  117bc6:	90                   	nop    
  117bc7:	90                   	nop    
  117bc8:	55                   	push   %ebp
  117bc9:	89 e5                	mov    %esp,%ebp
  117bcb:	83 ec 08             	sub    $0x8,%esp
  117bce:	8b 45 08             	mov    0x8(%ebp),%eax
  117bd1:	89 04 24             	mov    %eax,(%esp)
  117bd4:	e8 e7 bb ff ff       	call   0x1137c0
  117bd9:	c9                   	leave  
  117bda:	c3                   	ret    
  117bdb:	55                   	push   %ebp
  117bdc:	89 e5                	mov    %esp,%ebp
  117bde:	83 ec 08             	sub    $0x8,%esp
  117be1:	8b 45 08             	mov    0x8(%ebp),%eax
  117be4:	6b c0 64             	imul   $0x64,%eax,%eax
  117be7:	89 04 24             	mov    %eax,(%esp)
  117bea:	e8 d1 bb ff ff       	call   0x1137c0
  117bef:	c9                   	leave  
  117bf0:	c3                   	ret    
  117bf1:	55                   	push   %ebp
  117bf2:	89 e5                	mov    %esp,%ebp
  117bf4:	83 ec 28             	sub    $0x28,%esp
  117bf7:	c7 04 24 7c 94 11 00 	movl   $0x11947c,(%esp)
  117bfe:	e8 f1 ba ff ff       	call   0x1136f4
  117c03:	8b 45 08             	mov    0x8(%ebp),%eax
  117c06:	8b 00                	mov    (%eax),%eax
  117c08:	89 44 24 04          	mov    %eax,0x4(%esp)
  117c0c:	c7 04 24 7e 94 11 00 	movl   $0x11947e,(%esp)
  117c13:	e8 dc ba ff ff       	call   0x1136f4
  117c18:	8b 45 08             	mov    0x8(%ebp),%eax
  117c1b:	8b 40 04             	mov    0x4(%eax),%eax
  117c1e:	89 44 24 04          	mov    %eax,0x4(%esp)
  117c22:	c7 04 24 91 94 11 00 	movl   $0x119491,(%esp)
  117c29:	e8 c6 ba ff ff       	call   0x1136f4
  117c2e:	8b 45 08             	mov    0x8(%ebp),%eax
  117c31:	8b 40 08             	mov    0x8(%eax),%eax
  117c34:	89 44 24 04          	mov    %eax,0x4(%esp)
  117c38:	c7 04 24 a4 94 11 00 	movl   $0x1194a4,(%esp)
  117c3f:	e8 b0 ba ff ff       	call   0x1136f4
  117c44:	8b 45 08             	mov    0x8(%ebp),%eax
  117c47:	8b 40 0c             	mov    0xc(%eax),%eax
  117c4a:	89 44 24 04          	mov    %eax,0x4(%esp)
  117c4e:	c7 04 24 b4 94 11 00 	movl   $0x1194b4,(%esp)
  117c55:	e8 9a ba ff ff       	call   0x1136f4
  117c5a:	8b 45 08             	mov    0x8(%ebp),%eax
  117c5d:	8b 40 10             	mov    0x10(%eax),%eax
  117c60:	89 44 24 04          	mov    %eax,0x4(%esp)
  117c64:	c7 04 24 c7 94 11 00 	movl   $0x1194c7,(%esp)
  117c6b:	e8 84 ba ff ff       	call   0x1136f4
  117c70:	8b 45 08             	mov    0x8(%ebp),%eax
  117c73:	8b 40 14             	mov    0x14(%eax),%eax
  117c76:	89 44 24 04          	mov    %eax,0x4(%esp)
  117c7a:	c7 04 24 da 94 11 00 	movl   $0x1194da,(%esp)
  117c81:	e8 6e ba ff ff       	call   0x1136f4
  117c86:	8b 45 08             	mov    0x8(%ebp),%eax
  117c89:	8b 40 18             	mov    0x18(%eax),%eax
  117c8c:	89 44 24 04          	mov    %eax,0x4(%esp)
  117c90:	c7 04 24 ea 94 11 00 	movl   $0x1194ea,(%esp)
  117c97:	e8 58 ba ff ff       	call   0x1136f4
  117c9c:	8b 45 08             	mov    0x8(%ebp),%eax
  117c9f:	8b 40 1c             	mov    0x1c(%eax),%eax
  117ca2:	89 44 24 04          	mov    %eax,0x4(%esp)
  117ca6:	c7 04 24 fd 94 11 00 	movl   $0x1194fd,(%esp)
  117cad:	e8 42 ba ff ff       	call   0x1136f4
  117cb2:	8b 45 08             	mov    0x8(%ebp),%eax
  117cb5:	8b 40 20             	mov    0x20(%eax),%eax
  117cb8:	89 44 24 04          	mov    %eax,0x4(%esp)
  117cbc:	c7 04 24 10 95 11 00 	movl   $0x119510,(%esp)
  117cc3:	e8 2c ba ff ff       	call   0x1136f4
  117cc8:	8b 45 08             	mov    0x8(%ebp),%eax
  117ccb:	8b 40 24             	mov    0x24(%eax),%eax
  117cce:	89 44 24 04          	mov    %eax,0x4(%esp)
  117cd2:	c7 04 24 20 95 11 00 	movl   $0x119520,(%esp)
  117cd9:	e8 16 ba ff ff       	call   0x1136f4
  117cde:	8b 45 08             	mov    0x8(%ebp),%eax
  117ce1:	8b 40 28             	mov    0x28(%eax),%eax
  117ce4:	89 44 24 04          	mov    %eax,0x4(%esp)
  117ce8:	c7 04 24 33 95 11 00 	movl   $0x119533,(%esp)
  117cef:	e8 00 ba ff ff       	call   0x1136f4
  117cf4:	8b 45 08             	mov    0x8(%ebp),%eax
  117cf7:	8b 40 2c             	mov    0x2c(%eax),%eax
  117cfa:	89 44 24 04          	mov    %eax,0x4(%esp)
  117cfe:	c7 04 24 46 95 11 00 	movl   $0x119546,(%esp)
  117d05:	e8 ea b9 ff ff       	call   0x1136f4
  117d0a:	8b 45 08             	mov    0x8(%ebp),%eax
  117d0d:	8b 40 30             	mov    0x30(%eax),%eax
  117d10:	89 44 24 04          	mov    %eax,0x4(%esp)
  117d14:	c7 04 24 56 95 11 00 	movl   $0x119556,(%esp)
  117d1b:	e8 d4 b9 ff ff       	call   0x1136f4
  117d20:	8b 45 08             	mov    0x8(%ebp),%eax
  117d23:	8b 40 34             	mov    0x34(%eax),%eax
  117d26:	89 44 24 04          	mov    %eax,0x4(%esp)
  117d2a:	c7 04 24 69 95 11 00 	movl   $0x119569,(%esp)
  117d31:	e8 be b9 ff ff       	call   0x1136f4
  117d36:	8b 45 08             	mov    0x8(%ebp),%eax
  117d39:	8b 40 38             	mov    0x38(%eax),%eax
  117d3c:	89 44 24 04          	mov    %eax,0x4(%esp)
  117d40:	c7 04 24 7c 95 11 00 	movl   $0x11957c,(%esp)
  117d47:	e8 a8 b9 ff ff       	call   0x1136f4
  117d4c:	8b 45 08             	mov    0x8(%ebp),%eax
  117d4f:	8b 40 3c             	mov    0x3c(%eax),%eax
  117d52:	89 44 24 04          	mov    %eax,0x4(%esp)
  117d56:	c7 04 24 8c 95 11 00 	movl   $0x11958c,(%esp)
  117d5d:	e8 92 b9 ff ff       	call   0x1136f4
  117d62:	8b 45 08             	mov    0x8(%ebp),%eax
  117d65:	8b 40 40             	mov    0x40(%eax),%eax
  117d68:	89 44 24 04          	mov    %eax,0x4(%esp)
  117d6c:	c7 04 24 9f 95 11 00 	movl   $0x11959f,(%esp)
  117d73:	e8 7c b9 ff ff       	call   0x1136f4
  117d78:	8b 45 08             	mov    0x8(%ebp),%eax
  117d7b:	0f b7 40 44          	movzwl 0x44(%eax),%eax
  117d7f:	0f b7 c0             	movzwl %ax,%eax
  117d82:	89 44 24 04          	mov    %eax,0x4(%esp)
  117d86:	c7 04 24 af 95 11 00 	movl   $0x1195af,(%esp)
  117d8d:	e8 62 b9 ff ff       	call   0x1136f4
  117d92:	8b 45 08             	mov    0x8(%ebp),%eax
  117d95:	8b 40 5c             	mov    0x5c(%eax),%eax
  117d98:	89 44 24 04          	mov    %eax,0x4(%esp)
  117d9c:	c7 04 24 c8 95 11 00 	movl   $0x1195c8,(%esp)
  117da3:	e8 4c b9 ff ff       	call   0x1136f4
  117da8:	8b 45 08             	mov    0x8(%ebp),%eax
  117dab:	8b 40 60             	mov    0x60(%eax),%eax
  117dae:	89 44 24 04          	mov    %eax,0x4(%esp)
  117db2:	c7 04 24 de 95 11 00 	movl   $0x1195de,(%esp)
  117db9:	e8 36 b9 ff ff       	call   0x1136f4
  117dbe:	8b 45 08             	mov    0x8(%ebp),%eax
  117dc1:	8b 40 64             	mov    0x64(%eax),%eax
  117dc4:	89 44 24 04          	mov    %eax,0x4(%esp)
  117dc8:	c7 04 24 f7 95 11 00 	movl   $0x1195f7,(%esp)
  117dcf:	e8 20 b9 ff ff       	call   0x1136f4
  117dd4:	8b 45 08             	mov    0x8(%ebp),%eax
  117dd7:	8b 40 70             	mov    0x70(%eax),%eax
  117dda:	89 44 24 04          	mov    %eax,0x4(%esp)
  117dde:	c7 04 24 0d 96 11 00 	movl   $0x11960d,(%esp)
  117de5:	e8 0a b9 ff ff       	call   0x1136f4
  117dea:	8b 45 08             	mov    0x8(%ebp),%eax
  117ded:	8b 40 74             	mov    0x74(%eax),%eax
  117df0:	89 44 24 04          	mov    %eax,0x4(%esp)
  117df4:	c7 04 24 26 96 11 00 	movl   $0x119626,(%esp)
  117dfb:	e8 f4 b8 ff ff       	call   0x1136f4
  117e00:	8b 45 08             	mov    0x8(%ebp),%eax
  117e03:	8b 40 48             	mov    0x48(%eax),%eax
  117e06:	89 44 24 04          	mov    %eax,0x4(%esp)
  117e0a:	c7 04 24 3c 96 11 00 	movl   $0x11963c,(%esp)
  117e11:	e8 de b8 ff ff       	call   0x1136f4
  117e16:	8b 45 08             	mov    0x8(%ebp),%eax
  117e19:	8b 80 0c 01 00 00    	mov    0x10c(%eax),%eax
  117e1f:	89 44 24 04          	mov    %eax,0x4(%esp)
  117e23:	c7 04 24 48 96 11 00 	movl   $0x119648,(%esp)
  117e2a:	e8 c5 b8 ff ff       	call   0x1136f4
  117e2f:	c7 45 fc 00 00 00 00 	movl   $0x0,0xfffffffc(%ebp)
  117e36:	eb 39                	jmp    0x117e71
  117e38:	8b 45 fc             	mov    0xfffffffc(%ebp),%eax
  117e3b:	8b 55 08             	mov    0x8(%ebp),%edx
  117e3e:	8b 84 82 80 00 00 00 	mov    0x80(%edx,%eax,4),%eax
  117e45:	85 c0                	test   %eax,%eax
  117e47:	74 24                	je     0x117e6d
  117e49:	8b 55 fc             	mov    0xfffffffc(%ebp),%edx
  117e4c:	8b 45 08             	mov    0x8(%ebp),%eax
  117e4f:	8b 84 90 80 00 00 00 	mov    0x80(%eax,%edx,4),%eax
  117e56:	89 44 24 08          	mov    %eax,0x8(%esp)
  117e5a:	8b 45 fc             	mov    0xfffffffc(%ebp),%eax
  117e5d:	89 44 24 04          	mov    %eax,0x4(%esp)
  117e61:	c7 04 24 56 96 11 00 	movl   $0x119656,(%esp)
  117e68:	e8 87 b8 ff ff       	call   0x1136f4
  117e6d:	83 45 fc 01          	addl   $0x1,0xfffffffc(%ebp)
  117e71:	83 7d fc 1f          	cmpl   $0x1f,0xfffffffc(%ebp)
  117e75:	7e c1                	jle    0x117e38
  117e77:	8b 45 08             	mov    0x8(%ebp),%eax
  117e7a:	05 10 01 00 00       	add    $0x110,%eax
  117e7f:	89 44 24 04          	mov    %eax,0x4(%esp)
  117e83:	c7 04 24 6c 96 11 00 	movl   $0x11966c,(%esp)
  117e8a:	e8 65 b8 ff ff       	call   0x1136f4
  117e8f:	c9                   	leave  
  117e90:	c3                   	ret    
  117e91:	90                   	nop    
  117e92:	90                   	nop    
  117e93:	90                   	nop    
  117e94:	55                   	push   %ebp
  117e95:	89 e5                	mov    %esp,%ebp
  117e97:	81 ec 38 0c 00 00    	sub    $0xc38,%esp
  117e9d:	c7 45 e0 00 0c 00 00 	movl   $0xc00,0xffffffe0(%ebp)
  117ea4:	c7 44 24 04 00 00 00 	movl   $0x0,0x4(%esp)
  117eab:	00 
  117eac:	8b 45 08             	mov    0x8(%ebp),%eax
  117eaf:	89 04 24             	mov    %eax,(%esp)
  117eb2:	e8 d4 a2 ff ff       	call   0x11218b
  117eb7:	89 45 f0             	mov    %eax,0xfffffff0(%ebp)
  117eba:	83 7d f0 ff          	cmpl   $0xffffffff,0xfffffff0(%ebp)
  117ebe:	75 24                	jne    0x117ee4
  117ec0:	c7 44 24 0c 11 00 00 	movl   $0x11,0xc(%esp)
  117ec7:	00 
  117ec8:	c7 44 24 08 85 96 11 	movl   $0x119685,0x8(%esp)
  117ecf:	00 
  117ed0:	c7 44 24 04 85 96 11 	movl   $0x119685,0x4(%esp)
  117ed7:	00 
  117ed8:	c7 04 24 8b 96 11 00 	movl   $0x11968b,(%esp)
  117edf:	e8 30 a5 ff ff       	call   0x112414
  117ee4:	c7 44 24 0c 00 02 00 	movl   $0x200,0xc(%esp)
  117eeb:	00 
  117eec:	c7 44 24 08 00 00 00 	movl   $0x0,0x8(%esp)
  117ef3:	00 
  117ef4:	8d 85 e0 f3 ff ff    	lea    0xfffff3e0(%ebp),%eax
  117efa:	89 44 24 04          	mov    %eax,0x4(%esp)
  117efe:	8b 45 f0             	mov    0xfffffff0(%ebp),%eax
  117f01:	89 04 24             	mov    %eax,(%esp)
  117f04:	e8 5e a3 ff ff       	call   0x112267
  117f09:	0f b6 85 e0 f3 ff ff 	movzbl 0xfffff3e0(%ebp),%eax
  117f10:	84 c0                	test   %al,%al
  117f12:	0f 84 74 01 00 00    	je     0x11808c
  117f18:	8d 85 e0 f3 ff ff    	lea    0xfffff3e0(%ebp),%eax
  117f1e:	89 45 e4             	mov    %eax,0xffffffe4(%ebp)
  117f21:	8b 45 e4             	mov    0xffffffe4(%ebp),%eax
  117f24:	89 04 24             	mov    %eax,(%esp)
  117f27:	e8 24 a2 ff ff       	call   0x112150
  117f2c:	89 45 e8             	mov    %eax,0xffffffe8(%ebp)
  117f2f:	8b 45 e4             	mov    0xffffffe4(%ebp),%eax
  117f32:	83 c0 7c             	add    $0x7c,%eax
  117f35:	89 45 ec             	mov    %eax,0xffffffec(%ebp)
  117f38:	c7 45 f4 00 00 00 00 	movl   $0x0,0xfffffff4(%ebp)
  117f3f:	c7 45 f8 00 00 00 00 	movl   $0x0,0xfffffff8(%ebp)
  117f46:	eb 25                	jmp    0x117f6d
  117f48:	8b 45 ec             	mov    0xffffffec(%ebp),%eax
  117f4b:	0f b6 00             	movzbl (%eax),%eax
  117f4e:	84 c0                	test   %al,%al
  117f50:	74 21                	je     0x117f73
  117f52:	c1 65 f8 03          	shll   $0x3,0xfffffff8(%ebp)
  117f56:	8b 45 ec             	mov    0xffffffec(%ebp),%eax
  117f59:	0f b6 00             	movzbl (%eax),%eax
  117f5c:	0f be c0             	movsbl %al,%eax
  117f5f:	83 e8 30             	sub    $0x30,%eax
  117f62:	01 45 f8             	add    %eax,0xfffffff8(%ebp)
  117f65:	83 45 f4 01          	addl   $0x1,0xfffffff4(%ebp)
  117f69:	83 45 ec 01          	addl   $0x1,0xffffffec(%ebp)
  117f6d:	83 7d f4 0b          	cmpl   $0xb,0xfffffff4(%ebp)
  117f71:	7e d5                	jle    0x117f48
  117f73:	c7 44 24 04 01 00 00 	movl   $0x1,0x4(%esp)
  117f7a:	00 
  117f7b:	8b 45 e8             	mov    0xffffffe8(%ebp),%eax
  117f7e:	89 04 24             	mov    %eax,(%esp)
  117f81:	e8 05 a2 ff ff       	call   0x11218b
  117f86:	89 45 fc             	mov    %eax,0xfffffffc(%ebp)
  117f89:	83 7d fc ff          	cmpl   $0xffffffff,0xfffffffc(%ebp)
  117f8d:	0f 85 df 00 00 00    	jne    0x118072
  117f93:	c7 44 24 0c 25 00 00 	movl   $0x25,0xc(%esp)
  117f9a:	00 
  117f9b:	c7 44 24 08 85 96 11 	movl   $0x119685,0x8(%esp)
  117fa2:	00 
  117fa3:	c7 44 24 04 85 96 11 	movl   $0x119685,0x4(%esp)
  117faa:	00 
  117fab:	c7 04 24 94 96 11 00 	movl   $0x119694,(%esp)
  117fb2:	e8 5d a4 ff ff       	call   0x112414
  117fb7:	e9 b6 00 00 00       	jmp    0x118072
  117fbc:	8b 45 f8             	mov    0xfffffff8(%ebp),%eax
  117fbf:	3b 45 e0             	cmp    0xffffffe0(%ebp),%eax
  117fc2:	7f 60                	jg     0x118024
  117fc4:	8b 55 f8             	mov    0xfffffff8(%ebp),%edx
  117fc7:	81 c2 ff 01 00 00    	add    $0x1ff,%edx
  117fcd:	89 d0                	mov    %edx,%eax
  117fcf:	c1 f8 1f             	sar    $0x1f,%eax
  117fd2:	c1 e8 17             	shr    $0x17,%eax
  117fd5:	01 d0                	add    %edx,%eax
  117fd7:	c1 f8 09             	sar    $0x9,%eax
  117fda:	c1 e0 09             	shl    $0x9,%eax
  117fdd:	89 44 24 0c          	mov    %eax,0xc(%esp)
  117fe1:	c7 44 24 08 00 00 00 	movl   $0x0,0x8(%esp)
  117fe8:	00 
  117fe9:	8d 85 e0 f3 ff ff    	lea    0xfffff3e0(%ebp),%eax
  117fef:	89 44 24 04          	mov    %eax,0x4(%esp)
  117ff3:	8b 45 f0             	mov    0xfffffff0(%ebp),%eax
  117ff6:	89 04 24             	mov    %eax,(%esp)
  117ff9:	e8 69 a2 ff ff       	call   0x112267
  117ffe:	8b 45 f8             	mov    0xfffffff8(%ebp),%eax
  118001:	89 44 24 0c          	mov    %eax,0xc(%esp)
  118005:	c7 44 24 08 00 00 00 	movl   $0x0,0x8(%esp)
  11800c:	00 
  11800d:	8d 85 e0 f3 ff ff    	lea    0xfffff3e0(%ebp),%eax
  118013:	89 44 24 04          	mov    %eax,0x4(%esp)
  118017:	8b 45 fc             	mov    0xfffffffc(%ebp),%eax
  11801a:	89 04 24             	mov    %eax,(%esp)
  11801d:	e8 d1 a1 ff ff       	call   0x1121f3
  118022:	eb 58                	jmp    0x11807c
  118024:	8b 45 e0             	mov    0xffffffe0(%ebp),%eax
  118027:	89 44 24 0c          	mov    %eax,0xc(%esp)
  11802b:	c7 44 24 08 00 00 00 	movl   $0x0,0x8(%esp)
  118032:	00 
  118033:	8d 85 e0 f3 ff ff    	lea    0xfffff3e0(%ebp),%eax
  118039:	89 44 24 04          	mov    %eax,0x4(%esp)
  11803d:	8b 45 f0             	mov    0xfffffff0(%ebp),%eax
  118040:	89 04 24             	mov    %eax,(%esp)
  118043:	e8 1f a2 ff ff       	call   0x112267
  118048:	8b 45 e0             	mov    0xffffffe0(%ebp),%eax
  11804b:	89 44 24 0c          	mov    %eax,0xc(%esp)
  11804f:	c7 44 24 08 00 00 00 	movl   $0x0,0x8(%esp)
  118056:	00 
  118057:	8d 85 e0 f3 ff ff    	lea    0xfffff3e0(%ebp),%eax
  11805d:	89 44 24 04          	mov    %eax,0x4(%esp)
  118061:	8b 45 fc             	mov    0xfffffffc(%ebp),%eax
  118064:	89 04 24             	mov    %eax,(%esp)
  118067:	e8 87 a1 ff ff       	call   0x1121f3
  11806c:	8b 45 e0             	mov    0xffffffe0(%ebp),%eax
  11806f:	29 45 f8             	sub    %eax,0xfffffff8(%ebp)
  118072:	83 7d f8 00          	cmpl   $0x0,0xfffffff8(%ebp)
  118076:	0f 8f 40 ff ff ff    	jg     0x117fbc
  11807c:	8b 45 fc             	mov    0xfffffffc(%ebp),%eax
  11807f:	89 04 24             	mov    %eax,(%esp)
  118082:	e8 54 a2 ff ff       	call   0x1122db
  118087:	e9 58 fe ff ff       	jmp    0x117ee4
  11808c:	8b 45 f0             	mov    0xfffffff0(%ebp),%eax
  11808f:	89 04 24             	mov    %eax,(%esp)
  118092:	e8 44 a2 ff ff       	call   0x1122db
  118097:	b8 00 00 00 00       	mov    $0x0,%eax
  11809c:	c9                   	leave  
  11809d:	c3                   	ret    
  11809e:	90                   	nop    
  11809f:	90                   	nop    
  1180a0:	8d 4c 24 04          	lea    0x4(%esp),%ecx
  1180a4:	83 e4 f0             	and    $0xfffffff0,%esp
  1180a7:	ff 71 fc             	pushl  0xfffffffc(%ecx)
  1180aa:	55                   	push   %ebp
  1180ab:	89 e5                	mov    %esp,%ebp
  1180ad:	51                   	push   %ecx
  1180ae:	81 ec 14 02 00 00    	sub    $0x214,%esp
  1180b4:	89 8d 04 fe ff ff    	mov    %ecx,0xfffffe04(%ebp)
  1180ba:	8b 85 04 fe ff ff    	mov    0xfffffe04(%ebp),%eax
  1180c0:	83 38 02             	cmpl   $0x2,(%eax)
  1180c3:	0f 85 42 01 00 00    	jne    0x11820b
  1180c9:	8b 95 04 fe ff ff    	mov    0xfffffe04(%ebp),%edx
  1180cf:	8b 42 04             	mov    0x4(%edx),%eax
  1180d2:	83 c0 04             	add    $0x4,%eax
  1180d5:	8b 00                	mov    (%eax),%eax
  1180d7:	c7 44 24 04 a4 96 11 	movl   $0x1196a4,0x4(%esp)
  1180de:	00 
  1180df:	89 04 24             	mov    %eax,(%esp)
  1180e2:	e8 68 b2 ff ff       	call   0x11334f
  1180e7:	85 c0                	test   %eax,%eax
  1180e9:	74 48                	je     0x118133
  1180eb:	8b 95 04 fe ff ff    	mov    0xfffffe04(%ebp),%edx
  1180f1:	8b 42 04             	mov    0x4(%edx),%eax
  1180f4:	83 c0 04             	add    $0x4,%eax
  1180f7:	8b 00                	mov    (%eax),%eax
  1180f9:	c7 44 24 04 a9 96 11 	movl   $0x1196a9,0x4(%esp)
  118100:	00 
  118101:	89 04 24             	mov    %eax,(%esp)
  118104:	e8 46 b2 ff ff       	call   0x11334f
  118109:	85 c0                	test   %eax,%eax
  11810b:	74 26                	je     0x118133
  11810d:	8b 95 04 fe ff ff    	mov    0xfffffe04(%ebp),%edx
  118113:	8b 42 04             	mov    0x4(%edx),%eax
  118116:	83 c0 04             	add    $0x4,%eax
  118119:	8b 00                	mov    (%eax),%eax
  11811b:	c7 44 24 04 ae 96 11 	movl   $0x1196ae,0x4(%esp)
  118122:	00 
  118123:	89 04 24             	mov    %eax,(%esp)
  118126:	e8 24 b2 ff ff       	call   0x11334f
  11812b:	85 c0                	test   %eax,%eax
  11812d:	0f 85 c9 00 00 00    	jne    0x1181fc
  118133:	a1 90 ac 11 00       	mov    0x11ac90,%eax
  118138:	89 04 24             	mov    %eax,(%esp)
  11813b:	e8 9b a1 ff ff       	call   0x1122db
  118140:	a1 8c ac 11 00       	mov    0x11ac8c,%eax
  118145:	89 04 24             	mov    %eax,(%esp)
  118148:	e8 8e a1 ff ff       	call   0x1122db
  11814d:	8b 95 04 fe ff ff    	mov    0xfffffe04(%ebp),%edx
  118153:	8b 42 04             	mov    0x4(%edx),%eax
  118156:	83 c0 04             	add    $0x4,%eax
  118159:	8b 00                	mov    (%eax),%eax
  11815b:	c7 44 24 04 00 00 00 	movl   $0x0,0x4(%esp)
  118162:	00 
  118163:	89 04 24             	mov    %eax,(%esp)
  118166:	e8 20 a0 ff ff       	call   0x11218b
  11816b:	a3 90 ac 11 00       	mov    %eax,0x11ac90
  118170:	8b 95 04 fe ff ff    	mov    0xfffffe04(%ebp),%edx
  118176:	8b 42 04             	mov    0x4(%edx),%eax
  118179:	83 c0 04             	add    $0x4,%eax
  11817c:	8b 00                	mov    (%eax),%eax
  11817e:	c7 44 24 04 00 00 00 	movl   $0x0,0x4(%esp)
  118185:	00 
  118186:	89 04 24             	mov    %eax,(%esp)
  118189:	e8 fd 9f ff ff       	call   0x11218b
  11818e:	a3 8c ac 11 00       	mov    %eax,0x11ac8c
  118193:	a1 90 ac 11 00       	mov    0x11ac90,%eax
  118198:	85 c0                	test   %eax,%eax
  11819a:	74 24                	je     0x1181c0
  11819c:	c7 44 24 0c 12 00 00 	movl   $0x12,0xc(%esp)
  1181a3:	00 
  1181a4:	c7 44 24 08 b3 96 11 	movl   $0x1196b3,0x8(%esp)
  1181ab:	00 
  1181ac:	c7 44 24 04 b3 96 11 	movl   $0x1196b3,0x4(%esp)
  1181b3:	00 
  1181b4:	c7 04 24 bb 96 11 00 	movl   $0x1196bb,(%esp)
  1181bb:	e8 54 a2 ff ff       	call   0x112414
  1181c0:	a1 8c ac 11 00       	mov    0x11ac8c,%eax
  1181c5:	83 f8 01             	cmp    $0x1,%eax
  1181c8:	74 24                	je     0x1181ee
  1181ca:	c7 44 24 0c 13 00 00 	movl   $0x13,0xc(%esp)
  1181d1:	00 
  1181d2:	c7 44 24 08 b3 96 11 	movl   $0x1196b3,0x8(%esp)
  1181d9:	00 
  1181da:	c7 44 24 04 b3 96 11 	movl   $0x1196b3,0x4(%esp)
  1181e1:	00 
  1181e2:	c7 04 24 c6 96 11 00 	movl   $0x1196c6,(%esp)
  1181e9:	e8 26 a2 ff ff       	call   0x112414
  1181ee:	c7 04 24 d4 96 11 00 	movl   $0x1196d4,(%esp)
  1181f5:	e8 3b b5 ff ff       	call   0x113735
  1181fa:	eb 1e                	jmp    0x11821a
  1181fc:	c7 85 08 fe ff ff ff 	movl   $0xffffffff,0xfffffe08(%ebp)
  118203:	ff ff ff 
  118206:	e9 71 01 00 00       	jmp    0x11837c
  11820b:	c7 85 08 fe ff ff ff 	movl   $0xffffffff,0xfffffe08(%ebp)
  118212:	ff ff ff 
  118215:	e9 62 01 00 00       	jmp    0x11837c
  11821a:	a1 90 ac 11 00       	mov    0x11ac90,%eax
  11821f:	c7 44 24 0c ff 00 00 	movl   $0xff,0xc(%esp)
  118226:	00 
  118227:	c7 44 24 08 00 00 00 	movl   $0x0,0x8(%esp)
  11822e:	00 
  11822f:	8d 95 e4 fe ff ff    	lea    0xfffffee4(%ebp),%edx
  118235:	89 54 24 04          	mov    %edx,0x4(%esp)
  118239:	89 04 24             	mov    %eax,(%esp)
  11823c:	e8 26 a0 ff ff       	call   0x112267
  118241:	89 45 e4             	mov    %eax,0xffffffe4(%ebp)
  118244:	83 7d e4 ff          	cmpl   $0xffffffff,0xffffffe4(%ebp)
  118248:	75 0e                	jne    0x118258
  11824a:	c7 04 24 32 00 00 00 	movl   $0x32,(%esp)
  118251:	e8 72 f9 ff ff       	call   0x117bc8
  118256:	eb c2                	jmp    0x11821a
  118258:	83 7d e4 00          	cmpl   $0x0,0xffffffe4(%ebp)
  11825c:	74 bc                	je     0x11821a
  11825e:	e8 4c ae ff ff       	call   0x1130af
  118263:	85 c0                	test   %eax,%eax
  118265:	74 13                	je     0x11827a
  118267:	8d 85 e0 fe ff ff    	lea    0xfffffee0(%ebp),%eax
  11826d:	89 04 24             	mov    %eax,(%esp)
  118270:	e8 f5 ae ff ff       	call   0x11316a
  118275:	89 45 e8             	mov    %eax,0xffffffe8(%ebp)
  118278:	eb a0                	jmp    0x11821a
  11827a:	8d 85 18 fe ff ff    	lea    0xfffffe18(%ebp),%eax
  118280:	89 45 f4             	mov    %eax,0xfffffff4(%ebp)
  118283:	8d 85 e4 fe ff ff    	lea    0xfffffee4(%ebp),%eax
  118289:	89 45 f0             	mov    %eax,0xfffffff0(%ebp)
  11828c:	c7 45 ec 00 00 00 00 	movl   $0x0,0xffffffec(%ebp)
  118293:	e9 80 00 00 00       	jmp    0x118318
  118298:	83 45 f0 01          	addl   $0x1,0xfffffff0(%ebp)
  11829c:	8b 45 e4             	mov    0xffffffe4(%ebp),%eax
  11829f:	89 c2                	mov    %eax,%edx
  1182a1:	8d 85 e4 fe ff ff    	lea    0xfffffee4(%ebp),%eax
  1182a7:	01 d0                	add    %edx,%eax
  1182a9:	39 45 f0             	cmp    %eax,0xfffffff0(%ebp)
  1182ac:	73 0a                	jae    0x1182b8
  1182ae:	8b 45 f0             	mov    0xfffffff0(%ebp),%eax
  1182b1:	0f b6 00             	movzbl (%eax),%eax
  1182b4:	3c 20                	cmp    $0x20,%al
  1182b6:	74 e0                	je     0x118298
  1182b8:	8b 45 e4             	mov    0xffffffe4(%ebp),%eax
  1182bb:	89 c2                	mov    %eax,%edx
  1182bd:	8d 85 e4 fe ff ff    	lea    0xfffffee4(%ebp),%eax
  1182c3:	01 d0                	add    %edx,%eax
  1182c5:	3b 45 f0             	cmp    0xfffffff0(%ebp),%eax
  1182c8:	76 60                	jbe    0x11832a
  1182ca:	83 45 ec 01          	addl   $0x1,0xffffffec(%ebp)
  1182ce:	8b 55 f4             	mov    0xfffffff4(%ebp),%edx
  1182d1:	8b 45 f0             	mov    0xfffffff0(%ebp),%eax
  1182d4:	89 02                	mov    %eax,(%edx)
  1182d6:	83 45 f4 04          	addl   $0x4,0xfffffff4(%ebp)
  1182da:	eb 16                	jmp    0x1182f2
  1182dc:	83 45 f0 01          	addl   $0x1,0xfffffff0(%ebp)
  1182e0:	8b 45 e4             	mov    0xffffffe4(%ebp),%eax
  1182e3:	89 c2                	mov    %eax,%edx
  1182e5:	8d 85 e4 fe ff ff    	lea    0xfffffee4(%ebp),%eax
  1182eb:	01 d0                	add    %edx,%eax
  1182ed:	39 45 f0             	cmp    %eax,0xfffffff0(%ebp)
  1182f0:	73 0a                	jae    0x1182fc
  1182f2:	8b 45 f0             	mov    0xfffffff0(%ebp),%eax
  1182f5:	0f b6 00             	movzbl (%eax),%eax
  1182f8:	3c 20                	cmp    $0x20,%al
  1182fa:	75 e0                	jne    0x1182dc
  1182fc:	8b 45 e4             	mov    0xffffffe4(%ebp),%eax
  1182ff:	89 c2                	mov    %eax,%edx
  118301:	8d 85 e4 fe ff ff    	lea    0xfffffee4(%ebp),%eax
  118307:	01 d0                	add    %edx,%eax
  118309:	3b 45 f0             	cmp    0xfffffff0(%ebp),%eax
  11830c:	76 1c                	jbe    0x11832a
  11830e:	8b 45 f0             	mov    0xfffffff0(%ebp),%eax
  118311:	c6 00 00             	movb   $0x0,(%eax)
  118314:	83 45 f0 01          	addl   $0x1,0xfffffff0(%ebp)
  118318:	8b 45 e4             	mov    0xffffffe4(%ebp),%eax
  11831b:	89 c2                	mov    %eax,%edx
  11831d:	8d 85 e4 fe ff ff    	lea    0xfffffee4(%ebp),%eax
  118323:	01 d0                	add    %edx,%eax
  118325:	3b 45 f0             	cmp    0xfffffff0(%ebp),%eax
  118328:	77 84                	ja     0x1182ae
  11832a:	8b 85 18 fe ff ff    	mov    0xfffffe18(%ebp),%eax
  118330:	89 45 f8             	mov    %eax,0xfffffff8(%ebp)
  118333:	8d 85 18 fe ff ff    	lea    0xfffffe18(%ebp),%eax
  118339:	89 44 24 08          	mov    %eax,0x8(%esp)
  11833d:	8b 45 ec             	mov    0xffffffec(%ebp),%eax
  118340:	89 44 24 04          	mov    %eax,0x4(%esp)
  118344:	8b 45 f8             	mov    0xfffffff8(%ebp),%eax
  118347:	89 04 24             	mov    %eax,(%esp)
  11834a:	e8 7d ae ff ff       	call   0x1131cc
  11834f:	83 f8 ff             	cmp    $0xffffffff,%eax
  118352:	0f 85 c2 fe ff ff    	jne    0x11821a
  118358:	8b 45 f8             	mov    0xfffffff8(%ebp),%eax
  11835b:	89 44 24 04          	mov    %eax,0x4(%esp)
  11835f:	c7 04 24 04 97 11 00 	movl   $0x119704,(%esp)
  118366:	e8 ca b3 ff ff       	call   0x113735
  11836b:	c7 04 24 ff ff ff ff 	movl   $0xffffffff,(%esp)
  118372:	e8 94 ad ff ff       	call   0x11310b
  118377:	e9 9e fe ff ff       	jmp    0x11821a
  11837c:	8b 85 08 fe ff ff    	mov    0xfffffe08(%ebp),%eax
  118382:	81 c4 14 02 00 00    	add    $0x214,%esp
  118388:	59                   	pop    %ecx
  118389:	5d                   	pop    %ebp
  11838a:	8d 61 fc             	lea    0xfffffffc(%ecx),%esp
  11838d:	c3                   	ret    
